
1111fadd-99d5-4afb-a1dc-ee3e9c61b04d.elf:     file format elf32-littlearm
1111fadd-99d5-4afb-a1dc-ee3e9c61b04d.elf
architecture: armv7, flags 0x00000150:
HAS_SYMS, DYNAMIC, D_PAGED
start address 0x00001064

Program Header:
    LOAD off    0x00001000 vaddr 0x00000000 paddr 0x00000000 align 2**12
         filesz 0x0000b0e4 memsz 0x0000b0e4 flags r-x
    LOAD off    0x0000d000 vaddr 0x0000c000 paddr 0x0000c000 align 2**12
         filesz 0x0000057c memsz 0x0020b790 flags rw-
 DYNAMIC off    0x0000d000 vaddr 0x0000c000 paddr 0x0000c000 align 2**2
         filesz 0x00000088 memsz 0x00000088 flags rw-
   STACK off    0x00000000 vaddr 0x00000000 paddr 0x00000000 align 2**4
         filesz 0x00000000 memsz 0x00000000 flags rwx

Dynamic Section:
  HASH                 0x0000b0b8
  GNU_HASH             0x0000affc
  STRTAB               0x0000b088
  SYMTAB               0x0000b028
  STRSZ                0x0000002e
  SYMENT               0x00000010
  DEBUG                0x00000000
  REL                  0x0000c0fc
  RELSZ                0x00000190
  RELENT               0x00000008
  FLAGS_1              0x08000000
  RELCOUNT             0x00000018
private flags = 5000400: [Version5 EABI] [hard-float ABI]

Sections:
Idx Name          Size      VMA       LMA       File off  Algn
  0 .ta_head      00000020  00000000  00000000  00001000  2**3
                  CONTENTS, ALLOC, LOAD, READONLY, DATA
  1 .text         00009b48  00000020  00000020  00001020  2**3
                  CONTENTS, ALLOC, LOAD, READONLY, CODE
  2 .rodata       00001494  00009b68  00009b68  0000ab68  2**2
                  CONTENTS, ALLOC, LOAD, READONLY, DATA
  3 .gnu.hash     0000002c  0000affc  0000affc  0000bffc  2**2
                  CONTENTS, ALLOC, LOAD, READONLY, DATA
  4 .dynsym       00000060  0000b028  0000b028  0000c028  2**2
                  CONTENTS, ALLOC, LOAD, READONLY, DATA
  5 .dynstr       0000002e  0000b088  0000b088  0000c088  2**0
                  CONTENTS, ALLOC, LOAD, READONLY, DATA
  6 .hash         0000002c  0000b0b8  0000b0b8  0000c0b8  2**2
                  CONTENTS, ALLOC, LOAD, READONLY, DATA
  7 .dynamic      00000088  0000c000  0000c000  0000d000  2**2
                  CONTENTS, ALLOC, LOAD, DATA
  8 .got          00000074  0000c088  0000c088  0000d088  2**2
                  CONTENTS, ALLOC, LOAD, DATA
  9 .rel.got      000000d0  0000c1bc  0000c1bc  0000d1bc  2**2
                  CONTENTS, ALLOC, LOAD, READONLY, DATA
 10 .data         000002f0  0000c28c  0000c28c  0000d28c  2**2
                  CONTENTS, ALLOC, LOAD, DATA
 11 .bss          0020b214  0000c57c  0000c57c  0000d57c  2**2
                  ALLOC
 12 .debug_info   0001890e  00000000  00000000  0000d57c  2**0
                  CONTENTS, READONLY, DEBUGGING, OCTETS
 13 .debug_abbrev 0000401c  00000000  00000000  00025e8a  2**0
                  CONTENTS, READONLY, DEBUGGING, OCTETS
 14 .debug_loc    00017276  00000000  00000000  00029ea6  2**0
                  CONTENTS, READONLY, DEBUGGING, OCTETS
 15 .debug_aranges 000006e0  00000000  00000000  00041120  2**3
                  CONTENTS, READONLY, DEBUGGING, OCTETS
 16 .debug_ranges 00000f78  00000000  00000000  00041800  2**3
                  CONTENTS, READONLY, DEBUGGING, OCTETS
 17 .debug_macro  0001b6a2  00000000  00000000  00042778  2**0
                  CONTENTS, READONLY, DEBUGGING, OCTETS
 18 .debug_line   00012c23  00000000  00000000  0005de1a  2**0
                  CONTENTS, READONLY, DEBUGGING, OCTETS
 19 .debug_str    00018f04  00000000  00000000  00070a3d  2**0
                  CONTENTS, READONLY, DEBUGGING, OCTETS
 20 .comment      00000011  00000000  00000000  00089941  2**0
                  CONTENTS, READONLY
 21 .ARM.attributes 00000033  00000000  00000000  00089952  2**0
                  CONTENTS, READONLY
 22 .debug_frame  00002464  00000000  00000000  00089988  2**2
                  CONTENTS, READONLY, DEBUGGING, OCTETS
 23 .rel.dyn      000000c0  0000c0fc  0000c0fc  0000d0fc  2**2
                  CONTENTS, ALLOC, LOAD, READONLY, DATA
SYMBOL TABLE:
00000000 l    d  .ta_head	00000000 .ta_head
00000020 l    d  .text	00000000 .text
00009b68 l    d  .rodata	00000000 .rodata
0000affc l    d  .gnu.hash	00000000 .gnu.hash
0000b028 l    d  .dynsym	00000000 .dynsym
0000b088 l    d  .dynstr	00000000 .dynstr
0000b0b8 l    d  .hash	00000000 .hash
0000c000 l    d  .dynamic	00000000 .dynamic
0000c088 l    d  .got	00000000 .got
0000c1bc l    d  .rel.got	00000000 .rel.got
0000c28c l    d  .data	00000000 .data
0000c57c l    d  .bss	00000000 .bss
00000000 l    d  .debug_info	00000000 .debug_info
00000000 l    d  .debug_abbrev	00000000 .debug_abbrev
00000000 l    d  .debug_loc	00000000 .debug_loc
00000000 l    d  .debug_aranges	00000000 .debug_aranges
00000000 l    d  .debug_ranges	00000000 .debug_ranges
00000000 l    d  .debug_macro	00000000 .debug_macro
00000000 l    d  .debug_line	00000000 .debug_line
00000000 l    d  .debug_str	00000000 .debug_str
00000000 l    d  .comment	00000000 .comment
00000000 l    d  .ARM.attributes	00000000 .ARM.attributes
00000000 l    d  .debug_frame	00000000 .debug_frame
0000c0fc l    d  .rel.dyn	00000000 .rel.dyn
00000000 l    df *ABS*	00000000 user_ta_header.c
00009b6c l     O .rodata	00000004 __compound_literal.5
00009b70 l     O .rodata	00000004 __compound_literal.4
00009b74 l     O .rodata	00000004 __compound_literal.3
00009b78 l     O .rodata	00000001 __compound_literal.2
00009b79 l     O .rodata	00000001 __compound_literal.1
00009b7a l     O .rodata	00000001 __compound_literal.0
00000000 l    df *ABS*	00000000 frank_ta.c
00000020 l     F .text	00000130 aes_prepare.constprop.0
00000150 l     F .text	00000094 aes.constprop.0
000003e8 l     F .text	00000208 sql_decrypt.constprop.0
0000a22b l     O .rodata	0000000c __func__.6964
0000a237 l     O .rodata	00000004 __func__.6977
0000a23b l     O .rodata	00000019 __func__.6926
0000a254 l     O .rodata	0000001a __func__.6931
0000a26e l     O .rodata	00000019 __func__.7033
0000a287 l     O .rodata	00000019 __func__.7045
0000a2a0 l     O .rodata	00000018 __func__.7058
0000a2b8 l     O .rodata	00000019 __func__.7069
0000a2d1 l     O .rodata	00000016 __func__.7078
0000a2e7 l     O .rodata	0000001b __func__.7091
00000000 l    df *ABS*	00000000 ./ta_entry_a32.o
00000000 l    df *ABS*	00000000 memcpy.c
00000000 l    df *ABS*	00000000 trace.c
0000a444 l     O .rodata	00000005 lvl_strs.5721
00000000 l    df *ABS*	00000000 snprintk.c
00001300 l     F .text	000006b0 kprintf.constprop.0
0000a481 l     O .rodata	00000011 HEXDIGITS
0000a492 l     O .rodata	00000011 hexdigits
00000000 l    df *ABS*	00000000 arm32_aeabi_ldivmod_a32.o
00000000 l    df *ABS*	00000000 trace_ext.c
00000000 l    df *ABS*	00000000 tee_api.c
00001a94 l     F .text	0000005e update_out_param
00001b64 l     F .text	00000128 copy_param
0000a4b4 l     O .rodata	0000000b __func__.7158
0000c57c l     O .bss	00000004 tee_api_instance_data
00000000 l    df *ABS*	00000000 tee_api_objects.c
00000000 l    df *ABS*	00000000 tee_api_operations.c
000026e0 l     F .text	0000015c tee_buffer_update
00000000 l    df *ABS*	00000000 tee_api_panic.c
000041f4 l     F .text	00000020 check_access
00004218 l     F .text	0000000a check_res.isra.0
00000000 l    df *ABS*	00000000 tee_system_pta.c
000042cc l     F .text	00000050 invoke_system_pta
00009b84 l     O .rodata	00000010 uuid.6381
00009b94 l     O .rodata	0000000a __func__.6401
0000c580 l     O .bss	00000004 sess.6380
00000000 l    df *ABS*	00000000 utee_syscalls_a32.o
00000000 l    df *ABS*	00000000 user_ta_entry.c
00004a78 l     F .text	0000006a _get_fn_array
00004ae2 l     F .text	00000032 _fini_iterate_phdr_cb
00004b14 l     F .text	0000001c ta_header_get_session
00004b30 l     F .text	0000005c to_utee_params
00004b8c l     F .text	0000003a from_utee_params
00004bc6 l     F .text	00000062 _init_iterate_phdr_cb
00004c28 l     F .text	00000020 ta_header_save_params.part.0
00004d10 l     F .text	0000006c ta_header_remove_session
0000a502 l     O .rodata	00000016 __func__.7196
0000c584 l     O .bss	00000004 _num_mod_init
0000c588 l     O .bss	00000001 init_done
0000c50c l     O .data	00000008 ta_sessions
0000c514 l     O .data	00000008 __phdr_info_head
00000000 l    df *ABS*	00000000 abort.c
00000000 l    df *ABS*	00000000 tee_api_arith_mpi.c
00004f3c l     F .text	00000020 api_panic
00004f5c l     F .text	00000020 mpi_panic
00004f7c l     F .text	00000050 get_mpi
00004fcc l     F .text	00000040 copy_mpi_to_bigint
0000500c l     F .text	000000a4 bigint_binary
000050b0 l     F .text	00000010 mpi_is_odd
000050c0 l     F .text	00000016 rng_read
000050d6 l     F .text	0000045e mpi_egcd
0000c5bc l     O .bss	00003000 data.7200
00005768 l     F .text	00000104 bigint_binary_mod
0000a5d6 l     O .rodata	00000008 __func__.7234
0000a5de l     O .rodata	0000000e __func__.7331
0000a5ec l     O .rodata	00000009 __func__.7477
0000a5f5 l     O .rodata	00000012 __func__.7201
0000a607 l     O .rodata	0000000f __func__.7240
0000a616 l     O .rodata	0000001f __func__.7258
0000a635 l     O .rodata	00000019 __func__.7265
0000a64e l     O .rodata	00000012 __func__.7343
0000a660 l     O .rodata	00000015 __func__.7296
0000a675 l     O .rodata	0000000e __func__.7371
0000a683 l     O .rodata	0000000e __func__.7400
0000a691 l     O .rodata	0000000e __func__.7408
0000a69f l     O .rodata	00000011 __func__.7437
0000a6b0 l     O .rodata	00000018 __func__.7454
0000a6c8 l     O .rodata	0000001d __func__.7534
0000a6e5 l     O .rodata	00000019 __func__.7587
0000a6fe l     O .rodata	00000015 __func__.7602
00000000 l    df *ABS*	00000000 tcb.c
0000a7a9 l     O .rodata	00000010 __func__.6127
0000a7b9 l     O .rodata	00000010 __func__.6154
0000f5bc l     O .bss	00000004 _tls_size
0000f5c0 l     O .bss	00000004 _tcb
00000000 l    df *ABS*	00000000 assert.c
00000000 l    df *ABS*	00000000 bignum.c
00006388 l     F .text	0000003a mpi_get_digit
000063c2 l     F .text	00000056 mpi_sub_hlp
00006418 l     F .text	00000524 mpi_mul_hlp
0000693c l     F .text	00000052 mpi_bigendian_to_host.part.0
00007c84 l     F .text	00000050 mpi_check_small_factors
0000839e l     F .text	00000192 mpi_miller_rabin
00009ba0 l     O .rodata	000002a0 small_prime
00009e40 l     O .rodata	00000024 gcd_pairs
00000000 l    df *ABS*	00000000 platform_util.c
0000c51c l     O .data	00000004 memset_func
00000000 l    df *ABS*	00000000 bget_malloc.c
00008dbc l     F .text	00000030 raw_malloc_return_hook.constprop.0
0000af09 l     O .rodata	00000005 __func__.5902
0000af0e l     O .rodata	00000006 __func__.5922
0000af14 l     O .rodata	00000005 __func__.5942
0000af19 l     O .rodata	00000006 __func__.5933
0000af1f l     O .rodata	00000006 __func__.5951
0000af25 l     O .rodata	00000007 __func__.5961
0000af2c l     O .rodata	00000014 __func__.6134
0000af40 l     O .rodata	0000000e __func__.6079
0000af4e l     O .rodata	00000013 __func__.6023
0000c520 l     O .data	0000005c malloc_ctx
00000000 l    df *ABS*	00000000 mempool.c
0000afdb l     O .rodata	00000013 __func__.5775
0000afee l     O .rodata	0000000e __func__.5784
00000000 l    df *ABS*	00000000 memset.c
00000000 l    df *ABS*	00000000 strchr.c
00000000 l    df *ABS*	00000000 strcmp.c
00000000 l    df *ABS*	00000000 strlen.c
00000000 l    df *ABS*	00000000 strncpy.c
00000000 l    df *ABS*	00000000 strstr.c
00000000 l    df *ABS*	00000000 memchr.c
00000000 l    df *ABS*	00000000 arm32_aeabi_ldivmod.c
00000000 l    df *ABS*	00000000 snprintf.c
00000000 l    df *ABS*	00000000 memmove.c
00000000 l    df *ABS*	00000000 consttime_memcmp.c
00000000 l    df *ABS*	00000000 
0000c000 l     O *ABS*	00000000 _DYNAMIC
0000c088 l     O *ABS*	00000000 _GLOBAL_OFFSET_TABLE_
00009b28 l     F .text	00000010 ___utee_check_access_rights_from_thumb
00009b38 l     F .text	00000010 ___utee_panic_from_thumb
00009b48 l     F .text	00000010 ___utee_cache_operation_from_thumb
00009b58 l     F .text	00000010 ___utee_log_from_thumb
00001a70 g     F .text	00000022 putchar
0000c498 g     O .data	00000004 base64_table
000021a8 g     F .text	00000078 TEE_PopulateTransientObject
00005fe6 g     F .text	00000004 TEE_BigIntConvertToFMM
00005cbc g     F .text	00000008 TEE_BigIntSquareMod
0000586c g     F .text	00000110 TEE_BigIntShiftRight
00006a04 g     F .text	00000098 mbedtls_mpi_grow
0000997e g     F .text	00000100 __l_divmod
00003348 g     F .text	00000030 TEE_DigestUpdate
00001ef0 g     F .text	00000004 TEE_Realloc
0000319c g     F .text	000000f8 TEE_SetOperationKey2
000042ba g     F .text	00000012 __utee_check_inout_annotation
00001a12 g     F .text	0000003a printf
00002220 g     F .text	00000022 TEE_InitRefAttribute
000043cc g     F .text	00000014 _utee_log
00001d20 g     F .text	000000b4 TEE_InvokeTACommand
00004a64 g     F .text	00000014 utee_tzvfs_fchown
00004222 g     F .text	0000002e __utee_check_outbuf_annotation
0000699a g     F .text	00000026 mbedtls_mpi_init_mempool
00004668 g     F .text	00000014 _utee_cryp_random_number_generate
00004868 g     F .text	00000014 utee_sqlite_exec
00006f34 g     F .text	0000006e mbedtls_mpi_write_binary
00004984 g     F .text	00000018 utee_tzvfs_mremap
000039b8 g     F .text	00000120 TEE_AEEncryptFinal
0000c478 g     O .data	00000010 Aes128Iv
000012d8 g     F .text	0000000e vsnprintk
0000746c g     F .text	0000002e mbedtls_mpi_sub_int
000049c4 g     F .text	00000014 utee_tzvfs_utimes
00009aaa g     F .text	00000034 memmove
00009a7e g     F .text	0000001e snprintf
00005742 g     F .text	00000026 TEE_BigIntCmpS32
00002242 g     F .text	00000022 TEE_InitValueAttribute
00006a9c g     F .text	000000b4 mbedtls_mpi_shrink
000059c8 g     F .text	00000020 TEE_BigIntAdd
000045c8 g     F .text	00000014 _utee_cryp_obj_restrict_usage
00009b7c g     O .rodata	00000004 ta_heap_size
00004854 g     F .text	00000014 utee_tpm_get_version
00002178 g     F .text	00000030 TEE_ResetTransientObject
000046f0 g     F .text	00000018 _utee_asymm_operate
0000f690 g     O .bss	00000100 base64
00007584 g     F .text	00000128 mbedtls_mpi_read_string
000049d8 g     F .text	00000014 utee_tzvfs_lseek
000033fc g     F .text	00000056 TEE_CipherInit
00005a08 g     F .text	00000074 TEE_BigIntNeg
0000478c g     F .text	00000014 _utee_storage_free_enum
00000020 g       .text	00000000 __text_start
000024fc g     F .text	0000002c TEE_StartPersistentObjectEnumerator
00007044 g     F .text	00000078 mbedtls_mpi_shift_r
000096d8 g     F .text	00000054 malloc_buffer_overlaps_heap
00004530 g     F .text	00000014 _utee_hash_init
00005c84 g     F .text	0000001c TEE_BigIntSubMod
0000889c g     F .text	00000210 mbedtls_mpi_gen_prime
00006d02 g     F .text	00000022 mbedtls_mpi_get_bit
00006e50 g     F .text	00000076 mbedtls_mpi_read_binary
00003810 g     F .text	00000070 TEE_AEInit
0000128c g     F .text	00000018 trace_printf
00007cfc g     F .text	000000c8 mbedtls_mpi_montmul
000048e0 g     F .text	00000014 utee_tzvfs_fstat
00004840 g     F .text	00000014 _utee_cache_operation
00001068 g     F .text	000000b6 memcpy
00005fea g     F .text	00000066 TEE_BigIntConvertFromFMM
000049ec g     F .text	00000014 utee_tzvfs_fsync
00004214 g     F .text	00000004 TEE_Panic
00004a28 g     F .text	00000014 utee_tzvfs_time
000019e0 g     F .text	00000018 __aeabi_uldivmod
00003294 g     F .text	000000b4 TEE_CopyOperation
00001a4c g     F .text	00000024 puts
00006050 g     F .text	000000c0 TEE_BigIntComputeFMM
000093f4 g     F .text	0000001c malloc_get_stats
00001e90 g     F .text	00000016 TEE_GetREETime
000024a0 g     F .text	00000034 TEE_AllocatePersistentObjectEnumerator
0000c4a0 g     O .data	0000006c ta_props
00003bd8 g     F .text	000000c0 TEE_AsymmetricEncrypt
00004250 g     F .text	00000018 __utee_check_instring_annotation
00009410 g     F .text	00000030 malloc
00009830 g     F .text	0000000a __ta_entry_c
000022fc g     F .text	00000054 TEE_GenerateKey
00009a9c g     F .text	0000000e vsnprintf
0000c49c g     O .data	00000004 trace_level
0000570c g     F .text	00000036 TEE_BigIntCmp
00009b68 g     O .rodata	00000004 ta_num_props
0000496c g     F .text	00000018 utee_tzvfs_mmap
0000925c g     F .text	00000084 bgetr
00004720 g     F .text	00000018 _utee_storage_obj_open
00009800 g     F .text	00000030 mempool_free
00003452 g     F .text	000000ee TEE_CipherUpdate
00004544 g     F .text	00000014 _utee_hash_update
00005608 g     F .text	00000058 TEE_BigIntConvertToOctetString
00002ff0 g     F .text	000000d4 TEE_GetOperationInfoMultiple
00006daa g     F .text	00000036 mbedtls_mpi_bitlen
0000597c g     F .text	0000002a TEE_BigIntGetBit
00009b80 g     O .rodata	00000003 trace_ext_prefix
000047c8 g     F .text	00000014 _utee_storage_next_enum
00008ff4 g     F .text	00000060 bgetz
00001de0 g     F .text	0000000c TEE_GetInstanceData
00001e0e g     F .text	0000001e TEE_Wait
0000749a g     F .text	000000ce mbedtls_mpi_mul_mpi
00001efe g     F .text	00000006 TEE_CacheFlush
00001150 g     F .text	0000013c trace_vprintf
000001e8 g     F .text	00000002 TA_DestroyEntryPoint
0000698e g     F .text	0000000c mbedtls_mpi_init
00004750 g     F .text	00000014 _utee_storage_obj_del
00006d76 g     F .text	00000034 mbedtls_mpi_lsb
00006350 g     F .text	00000028 _assert_log
00004508 g     F .text	00000014 _utee_cryp_state_copy
00005fe2 g     F .text	00000004 TEE_BigIntFMMContextSizeInU32
00004356 g     F .text	0000004e tee_unmap
000037a8 g     F .text	00000068 TEE_MACCompareFinal
00002466 g     F .text	0000003a TEE_RenamePersistentObject
00003378 g     F .text	00000084 TEE_DigestDoFinal
00005534 g     F .text	00000044 _TEE_MathAPI_Init
00006110 g     F .text	00000180 __utee_tcb_init
000073ac g     F .text	00000048 mbedtls_mpi_add_mpi
00004f24 g     F .text	00000018 abort
00004294 g     F .text	00000012 __utee_check_out_annotation
0020f790 g     O .bss	00008000 ta_heap
00005cc4 g     F .text	000000c0 TEE_BigIntInvMod
00004c48 g     F .text	000000b8 __utee_call_elf_init_fn
00000230 g     F .text	00000040 TA_CloseSessionEntryPoint
00004438 g     F .text	00000014 _utee_close_ta_session
00003c98 g     F .text	000000c0 TEE_AsymmetricDecrypt
00002350 g     F .text	00000054 TEE_OpenPersistentObject
000073f4 g     F .text	0000004a mbedtls_mpi_sub_mpi
00009ade g     F .text	00000048 consttime_memcmp
000043b8 g     F .text	00000014 _utee_return
000043e0 g     F .text	00000014 __utee_panic
00006290 g     F .text	00000018 __tls_get_addr
000005f0 g     F .text	00000a74 TA_InvokeCommandEntryPoint
00004d00 g     F .text	00000010 __utee_call_elf_fini_fn
00009518 g     F .text	00000014 free_wipe
00009770 g     F .text	0000006c mempool_alloc
000043a4 g     F .text	00000014 _utee_panic
0000c28c g     O .data	000001ec table
000097dc g     F .text	00000024 mempool_calloc
0000482c g     F .text	00000014 _utee_cryp_obj_generate_key
00004804 g     F .text	00000014 _utee_storage_obj_trunc
000022cc g     F .text	00000030 TEE_CopyObjectAttributes
0000448c g     F .text	00000014 _utee_unmask_cancellation
00009440 g     F .text	00000050 calloc
00001ea6 g     F .text	0000004a TEE_Malloc
00001b5a g     F .text	0000000a TEE_CheckMemoryAccessRights
00009902 g     F .text	0000007c __ul_divmod
000043f4 g     F .text	00000018 _utee_get_property
00006cca g     F .text	00000038 mbedtls_mpi_lset
000048f4 g     F .text	00000014 utee_tzvfs_fcntl
00002598 g     F .text	00000054 TEE_ReadObjectData
00001fe0 g     F .text	00000078 TEE_GetObjectBufferAttribute
000001ea g     F .text	00000046 TA_OpenSessionEntryPoint
0000283c g     F .text	00000026 TEE_FreeOperation
000062a8 g     F .text	000000a8 dl_iterate_phdr
00217790 g       .bss	00000000 __ftrace_buf_end
0000c5b8 g     O .bss	00000004 ta_param_types
00007a22 g     F .text	0000002e mbedtls_mpi_div_int
00001f0c g     F .text	0000003e __utee_from_attr
0000882e g     F .text	00000064 mbedtls_mpi_is_prime_ext
00005fa4 g     F .text	00000030 TEE_BigIntIsProbablePrime
00007568 g     F .text	0000001c mbedtls_mpi_mul_int
0000242c g     F .text	00000024 TEE_CloseAndDeletePersistentObject1
00007de6 g     F .text	0000044a mbedtls_mpi_exp_mod
00006bd8 g     F .text	00000068 mbedtls_mpi_safe_cond_assign
000071a8 g     F .text	000000a8 mbedtls_mpi_lt_mpi_ct
00003ad8 g     F .text	00000100 TEE_AEDecryptFinal
00005578 g     F .text	00000038 TEE_BigIntInit
00004268 g     F .text	0000002c __utee_check_outstring_annotation
00001dec g     F .text	00000004 TEE_MemMove
00008da8 g     F .text	00000014 mbedtls_platform_zeroize
000055b0 g     F .text	00000058 TEE_BigIntConvertFromOctetString
000046d8 g     F .text	00000018 _utee_authenc_dec_final
000070bc g     F .text	00000062 mbedtls_mpi_cmp_abs
000047dc g     F .text	00000014 _utee_storage_obj_read
00003688 g     F .text	00000056 TEE_MACInit
00003d58 g     F .text	000000bc TEE_AsymmetricSignDigest
000098e6 g     F .text	0000001c memchr
00001b22 g     F .text	0000001c TEE_UnmaskCancellation
00001f4a g     F .text	0000002a TEE_GetObjectInfo
00008aac g     F .text	000002fc mbedtls_mpi_self_test
00004818 g     F .text	00000014 _utee_storage_obj_seek
000038c6 g     F .text	000000f2 TEE_AEUpdate
00002148 g     F .text	00000030 TEE_FreeTransientObject
00004478 g     F .text	00000014 _utee_check_access_rights
00007250 g     F .text	0000002e mbedtls_mpi_cmp_int
00004a00 g     F .text	00000014 utee_tzvfs_getenv
000098b4 g     F .text	00000032 strstr
000047a0 g     F .text	00000014 _utee_storage_reset_enum
00003f9e g     F .text	00000018 rand
000042a6 g     F .text	00000014 __utee_check_attr_in_annotation
000046a8 g     F .text	00000018 _utee_authenc_update_payload
00000270 g     F .text	000000bc base64_encode
00002fc0 g     F .text	00000030 TEE_GetOperationInfo
00005c18 g     F .text	00000050 TEE_BigIntMod
00007ab4 g     F .text	0000006e mbedtls_mpi_mod_int
00006dec g     F .text	00000064 mbedtls_mpi_read_binary_le
00005b2a g     F .text	000000ee TEE_BigIntDiv
000045f0 g     F .text	00000014 _utee_cryp_obj_alloc
00217790 g       .bss	00000000 __ftrace_buf_start
00006b50 g     F .text	0000005a mbedtls_mpi_copy
00003fb6 g     F .text	0000023e TEE_IsAlgorithmSupported
000093e0 g     F .text	00000014 malloc_reset_stats
000019b0 g     F .text	00000016 __vsprintf
0000988e g     F .text	00000026 strncpy
000044dc g     F .text	00000014 _utee_set_ta_time
0000444c g     F .text	00000018 _utee_invoke_ta_command
00001f94 g     F .text	00000020 TEE_RestrictObjectUsage1
00009490 g     F .text	00000034 realloc
00006baa g     F .text	0000002e mbedtls_mpi_swap
0000491c g     F .text	00000014 utee_tzvfs_write
0000972c g     F .text	00000044 mempool_alloc_pool
00005a7c g     F .text	000000a8 TEE_BigIntMul
000030c4 g     F .text	00000040 TEE_ResetOperation
00006fa2 g     F .text	000000a2 mbedtls_mpi_shift_l
0000711e g     F .text	0000008a mbedtls_mpi_cmp_mpi
00001df4 g     F .text	00000004 TEE_MemFill
0000952c g     F .text	000000cc malloc_add_pool
000036de g     F .text	0000004e TEE_MACUpdate
0000113c g     F .text	00000014 trace_get_level
0000727e g     F .text	000000b2 mbedtls_mpi_add_abs
00001fb4 g     F .text	0000002c TEE_RestrictObjectUsage
00005fda g     F .text	00000008 TEE_BigIntFMMSizeInU32
00005fd4 g     F .text	00000004 TEE_BigIntInitFMM
000020f4 g     F .text	00000014 TEE_CloseObject
00004570 g     F .text	00000014 _utee_cipher_init
00004d7c g     F .text	000001a8 __utee_entry
0000f5c8 g     O .bss	00000032 plain
00009b68 g       .text	00000000 __text_end
00005d84 g     F .text	0000007c TEE_BigIntRelativePrime
00007a50 g     F .text	00000064 mbedtls_mpi_mod_mpi
000045b4 g     F .text	00000014 _utee_cryp_obj_get_info
000092e0 g     F .text	0000009c bpool
000044f0 g     F .text	00000018 _utee_cryp_state_alloc
00001b06 g     F .text	0000001c TEE_GetCancellationFlag
00008230 g     F .text	00000108 mbedtls_mpi_gcd
00001e68 g     F .text	00000028 TEE_SetTAPersistentTime
0000f790 g     O .bss	00100000 data
00006ec6 g     F .text	0000006e mbedtls_mpi_write_binary_le
0000983e g     F .text	00000010 memset
00001e2c g     F .text	0000003c TEE_GetTAPersistentTime
000012a4 g     F .text	00000002 dhex_dump
000023a4 g     F .text	00000088 TEE_CreatePersistentObject
00001b3e g     F .text	0000001c TEE_MaskCancellation
000049b0 g     F .text	00000014 utee_tzvfs_strcspn
00003880 g     F .text	00000046 TEE_AEUpdateAAD
0000262c g     F .text	00000038 TEE_TruncateObjectData
000045dc g     F .text	00000014 _utee_cryp_obj_get_attr
00001f74 g     F .text	00000020 TEE_GetObjectInfo1
0000459c g     F .text	00000018 _utee_cipher_final
00001120 g     F .text	0000001c trace_set_level
0010f790 g     O .bss	00100000 sql_proxy
00002058 g     F .text	0000009c TEE_GetObjectValueAttribute
00003104 g     F .text	00000098 TEE_SetOperationKey
00004a14 g     F .text	00000014 utee_tzvfs_getpid
0000451c g     F .text	00000014 _utee_cryp_state_free
00009868 g     F .text	00000016 strcmp
00004420 g     F .text	00000018 _utee_open_ta_session
000056b0 g     F .text	0000005c TEE_BigIntConvertToS32
000059e8 g     F .text	00000020 TEE_BigIntSub
0000983a g     F .text	00000004 tahead_get_trace_level
000047b4 g     F .text	00000014 _utee_storage_start_enum
00002664 g     F .text	0000007c TEE_SeekObjectData
0000431c g     F .text	0000003a tee_map_zi
00007dc4 g     F .text	00000022 mbedtls_mpi_montred
000094c4 g     F .text	00000040 memalign
00003540 g     F .text	00000148 TEE_CipherDoFinal
00004930 g     F .text	00000014 utee_tzvfs_geteuid
0000499c g     F .text	00000014 utee_tzvfs_munmap
00005660 g     F .text	00000050 TEE_BigIntConvertFromS32
0000743e g     F .text	0000002e mbedtls_mpi_add_int
000046c0 g     F .text	00000018 _utee_authenc_enc_final
000095f8 g     F .text	000000e0 malloc_buffer_is_within_alloced
00004604 g     F .text	00000014 _utee_cryp_obj_close
00005fd8 g     F .text	00000002 TEE_BigIntInitFMMContext
000044a0 g     F .text	00000014 _utee_mask_cancellation
0000c488 g     O .data	00000010 Aes128Key
00004764 g     F .text	00000014 _utee_storage_obj_rename
000025ec g     F .text	00000040 TEE_WriteObjectData
000024e8 g     F .text	00000014 TEE_ResetPersistentObjectEnumerator
00005b24 g     F .text	00000006 TEE_BigIntSquare
000047f0 g     F .text	00000014 _utee_storage_obj_write
000001e4 g     F .text	00000004 TA_CreateEntryPoint
00001064 g     F .text	00000004 __ta_entry
00004694 g     F .text	00000014 _utee_authenc_update_aad
0000032c g     F .text	000000bc base64_decode
00007cd4 g     F .text	00000028 mbedtls_mpi_montg_init
000012e6 g     F .text	0000001a snprintk
000059a6 g     F .text	00000022 TEE_BigIntGetBitCount
00004640 g     F .text	00000014 _utee_cryp_obj_copy
00005ca0 g     F .text	0000001c TEE_BigIntMulMod
00004a3c g     F .text	00000014 utee_tzvfs_sleep
00008530 g     F .text	000002fe mbedtls_mpi_inv_mod
00003ebc g     F .text	000000d0 TEE_DeriveKey
0000c598 g     O .bss	00000020 ta_params
000076ac g     F .text	00000376 mbedtls_mpi_div_mpi
00006de0 g     F .text	0000000c mbedtls_mpi_size
00008dec g     F .text	00000208 bget
00002108 g     F .text	00000040 TEE_AllocateTransientObject
000044b4 g     F .text	00000014 _utee_wait
00006d24 g     F .text	00000052 mbedtls_mpi_set_bit
00001ef4 g     F .text	00000004 TEE_Free
00008892 g     F .text	0000000a mbedtls_mpi_is_prime
00001f04 g     F .text	00000006 TEE_CacheInvalidate
00006378 g     F .text	00000010 _assert_break
00005c68 g     F .text	0000001c TEE_BigIntAddMod
000044c8 g     F .text	00000014 _utee_get_time
00002862 g     F .text	0000075e TEE_AllocateOperation
0000462c g     F .text	00000014 _utee_cryp_obj_populate
00003f8c g     F .text	00000012 TEE_GenerateRandom
00001df0 g     F .text	00000004 TEE_MemCompare
0000f5fa g     O .bss	00000032 secret
00004584 g     F .text	00000018 _utee_cipher_update
000012a8 g     F .text	00000030 __vsnprintf
0000c58c g     O .bss	0000000c __elf_phdr_info
000024d4 g     F .text	00000014 TEE_FreePersistentObjectEnumerator
00001c8c g     F .text	00000094 TEE_OpenTASession
000019f8 g     F .text	00000014 trace_ext_puts
0000487c g     F .text	00000014 utee_tzvfs_open
00001a0c g     F .text	00000006 trace_ext_get_thread_id
00002450 g     F .text	00000016 TEE_CloseAndDeletePersistentObject
00004654 g     F .text	00000014 _utee_cryp_derive_key
000069c0 g     F .text	00000044 mbedtls_mpi_free
00004890 g     F .text	00000014 utee_tzvfs_close
00004618 g     F .text	00000014 _utee_cryp_obj_reset
00001ef8 g     F .text	00000006 TEE_CacheClean
0000440c g     F .text	00000014 _utee_get_property_name_to_index
00004908 g     F .text	00000014 utee_tzvfs_read
0000f65e g     O .bss	00000032 name
00006c40 g     F .text	0000008a mbedtls_mpi_safe_cond_swap
0000467c g     F .text	00000018 _utee_authenc_init
00002264 g     F .text	00000068 TEE_CopyObjectAttributes1
0000987e g     F .text	00000010 strlen
00005e00 g     F .text	000001a4 TEE_BigIntComputeExtendedGcd
00004778 g     F .text	00000014 _utee_storage_alloc_enum
000048b8 g     F .text	00000014 utee_tzvfs_lstat
0000984e g     F .text	0000001a strchr
00001df8 g     F .text	00000016 TEE_GetSystemTime
00004708 g     F .text	00000018 _utee_asymm_verify
00000000 g     O .ta_head	00000020 ta_head
00009054 g     F .text	00000208 brel
00004a50 g     F .text	00000014 utee_tzvfs_gettimeofday
00007330 g     F .text	0000007c mbedtls_mpi_sub_abs
00008338 g     F .text	00000066 mbedtls_mpi_fill_random
00004958 g     F .text	00000014 utee_tzvfs_access
000048a4 g     F .text	00000014 utee_tzvfs_getcwd
00001dd4 g     F .text	0000000c TEE_SetInstanceData
00004464 g     F .text	00000014 _utee_get_cancellation_flag
000019c8 g     F .text	00000018 __aeabi_ldivmod
00007b22 g     F .text	00000162 mbedtls_mpi_write_string
00002528 g     F .text	00000070 TEE_GetNextPersistentObject
00001af2 g     F .text	00000014 TEE_CloseTASession
00003e14 g     F .text	000000a8 TEE_AsymmetricVerifyDigest
00004738 g     F .text	00000018 _utee_storage_obj_create
000048cc g     F .text	00000014 utee_tzvfs_stat
00004944 g     F .text	00000014 utee_tzvfs_unlink
00009504 g     F .text	00000014 free
0000f62c g     O .bss	00000032 value
0000937c g     F .text	00000064 bstats
0000372c g     F .text	0000007c TEE_MACComputeFinal
0000f5c4 g     O .bss	00000004 mbedtls_mpi_mempool
00004558 g     F .text	00000018 _utee_hash_final



Disassembly of section .text:

00000020 <aes_prepare.constprop.0>:
aes_prepare():
/home/frank/TrustSQLite/stm32mp1-openstlinux-5.10-dunfell-mp1-21-11-17/SDK/Smaug/frank_ta/frank_ta.c:269
      20:	4b3f      	ldr	r3, [pc, #252]	; (120 <aes_prepare.constprop.0+0x100>)
/home/frank/TrustSQLite/stm32mp1-openstlinux-5.10-dunfell-mp1-21-11-17/SDK/Smaug/frank_ta/frank_ta.c:259
      22:	b570      	push	{r4, r5, r6, lr}
      24:	4604      	mov	r4, r0
/home/frank/TrustSQLite/stm32mp1-openstlinux-5.10-dunfell-mp1-21-11-17/SDK/Smaug/frank_ta/frank_ta.c:269
      26:	6003      	str	r3, [r0, #0]
/home/frank/TrustSQLite/stm32mp1-openstlinux-5.10-dunfell-mp1-21-11-17/SDK/Smaug/frank_ta/frank_ta.c:271
      28:	2310      	movs	r3, #16
/home/frank/TrustSQLite/stm32mp1-openstlinux-5.10-dunfell-mp1-21-11-17/SDK/Smaug/frank_ta/frank_ta.c:259
      2a:	4e3f      	ldr	r6, [pc, #252]	; (128 <aes_prepare.constprop.0+0x108>)
      2c:	b088      	sub	sp, #32
/home/frank/TrustSQLite/stm32mp1-openstlinux-5.10-dunfell-mp1-21-11-17/SDK/Smaug/frank_ta/frank_ta.c:270
      2e:	6041      	str	r1, [r0, #4]
/home/frank/TrustSQLite/stm32mp1-openstlinux-5.10-dunfell-mp1-21-11-17/SDK/Smaug/frank_ta/frank_ta.c:271
      30:	6083      	str	r3, [r0, #8]
/home/frank/TrustSQLite/stm32mp1-openstlinux-5.10-dunfell-mp1-21-11-17/SDK/Smaug/frank_ta/frank_ta.c:274
      32:	68c0      	ldr	r0, [r0, #12]
/home/frank/TrustSQLite/stm32mp1-openstlinux-5.10-dunfell-mp1-21-11-17/SDK/Smaug/frank_ta/frank_ta.c:259
      34:	447e      	add	r6, pc
/home/frank/TrustSQLite/stm32mp1-openstlinux-5.10-dunfell-mp1-21-11-17/SDK/Smaug/frank_ta/frank_ta.c:274
      36:	b108      	cbz	r0, 3c <aes_prepare.constprop.0+0x1c>
/home/frank/TrustSQLite/stm32mp1-openstlinux-5.10-dunfell-mp1-21-11-17/SDK/Smaug/frank_ta/frank_ta.c:275
      38:	f002 fc00 	bl	283c <TEE_FreeOperation>
/home/frank/TrustSQLite/stm32mp1-openstlinux-5.10-dunfell-mp1-21-11-17/SDK/Smaug/frank_ta/frank_ta.c:279
      3c:	68a3      	ldr	r3, [r4, #8]
      3e:	f104 000c 	add.w	r0, r4, #12
      42:	e9d4 1200 	ldrd	r1, r2, [r4]
      46:	00db      	lsls	r3, r3, #3
      48:	f002 fc0b 	bl	2862 <TEE_AllocateOperation>
/home/frank/TrustSQLite/stm32mp1-openstlinux-5.10-dunfell-mp1-21-11-17/SDK/Smaug/frank_ta/frank_ta.c:280
      4c:	4605      	mov	r5, r0
      4e:	b1d0      	cbz	r0, 86 <aes_prepare.constprop.0+0x66>
/home/frank/TrustSQLite/stm32mp1-openstlinux-5.10-dunfell-mp1-21-11-17/SDK/Smaug/frank_ta/frank_ta.c:281
      50:	4b36      	ldr	r3, [pc, #216]	; (12c <aes_prepare.constprop.0+0x10c>)
      52:	f240 1119 	movw	r1, #281	; 0x119
      56:	4836      	ldr	r0, [pc, #216]	; (130 <aes_prepare.constprop.0+0x110>)
      58:	447b      	add	r3, pc
      5a:	9300      	str	r3, [sp, #0]
      5c:	2301      	movs	r3, #1
      5e:	4478      	add	r0, pc
      60:	461a      	mov	r2, r3
      62:	f001 f913 	bl	128c <trace_printf>
/home/frank/TrustSQLite/stm32mp1-openstlinux-5.10-dunfell-mp1-21-11-17/SDK/Smaug/frank_ta/frank_ta.c:282
      66:	2300      	movs	r3, #0
      68:	60e3      	str	r3, [r4, #12]
/home/frank/TrustSQLite/stm32mp1-openstlinux-5.10-dunfell-mp1-21-11-17/SDK/Smaug/frank_ta/frank_ta.c:319
      6a:	68e0      	ldr	r0, [r4, #12]
      6c:	b108      	cbz	r0, 72 <aes_prepare.constprop.0+0x52>
/home/frank/TrustSQLite/stm32mp1-openstlinux-5.10-dunfell-mp1-21-11-17/SDK/Smaug/frank_ta/frank_ta.c:320
      6e:	f002 fbe5 	bl	283c <TEE_FreeOperation>
/home/frank/TrustSQLite/stm32mp1-openstlinux-5.10-dunfell-mp1-21-11-17/SDK/Smaug/frank_ta/frank_ta.c:323
      72:	6920      	ldr	r0, [r4, #16]
/home/frank/TrustSQLite/stm32mp1-openstlinux-5.10-dunfell-mp1-21-11-17/SDK/Smaug/frank_ta/frank_ta.c:321
      74:	2600      	movs	r6, #0
      76:	60e6      	str	r6, [r4, #12]
/home/frank/TrustSQLite/stm32mp1-openstlinux-5.10-dunfell-mp1-21-11-17/SDK/Smaug/frank_ta/frank_ta.c:323
      78:	b108      	cbz	r0, 7e <aes_prepare.constprop.0+0x5e>
/home/frank/TrustSQLite/stm32mp1-openstlinux-5.10-dunfell-mp1-21-11-17/SDK/Smaug/frank_ta/frank_ta.c:324
      7a:	f002 f865 	bl	2148 <TEE_FreeTransientObject>
/home/frank/TrustSQLite/stm32mp1-openstlinux-5.10-dunfell-mp1-21-11-17/SDK/Smaug/frank_ta/frank_ta.c:325
      7e:	6126      	str	r6, [r4, #16]
/home/frank/TrustSQLite/stm32mp1-openstlinux-5.10-dunfell-mp1-21-11-17/SDK/Smaug/frank_ta/frank_ta.c:328
      80:	4628      	mov	r0, r5
      82:	b008      	add	sp, #32
      84:	bd70      	pop	{r4, r5, r6, pc}
/home/frank/TrustSQLite/stm32mp1-openstlinux-5.10-dunfell-mp1-21-11-17/SDK/Smaug/frank_ta/frank_ta.c:287
      86:	6920      	ldr	r0, [r4, #16]
      88:	b108      	cbz	r0, 8e <aes_prepare.constprop.0+0x6e>
/home/frank/TrustSQLite/stm32mp1-openstlinux-5.10-dunfell-mp1-21-11-17/SDK/Smaug/frank_ta/frank_ta.c:288
      8a:	f002 f85d 	bl	2148 <TEE_FreeTransientObject>
/home/frank/TrustSQLite/stm32mp1-openstlinux-5.10-dunfell-mp1-21-11-17/SDK/Smaug/frank_ta/frank_ta.c:292
      8e:	68a1      	ldr	r1, [r4, #8]
      90:	f104 0210 	add.w	r2, r4, #16
      94:	4823      	ldr	r0, [pc, #140]	; (124 <aes_prepare.constprop.0+0x104>)
      96:	00c9      	lsls	r1, r1, #3
      98:	f002 f836 	bl	2108 <TEE_AllocateTransientObject>
/home/frank/TrustSQLite/stm32mp1-openstlinux-5.10-dunfell-mp1-21-11-17/SDK/Smaug/frank_ta/frank_ta.c:293
      9c:	4605      	mov	r5, r0
      9e:	b168      	cbz	r0, bc <aes_prepare.constprop.0+0x9c>
/home/frank/TrustSQLite/stm32mp1-openstlinux-5.10-dunfell-mp1-21-11-17/SDK/Smaug/frank_ta/frank_ta.c:294
      a0:	4b24      	ldr	r3, [pc, #144]	; (134 <aes_prepare.constprop.0+0x114>)
      a2:	f44f 7193 	mov.w	r1, #294	; 0x126
      a6:	4824      	ldr	r0, [pc, #144]	; (138 <aes_prepare.constprop.0+0x118>)
      a8:	447b      	add	r3, pc
      aa:	9300      	str	r3, [sp, #0]
      ac:	2301      	movs	r3, #1
      ae:	4478      	add	r0, pc
      b0:	461a      	mov	r2, r3
      b2:	f001 f8eb 	bl	128c <trace_printf>
/home/frank/TrustSQLite/stm32mp1-openstlinux-5.10-dunfell-mp1-21-11-17/SDK/Smaug/frank_ta/frank_ta.c:295
      b6:	2300      	movs	r3, #0
      b8:	6123      	str	r3, [r4, #16]
/home/frank/TrustSQLite/stm32mp1-openstlinux-5.10-dunfell-mp1-21-11-17/SDK/Smaug/frank_ta/frank_ta.c:296
      ba:	e7d6      	b.n	6a <aes_prepare.constprop.0+0x4a>
/home/frank/TrustSQLite/stm32mp1-openstlinux-5.10-dunfell-mp1-21-11-17/SDK/Smaug/frank_ta/frank_ta.c:300
      bc:	4b1f      	ldr	r3, [pc, #124]	; (13c <aes_prepare.constprop.0+0x11c>)
      be:	ad05      	add	r5, sp, #20
      c0:	4628      	mov	r0, r5
      c2:	f04f 4140 	mov.w	r1, #3221225472	; 0xc0000000
      c6:	58f3      	ldr	r3, [r6, r3]
      c8:	9303      	str	r3, [sp, #12]
      ca:	9a03      	ldr	r2, [sp, #12]
      cc:	68a3      	ldr	r3, [r4, #8]
      ce:	f002 f8a7 	bl	2220 <TEE_InitRefAttribute>
/home/frank/TrustSQLite/stm32mp1-openstlinux-5.10-dunfell-mp1-21-11-17/SDK/Smaug/frank_ta/frank_ta.c:303
      d2:	6920      	ldr	r0, [r4, #16]
      d4:	4629      	mov	r1, r5
      d6:	2201      	movs	r2, #1
      d8:	f002 f866 	bl	21a8 <TEE_PopulateTransientObject>
/home/frank/TrustSQLite/stm32mp1-openstlinux-5.10-dunfell-mp1-21-11-17/SDK/Smaug/frank_ta/frank_ta.c:304
      dc:	4605      	mov	r5, r0
      de:	b160      	cbz	r0, fa <aes_prepare.constprop.0+0xda>
/home/frank/TrustSQLite/stm32mp1-openstlinux-5.10-dunfell-mp1-21-11-17/SDK/Smaug/frank_ta/frank_ta.c:305
      e0:	4b17      	ldr	r3, [pc, #92]	; (140 <aes_prepare.constprop.0+0x120>)
      e2:	f240 1131 	movw	r1, #305	; 0x131
      e6:	9001      	str	r0, [sp, #4]
      e8:	447b      	add	r3, pc
      ea:	4816      	ldr	r0, [pc, #88]	; (144 <aes_prepare.constprop.0+0x124>)
      ec:	9300      	str	r3, [sp, #0]
      ee:	2301      	movs	r3, #1
      f0:	4478      	add	r0, pc
      f2:	461a      	mov	r2, r3
/home/frank/TrustSQLite/stm32mp1-openstlinux-5.10-dunfell-mp1-21-11-17/SDK/Smaug/frank_ta/frank_ta.c:312
      f4:	f001 f8ca 	bl	128c <trace_printf>
/home/frank/TrustSQLite/stm32mp1-openstlinux-5.10-dunfell-mp1-21-11-17/SDK/Smaug/frank_ta/frank_ta.c:313
      f8:	e7b7      	b.n	6a <aes_prepare.constprop.0+0x4a>
/home/frank/TrustSQLite/stm32mp1-openstlinux-5.10-dunfell-mp1-21-11-17/SDK/Smaug/frank_ta/frank_ta.c:310
      fa:	6921      	ldr	r1, [r4, #16]
      fc:	68e0      	ldr	r0, [r4, #12]
      fe:	f003 f801 	bl	3104 <TEE_SetOperationKey>
/home/frank/TrustSQLite/stm32mp1-openstlinux-5.10-dunfell-mp1-21-11-17/SDK/Smaug/frank_ta/frank_ta.c:311
     102:	4605      	mov	r5, r0
     104:	2800      	cmp	r0, #0
     106:	d0bb      	beq.n	80 <aes_prepare.constprop.0+0x60>
/home/frank/TrustSQLite/stm32mp1-openstlinux-5.10-dunfell-mp1-21-11-17/SDK/Smaug/frank_ta/frank_ta.c:312
     108:	4b0f      	ldr	r3, [pc, #60]	; (148 <aes_prepare.constprop.0+0x128>)
     10a:	f44f 719c 	mov.w	r1, #312	; 0x138
     10e:	9001      	str	r0, [sp, #4]
     110:	447b      	add	r3, pc
     112:	480e      	ldr	r0, [pc, #56]	; (14c <aes_prepare.constprop.0+0x12c>)
     114:	9300      	str	r3, [sp, #0]
     116:	2301      	movs	r3, #1
     118:	4478      	add	r0, pc
     11a:	461a      	mov	r2, r3
     11c:	e7ea      	b.n	f4 <aes_prepare.constprop.0+0xd4>
     11e:	bf00      	nop
     120:	10000110 	.word	0x10000110
     124:	a0000010 	.word	0xa0000010
     128:	0000c050 	.word	0x0000c050
     12c:	00009e08 	.word	0x00009e08
     130:	0000a1c9 	.word	0x0000a1c9
     134:	00009dd5 	.word	0x00009dd5
     138:	0000a179 	.word	0x0000a179
     13c:	00000050 	.word	0x00000050
     140:	00009db9 	.word	0x00009db9
     144:	0000a137 	.word	0x0000a137
     148:	00009db8 	.word	0x00009db8
     14c:	0000a10f 	.word	0x0000a10f

00000150 <aes.constprop.0>:
aes():
/home/frank/TrustSQLite/stm32mp1-openstlinux-5.10-dunfell-mp1-21-11-17/SDK/Smaug/frank_ta/frank_ta.c:331
     150:	e92d 41ff 	stmdb	sp!, {r0, r1, r2, r3, r4, r5, r6, r7, r8, lr}
     154:	461f      	mov	r7, r3
     156:	f8df 8074 	ldr.w	r8, [pc, #116]	; 1cc <aes.constprop.0+0x7c>
     15a:	4605      	mov	r5, r0
/home/frank/TrustSQLite/stm32mp1-openstlinux-5.10-dunfell-mp1-21-11-17/SDK/Smaug/frank_ta/frank_ta.c:336
     15c:	68c3      	ldr	r3, [r0, #12]
/home/frank/TrustSQLite/stm32mp1-openstlinux-5.10-dunfell-mp1-21-11-17/SDK/Smaug/frank_ta/frank_ta.c:331
     15e:	4616      	mov	r6, r2
     160:	44f8      	add	r8, pc
/home/frank/TrustSQLite/stm32mp1-openstlinux-5.10-dunfell-mp1-21-11-17/SDK/Smaug/frank_ta/frank_ta.c:336
     162:	b9a3      	cbnz	r3, 18e <aes.constprop.0+0x3e>
/home/frank/TrustSQLite/stm32mp1-openstlinux-5.10-dunfell-mp1-21-11-17/SDK/Smaug/frank_ta/frank_ta.c:337
     164:	f7ff ff5c 	bl	20 <aes_prepare.constprop.0>
/home/frank/TrustSQLite/stm32mp1-openstlinux-5.10-dunfell-mp1-21-11-17/SDK/Smaug/frank_ta/frank_ta.c:338
     168:	4604      	mov	r4, r0
     16a:	b180      	cbz	r0, 18e <aes.constprop.0+0x3e>
/home/frank/TrustSQLite/stm32mp1-openstlinux-5.10-dunfell-mp1-21-11-17/SDK/Smaug/frank_ta/frank_ta.c:339
     16c:	4b18      	ldr	r3, [pc, #96]	; (1d0 <aes.constprop.0+0x80>)
     16e:	f240 1153 	movw	r1, #339	; 0x153
     172:	9001      	str	r0, [sp, #4]
     174:	447b      	add	r3, pc
     176:	4817      	ldr	r0, [pc, #92]	; (1d4 <aes.constprop.0+0x84>)
     178:	9300      	str	r3, [sp, #0]
     17a:	2301      	movs	r3, #1
     17c:	4478      	add	r0, pc
     17e:	461a      	mov	r2, r3
/home/frank/TrustSQLite/stm32mp1-openstlinux-5.10-dunfell-mp1-21-11-17/SDK/Smaug/frank_ta/frank_ta.c:351
     180:	300c      	adds	r0, #12
     182:	f001 f883 	bl	128c <trace_printf>
/home/frank/TrustSQLite/stm32mp1-openstlinux-5.10-dunfell-mp1-21-11-17/SDK/Smaug/frank_ta/frank_ta.c:354
     186:	4620      	mov	r0, r4
     188:	b004      	add	sp, #16
     18a:	e8bd 81f0 	ldmia.w	sp!, {r4, r5, r6, r7, r8, pc}
/home/frank/TrustSQLite/stm32mp1-openstlinux-5.10-dunfell-mp1-21-11-17/SDK/Smaug/frank_ta/frank_ta.c:345
     18e:	4b12      	ldr	r3, [pc, #72]	; (1d8 <aes.constprop.0+0x88>)
     190:	2210      	movs	r2, #16
     192:	68e8      	ldr	r0, [r5, #12]
     194:	f858 3003 	ldr.w	r3, [r8, r3]
     198:	9303      	str	r3, [sp, #12]
     19a:	4619      	mov	r1, r3
     19c:	f003 f92e 	bl	33fc <TEE_CipherInit>
/home/frank/TrustSQLite/stm32mp1-openstlinux-5.10-dunfell-mp1-21-11-17/SDK/Smaug/frank_ta/frank_ta.c:349
     1a0:	9a0a      	ldr	r2, [sp, #40]	; 0x28
     1a2:	ab0a      	add	r3, sp, #40	; 0x28
     1a4:	9300      	str	r3, [sp, #0]
     1a6:	4631      	mov	r1, r6
     1a8:	68e8      	ldr	r0, [r5, #12]
     1aa:	463b      	mov	r3, r7
     1ac:	f003 f9c8 	bl	3540 <TEE_CipherDoFinal>
/home/frank/TrustSQLite/stm32mp1-openstlinux-5.10-dunfell-mp1-21-11-17/SDK/Smaug/frank_ta/frank_ta.c:350
     1b0:	4604      	mov	r4, r0
     1b2:	2800      	cmp	r0, #0
     1b4:	d0e7      	beq.n	186 <aes.constprop.0+0x36>
/home/frank/TrustSQLite/stm32mp1-openstlinux-5.10-dunfell-mp1-21-11-17/SDK/Smaug/frank_ta/frank_ta.c:351
     1b6:	4b09      	ldr	r3, [pc, #36]	; (1dc <aes.constprop.0+0x8c>)
     1b8:	f240 115f 	movw	r1, #351	; 0x15f
     1bc:	9001      	str	r0, [sp, #4]
     1be:	447b      	add	r3, pc
     1c0:	4807      	ldr	r0, [pc, #28]	; (1e0 <aes.constprop.0+0x90>)
     1c2:	9300      	str	r3, [sp, #0]
     1c4:	2301      	movs	r3, #1
     1c6:	4478      	add	r0, pc
     1c8:	461a      	mov	r2, r3
     1ca:	e7d9      	b.n	180 <aes.constprop.0+0x30>
     1cc:	0000bf24 	.word	0x0000bf24
     1d0:	00009d72 	.word	0x00009d72
     1d4:	0000a0ab 	.word	0x0000a0ab
     1d8:	00000010 	.word	0x00000010
     1dc:	00009d3e 	.word	0x00009d3e
     1e0:	0000a061 	.word	0x0000a061

000001e4 <TA_CreateEntryPoint>:
TA_CreateEntryPoint():
/home/frank/TrustSQLite/stm32mp1-openstlinux-5.10-dunfell-mp1-21-11-17/SDK/Smaug/frank_ta/frank_ta.c:62
     1e4:	2000      	movs	r0, #0
     1e6:	4770      	bx	lr

000001e8 <TA_DestroyEntryPoint>:
TA_DestroyEntryPoint():
/home/frank/TrustSQLite/stm32mp1-openstlinux-5.10-dunfell-mp1-21-11-17/SDK/Smaug/frank_ta/frank_ta.c:67
     1e8:	4770      	bx	lr

000001ea <TA_OpenSessionEntryPoint>:
TA_OpenSessionEntryPoint():
/home/frank/TrustSQLite/stm32mp1-openstlinux-5.10-dunfell-mp1-21-11-17/SDK/Smaug/frank_ta/frank_ta.c:72
     1ea:	b537      	push	{r0, r1, r2, r4, r5, lr}
/home/frank/TrustSQLite/stm32mp1-openstlinux-5.10-dunfell-mp1-21-11-17/SDK/Smaug/frank_ta/frank_ta.c:80
     1ec:	2100      	movs	r1, #0
     1ee:	2014      	movs	r0, #20
/home/frank/TrustSQLite/stm32mp1-openstlinux-5.10-dunfell-mp1-21-11-17/SDK/Smaug/frank_ta/frank_ta.c:72
     1f0:	4615      	mov	r5, r2
/home/frank/TrustSQLite/stm32mp1-openstlinux-5.10-dunfell-mp1-21-11-17/SDK/Smaug/frank_ta/frank_ta.c:80
     1f2:	f001 fe58 	bl	1ea6 <TEE_Malloc>
/home/frank/TrustSQLite/stm32mp1-openstlinux-5.10-dunfell-mp1-21-11-17/SDK/Smaug/frank_ta/frank_ta.c:81
     1f6:	b190      	cbz	r0, 21e <TA_OpenSessionEntryPoint+0x34>
/home/frank/TrustSQLite/stm32mp1-openstlinux-5.10-dunfell-mp1-21-11-17/SDK/Smaug/frank_ta/frank_ta.c:88
     1f8:	4b0b      	ldr	r3, [pc, #44]	; (228 <TA_OpenSessionEntryPoint+0x3e>)
/home/frank/TrustSQLite/stm32mp1-openstlinux-5.10-dunfell-mp1-21-11-17/SDK/Smaug/frank_ta/frank_ta.c:84
     1fa:	2400      	movs	r4, #0
     1fc:	6104      	str	r4, [r0, #16]
/home/frank/TrustSQLite/stm32mp1-openstlinux-5.10-dunfell-mp1-21-11-17/SDK/Smaug/frank_ta/frank_ta.c:88
     1fe:	2203      	movs	r2, #3
/home/frank/TrustSQLite/stm32mp1-openstlinux-5.10-dunfell-mp1-21-11-17/SDK/Smaug/frank_ta/frank_ta.c:85
     200:	60c4      	str	r4, [r0, #12]
/home/frank/TrustSQLite/stm32mp1-openstlinux-5.10-dunfell-mp1-21-11-17/SDK/Smaug/frank_ta/frank_ta.c:88
     202:	2158      	movs	r1, #88	; 0x58
/home/frank/TrustSQLite/stm32mp1-openstlinux-5.10-dunfell-mp1-21-11-17/SDK/Smaug/frank_ta/frank_ta.c:87
     204:	6028      	str	r0, [r5, #0]
/home/frank/TrustSQLite/stm32mp1-openstlinux-5.10-dunfell-mp1-21-11-17/SDK/Smaug/frank_ta/frank_ta.c:88
     206:	9001      	str	r0, [sp, #4]
     208:	4808      	ldr	r0, [pc, #32]	; (22c <TA_OpenSessionEntryPoint+0x42>)
     20a:	447b      	add	r3, pc
     20c:	4478      	add	r0, pc
     20e:	9300      	str	r3, [sp, #0]
     210:	3010      	adds	r0, #16
     212:	2301      	movs	r3, #1
     214:	f001 f83a 	bl	128c <trace_printf>
/home/frank/TrustSQLite/stm32mp1-openstlinux-5.10-dunfell-mp1-21-11-17/SDK/Smaug/frank_ta/frank_ta.c:90
     218:	4620      	mov	r0, r4
/home/frank/TrustSQLite/stm32mp1-openstlinux-5.10-dunfell-mp1-21-11-17/SDK/Smaug/frank_ta/frank_ta.c:91
     21a:	b003      	add	sp, #12
     21c:	bd30      	pop	{r4, r5, pc}
/home/frank/TrustSQLite/stm32mp1-openstlinux-5.10-dunfell-mp1-21-11-17/SDK/Smaug/frank_ta/frank_ta.c:82
     21e:	4801      	ldr	r0, [pc, #4]	; (224 <TA_OpenSessionEntryPoint+0x3a>)
     220:	e7fb      	b.n	21a <TA_OpenSessionEntryPoint+0x30>
     222:	bf00      	nop
     224:	ffff000c 	.word	0xffff000c
     228:	00009d0e 	.word	0x00009d0e
     22c:	0000a01b 	.word	0x0000a01b

00000230 <TA_CloseSessionEntryPoint>:
TA_CloseSessionEntryPoint():
/home/frank/TrustSQLite/stm32mp1-openstlinux-5.10-dunfell-mp1-21-11-17/SDK/Smaug/frank_ta/frank_ta.c:94
     230:	b513      	push	{r0, r1, r4, lr}
     232:	4604      	mov	r4, r0
/home/frank/TrustSQLite/stm32mp1-openstlinux-5.10-dunfell-mp1-21-11-17/SDK/Smaug/frank_ta/frank_ta.c:98
     234:	9001      	str	r0, [sp, #4]
     236:	2203      	movs	r2, #3
     238:	4b0b      	ldr	r3, [pc, #44]	; (268 <TA_CloseSessionEntryPoint+0x38>)
     23a:	2162      	movs	r1, #98	; 0x62
     23c:	480b      	ldr	r0, [pc, #44]	; (26c <TA_CloseSessionEntryPoint+0x3c>)
     23e:	447b      	add	r3, pc
     240:	4478      	add	r0, pc
     242:	9300      	str	r3, [sp, #0]
     244:	3029      	adds	r0, #41	; 0x29
     246:	2301      	movs	r3, #1
     248:	f001 f820 	bl	128c <trace_printf>
/home/frank/TrustSQLite/stm32mp1-openstlinux-5.10-dunfell-mp1-21-11-17/SDK/Smaug/frank_ta/frank_ta.c:102
     24c:	6920      	ldr	r0, [r4, #16]
     24e:	b108      	cbz	r0, 254 <TA_CloseSessionEntryPoint+0x24>
/home/frank/TrustSQLite/stm32mp1-openstlinux-5.10-dunfell-mp1-21-11-17/SDK/Smaug/frank_ta/frank_ta.c:103
     250:	f001 ff7a 	bl	2148 <TEE_FreeTransientObject>
/home/frank/TrustSQLite/stm32mp1-openstlinux-5.10-dunfell-mp1-21-11-17/SDK/Smaug/frank_ta/frank_ta.c:104
     254:	68e0      	ldr	r0, [r4, #12]
     256:	b108      	cbz	r0, 25c <TA_CloseSessionEntryPoint+0x2c>
/home/frank/TrustSQLite/stm32mp1-openstlinux-5.10-dunfell-mp1-21-11-17/SDK/Smaug/frank_ta/frank_ta.c:105
     258:	f002 faf0 	bl	283c <TEE_FreeOperation>
/home/frank/TrustSQLite/stm32mp1-openstlinux-5.10-dunfell-mp1-21-11-17/SDK/Smaug/frank_ta/frank_ta.c:106
     25c:	4620      	mov	r0, r4
/home/frank/TrustSQLite/stm32mp1-openstlinux-5.10-dunfell-mp1-21-11-17/SDK/Smaug/frank_ta/frank_ta.c:107
     25e:	b002      	add	sp, #8
     260:	e8bd 4010 	ldmia.w	sp!, {r4, lr}
/home/frank/TrustSQLite/stm32mp1-openstlinux-5.10-dunfell-mp1-21-11-17/SDK/Smaug/frank_ta/frank_ta.c:106
     264:	f001 be46 	b.w	1ef4 <TEE_Free>
     268:	00009cf6 	.word	0x00009cf6
     26c:	00009fe7 	.word	0x00009fe7

00000270 <base64_encode>:
base64_encode():
/home/frank/TrustSQLite/stm32mp1-openstlinux-5.10-dunfell-mp1-21-11-17/SDK/Smaug/frank_ta/frank_ta.c:120
     270:	2303      	movs	r3, #3
/home/frank/TrustSQLite/stm32mp1-openstlinux-5.10-dunfell-mp1-21-11-17/SDK/Smaug/frank_ta/frank_ta.c:115
     272:	4602      	mov	r2, r0
     274:	b5f0      	push	{r4, r5, r6, r7, lr}
/home/frank/TrustSQLite/stm32mp1-openstlinux-5.10-dunfell-mp1-21-11-17/SDK/Smaug/frank_ta/frank_ta.c:125
     276:	2500      	movs	r5, #0
/home/frank/TrustSQLite/stm32mp1-openstlinux-5.10-dunfell-mp1-21-11-17/SDK/Smaug/frank_ta/frank_ta.c:120
     278:	fb91 f3f3 	sdiv	r3, r1, r3
     27c:	eb03 0043 	add.w	r0, r3, r3, lsl #1
     280:	1a09      	subs	r1, r1, r0
/home/frank/TrustSQLite/stm32mp1-openstlinux-5.10-dunfell-mp1-21-11-17/SDK/Smaug/frank_ta/frank_ta.c:115
     282:	4e27      	ldr	r6, [pc, #156]	; (320 <base64_encode+0xb0>)
/home/frank/TrustSQLite/stm32mp1-openstlinux-5.10-dunfell-mp1-21-11-17/SDK/Smaug/frank_ta/frank_ta.c:123
     284:	bf18      	it	ne
     286:	3301      	addne	r3, #1
/home/frank/TrustSQLite/stm32mp1-openstlinux-5.10-dunfell-mp1-21-11-17/SDK/Smaug/frank_ta/frank_ta.c:115
     288:	447e      	add	r6, pc
/home/frank/TrustSQLite/stm32mp1-openstlinux-5.10-dunfell-mp1-21-11-17/SDK/Smaug/frank_ta/frank_ta.c:123
     28a:	0098      	lsls	r0, r3, #2
/home/frank/TrustSQLite/stm32mp1-openstlinux-5.10-dunfell-mp1-21-11-17/SDK/Smaug/frank_ta/frank_ta.c:125
     28c:	4b25      	ldr	r3, [pc, #148]	; (324 <base64_encode+0xb4>)
/home/frank/TrustSQLite/stm32mp1-openstlinux-5.10-dunfell-mp1-21-11-17/SDK/Smaug/frank_ta/frank_ta.c:128
     28e:	f1a0 0c02 	sub.w	ip, r0, #2
/home/frank/TrustSQLite/stm32mp1-openstlinux-5.10-dunfell-mp1-21-11-17/SDK/Smaug/frank_ta/frank_ta.c:125
     292:	58f4      	ldr	r4, [r6, r3]
/home/frank/TrustSQLite/stm32mp1-openstlinux-5.10-dunfell-mp1-21-11-17/SDK/Smaug/frank_ta/frank_ta.c:130
     294:	4b24      	ldr	r3, [pc, #144]	; (328 <base64_encode+0xb8>)
/home/frank/TrustSQLite/stm32mp1-openstlinux-5.10-dunfell-mp1-21-11-17/SDK/Smaug/frank_ta/frank_ta.c:125
     296:	5425      	strb	r5, [r4, r0]
/home/frank/TrustSQLite/stm32mp1-openstlinux-5.10-dunfell-mp1-21-11-17/SDK/Smaug/frank_ta/frank_ta.c:130
     298:	58f3      	ldr	r3, [r6, r3]
     29a:	4626      	mov	r6, r4
     29c:	681f      	ldr	r7, [r3, #0]
     29e:	4613      	mov	r3, r2
/home/frank/TrustSQLite/stm32mp1-openstlinux-5.10-dunfell-mp1-21-11-17/SDK/Smaug/frank_ta/frank_ta.c:128 (discriminator 1)
     2a0:	45ac      	cmp	ip, r5
     2a2:	f103 0303 	add.w	r3, r3, #3
     2a6:	f106 0604 	add.w	r6, r6, #4
     2aa:	dc08      	bgt.n	2be <base64_encode+0x4e>
     2ac:	1c42      	adds	r2, r0, #1
     2ae:	bfac      	ite	ge
     2b0:	4603      	movge	r3, r0
     2b2:	2300      	movlt	r3, #0
/home/frank/TrustSQLite/stm32mp1-openstlinux-5.10-dunfell-mp1-21-11-17/SDK/Smaug/frank_ta/frank_ta.c:136
     2b4:	2901      	cmp	r1, #1
     2b6:	d029      	beq.n	30c <base64_encode+0x9c>
     2b8:	2902      	cmp	r1, #2
     2ba:	d02e      	beq.n	31a <base64_encode+0xaa>
/home/frank/TrustSQLite/stm32mp1-openstlinux-5.10-dunfell-mp1-21-11-17/SDK/Smaug/frank_ta/frank_ta.c:147
     2bc:	bdf0      	pop	{r4, r5, r6, r7, pc}
/home/frank/TrustSQLite/stm32mp1-openstlinux-5.10-dunfell-mp1-21-11-17/SDK/Smaug/frank_ta/frank_ta.c:130 (discriminator 3)
     2be:	f813 2c03 	ldrb.w	r2, [r3, #-3]
/home/frank/TrustSQLite/stm32mp1-openstlinux-5.10-dunfell-mp1-21-11-17/SDK/Smaug/frank_ta/frank_ta.c:128 (discriminator 3)
     2c2:	3504      	adds	r5, #4
/home/frank/TrustSQLite/stm32mp1-openstlinux-5.10-dunfell-mp1-21-11-17/SDK/Smaug/frank_ta/frank_ta.c:130 (discriminator 3)
     2c4:	0892      	lsrs	r2, r2, #2
     2c6:	5cba      	ldrb	r2, [r7, r2]
     2c8:	f806 2c04 	strb.w	r2, [r6, #-4]
/home/frank/TrustSQLite/stm32mp1-openstlinux-5.10-dunfell-mp1-21-11-17/SDK/Smaug/frank_ta/frank_ta.c:131 (discriminator 3)
     2cc:	f813 2c03 	ldrb.w	r2, [r3, #-3]
     2d0:	f813 ec02 	ldrb.w	lr, [r3, #-2]
     2d4:	0112      	lsls	r2, r2, #4
     2d6:	f002 0230 	and.w	r2, r2, #48	; 0x30
     2da:	ea42 121e 	orr.w	r2, r2, lr, lsr #4
     2de:	5cba      	ldrb	r2, [r7, r2]
     2e0:	f806 2c03 	strb.w	r2, [r6, #-3]
/home/frank/TrustSQLite/stm32mp1-openstlinux-5.10-dunfell-mp1-21-11-17/SDK/Smaug/frank_ta/frank_ta.c:132 (discriminator 3)
     2e4:	f813 2c02 	ldrb.w	r2, [r3, #-2]
     2e8:	f813 ec01 	ldrb.w	lr, [r3, #-1]
     2ec:	0092      	lsls	r2, r2, #2
     2ee:	f002 023c 	and.w	r2, r2, #60	; 0x3c
     2f2:	ea42 129e 	orr.w	r2, r2, lr, lsr #6
     2f6:	5cba      	ldrb	r2, [r7, r2]
     2f8:	f806 2c02 	strb.w	r2, [r6, #-2]
/home/frank/TrustSQLite/stm32mp1-openstlinux-5.10-dunfell-mp1-21-11-17/SDK/Smaug/frank_ta/frank_ta.c:133 (discriminator 3)
     2fc:	f813 2c01 	ldrb.w	r2, [r3, #-1]
     300:	f002 023f 	and.w	r2, r2, #63	; 0x3f
     304:	5cba      	ldrb	r2, [r7, r2]
     306:	f806 2c01 	strb.w	r2, [r6, #-1]
/home/frank/TrustSQLite/stm32mp1-openstlinux-5.10-dunfell-mp1-21-11-17/SDK/Smaug/frank_ta/frank_ta.c:128 (discriminator 3)
     30a:	e7c9      	b.n	2a0 <base64_encode+0x30>
/home/frank/TrustSQLite/stm32mp1-openstlinux-5.10-dunfell-mp1-21-11-17/SDK/Smaug/frank_ta/frank_ta.c:139
     30c:	441c      	add	r4, r3
     30e:	233d      	movs	r3, #61	; 0x3d
     310:	f804 3c02 	strb.w	r3, [r4, #-2]
/home/frank/TrustSQLite/stm32mp1-openstlinux-5.10-dunfell-mp1-21-11-17/SDK/Smaug/frank_ta/frank_ta.c:143
     314:	f804 3c01 	strb.w	r3, [r4, #-1]
/home/frank/TrustSQLite/stm32mp1-openstlinux-5.10-dunfell-mp1-21-11-17/SDK/Smaug/frank_ta/frank_ta.c:146
     318:	e7d0      	b.n	2bc <base64_encode+0x4c>
/home/frank/TrustSQLite/stm32mp1-openstlinux-5.10-dunfell-mp1-21-11-17/SDK/Smaug/frank_ta/frank_ta.c:143
     31a:	441c      	add	r4, r3
     31c:	233d      	movs	r3, #61	; 0x3d
     31e:	e7f9      	b.n	314 <base64_encode+0xa4>
     320:	0000bdfc 	.word	0x0000bdfc
     324:	00000018 	.word	0x00000018
     328:	0000000c 	.word	0x0000000c

0000032c <base64_decode>:
base64_decode():
/home/frank/TrustSQLite/stm32mp1-openstlinux-5.10-dunfell-mp1-21-11-17/SDK/Smaug/frank_ta/frank_ta.c:155
     32c:	b5f8      	push	{r3, r4, r5, r6, r7, lr}
     32e:	460d      	mov	r5, r1
/home/frank/TrustSQLite/stm32mp1-openstlinux-5.10-dunfell-mp1-21-11-17/SDK/Smaug/frank_ta/frank_ta.c:160
     330:	4929      	ldr	r1, [pc, #164]	; (3d8 <base64_decode+0xac>)
/home/frank/TrustSQLite/stm32mp1-openstlinux-5.10-dunfell-mp1-21-11-17/SDK/Smaug/frank_ta/frank_ta.c:155
     332:	4606      	mov	r6, r0
     334:	4f29      	ldr	r7, [pc, #164]	; (3dc <base64_decode+0xb0>)
     336:	462c      	mov	r4, r5
/home/frank/TrustSQLite/stm32mp1-openstlinux-5.10-dunfell-mp1-21-11-17/SDK/Smaug/frank_ta/frank_ta.c:160
     338:	4479      	add	r1, pc
/home/frank/TrustSQLite/stm32mp1-openstlinux-5.10-dunfell-mp1-21-11-17/SDK/Smaug/frank_ta/frank_ta.c:155
     33a:	447f      	add	r7, pc
/home/frank/TrustSQLite/stm32mp1-openstlinux-5.10-dunfell-mp1-21-11-17/SDK/Smaug/frank_ta/frank_ta.c:160
     33c:	f009 faba 	bl	98b4 <strstr>
     340:	2d00      	cmp	r5, #0
     342:	bfb8      	it	lt
     344:	1cec      	addlt	r4, r5, #3
     346:	10a4      	asrs	r4, r4, #2
     348:	eb04 0444 	add.w	r4, r4, r4, lsl #1
     34c:	b168      	cbz	r0, 36a <base64_decode+0x3e>
/home/frank/TrustSQLite/stm32mp1-openstlinux-5.10-dunfell-mp1-21-11-17/SDK/Smaug/frank_ta/frank_ta.c:161
     34e:	3c02      	subs	r4, #2
/home/frank/TrustSQLite/stm32mp1-openstlinux-5.10-dunfell-mp1-21-11-17/SDK/Smaug/frank_ta/frank_ta.c:167
     350:	4b23      	ldr	r3, [pc, #140]	; (3e0 <base64_decode+0xb4>)
/home/frank/TrustSQLite/stm32mp1-openstlinux-5.10-dunfell-mp1-21-11-17/SDK/Smaug/frank_ta/frank_ta.c:170
     352:	4630      	mov	r0, r6
     354:	1ea9      	subs	r1, r5, #2
/home/frank/TrustSQLite/stm32mp1-openstlinux-5.10-dunfell-mp1-21-11-17/SDK/Smaug/frank_ta/frank_ta.c:167
     356:	2200      	movs	r2, #0
     358:	58fb      	ldr	r3, [r7, r3]
     35a:	551a      	strb	r2, [r3, r4]
/home/frank/TrustSQLite/stm32mp1-openstlinux-5.10-dunfell-mp1-21-11-17/SDK/Smaug/frank_ta/frank_ta.c:170 (discriminator 1)
     35c:	1d02      	adds	r2, r0, #4
     35e:	3303      	adds	r3, #3
     360:	1b80      	subs	r0, r0, r6
     362:	4281      	cmp	r1, r0
     364:	dc09      	bgt.n	37a <base64_decode+0x4e>
/home/frank/TrustSQLite/stm32mp1-openstlinux-5.10-dunfell-mp1-21-11-17/SDK/Smaug/frank_ta/frank_ta.c:179
     366:	4620      	mov	r0, r4
     368:	bdf8      	pop	{r3, r4, r5, r6, r7, pc}
/home/frank/TrustSQLite/stm32mp1-openstlinux-5.10-dunfell-mp1-21-11-17/SDK/Smaug/frank_ta/frank_ta.c:162
     36a:	213d      	movs	r1, #61	; 0x3d
     36c:	4630      	mov	r0, r6
     36e:	f009 fa6e 	bl	984e <strchr>
     372:	2800      	cmp	r0, #0
     374:	d0ec      	beq.n	350 <base64_decode+0x24>
/home/frank/TrustSQLite/stm32mp1-openstlinux-5.10-dunfell-mp1-21-11-17/SDK/Smaug/frank_ta/frank_ta.c:163
     376:	3c01      	subs	r4, #1
     378:	e7ea      	b.n	350 <base64_decode+0x24>
/home/frank/TrustSQLite/stm32mp1-openstlinux-5.10-dunfell-mp1-21-11-17/SDK/Smaug/frank_ta/frank_ta.c:172 (discriminator 3)
     37a:	481a      	ldr	r0, [pc, #104]	; (3e4 <base64_decode+0xb8>)
     37c:	f812 5c03 	ldrb.w	r5, [r2, #-3]
     380:	f857 c000 	ldr.w	ip, [r7, r0]
     384:	f812 0c04 	ldrb.w	r0, [r2, #-4]
     388:	f81c 5025 	ldrb.w	r5, [ip, r5, lsl #2]
     38c:	f85c 0020 	ldr.w	r0, [ip, r0, lsl #2]
     390:	0080      	lsls	r0, r0, #2
     392:	f400 707f 	and.w	r0, r0, #1020	; 0x3fc
     396:	ea40 1015 	orr.w	r0, r0, r5, lsr #4
     39a:	f803 0c03 	strb.w	r0, [r3, #-3]
/home/frank/TrustSQLite/stm32mp1-openstlinux-5.10-dunfell-mp1-21-11-17/SDK/Smaug/frank_ta/frank_ta.c:173 (discriminator 3)
     39e:	f812 0c03 	ldrb.w	r0, [r2, #-3]
     3a2:	f85c 5020 	ldr.w	r5, [ip, r0, lsl #2]
     3a6:	f812 0c02 	ldrb.w	r0, [r2, #-2]
     3aa:	012d      	lsls	r5, r5, #4
     3ac:	f81c 0020 	ldrb.w	r0, [ip, r0, lsl #2]
     3b0:	f405 657f 	and.w	r5, r5, #4080	; 0xff0
     3b4:	ea45 0590 	orr.w	r5, r5, r0, lsr #2
     3b8:	f803 5c02 	strb.w	r5, [r3, #-2]
/home/frank/TrustSQLite/stm32mp1-openstlinux-5.10-dunfell-mp1-21-11-17/SDK/Smaug/frank_ta/frank_ta.c:174 (discriminator 3)
     3bc:	f812 0c02 	ldrb.w	r0, [r2, #-2]
     3c0:	f85c 5020 	ldr.w	r5, [ip, r0, lsl #2]
     3c4:	f812 0c01 	ldrb.w	r0, [r2, #-1]
     3c8:	f85c 0020 	ldr.w	r0, [ip, r0, lsl #2]
     3cc:	ea40 1085 	orr.w	r0, r0, r5, lsl #6
     3d0:	f803 0c01 	strb.w	r0, [r3, #-1]
     3d4:	4610      	mov	r0, r2
     3d6:	e7c1      	b.n	35c <base64_decode+0x30>
     3d8:	00009c18 	.word	0x00009c18
     3dc:	0000bd4a 	.word	0x0000bd4a
     3e0:	00000018 	.word	0x00000018
     3e4:	00000034 	.word	0x00000034

000003e8 <sql_decrypt.constprop.0>:
sql_decrypt():
/home/frank/TrustSQLite/stm32mp1-openstlinux-5.10-dunfell-mp1-21-11-17/SDK/Smaug/frank_ta/frank_ta.c:420
     3e8:	e92d 4ff0 	stmdb	sp!, {r4, r5, r6, r7, r8, r9, sl, fp, lr}
     3ec:	b087      	sub	sp, #28
     3ee:	4f6b      	ldr	r7, [pc, #428]	; (59c <sql_decrypt.constprop.0+0x1b4>)
/home/frank/TrustSQLite/stm32mp1-openstlinux-5.10-dunfell-mp1-21-11-17/SDK/Smaug/frank_ta/frank_ta.c:425
     3f0:	f44f 1280 	mov.w	r2, #1048576	; 0x100000
     3f4:	4b6a      	ldr	r3, [pc, #424]	; (5a0 <sql_decrypt.constprop.0+0x1b8>)
     3f6:	2100      	movs	r1, #0
/home/frank/TrustSQLite/stm32mp1-openstlinux-5.10-dunfell-mp1-21-11-17/SDK/Smaug/frank_ta/frank_ta.c:420
     3f8:	447f      	add	r7, pc
     3fa:	9004      	str	r0, [sp, #16]
/home/frank/TrustSQLite/stm32mp1-openstlinux-5.10-dunfell-mp1-21-11-17/SDK/Smaug/frank_ta/frank_ta.c:425
     3fc:	58fb      	ldr	r3, [r7, r3]
/home/frank/TrustSQLite/stm32mp1-openstlinux-5.10-dunfell-mp1-21-11-17/SDK/Smaug/frank_ta/frank_ta.c:435
     3fe:	f8df 91a4 	ldr.w	r9, [pc, #420]	; 5a4 <sql_decrypt.constprop.0+0x1bc>
/home/frank/TrustSQLite/stm32mp1-openstlinux-5.10-dunfell-mp1-21-11-17/SDK/Smaug/frank_ta/frank_ta.c:425
     402:	9303      	str	r3, [sp, #12]
     404:	4618      	mov	r0, r3
/home/frank/TrustSQLite/stm32mp1-openstlinux-5.10-dunfell-mp1-21-11-17/SDK/Smaug/frank_ta/frank_ta.c:435
     406:	f8df a1a0 	ldr.w	sl, [pc, #416]	; 5a8 <sql_decrypt.constprop.0+0x1c0>
/home/frank/TrustSQLite/stm32mp1-openstlinux-5.10-dunfell-mp1-21-11-17/SDK/Smaug/frank_ta/frank_ta.c:425
     40a:	f009 fa18 	bl	983e <memset>
/home/frank/TrustSQLite/stm32mp1-openstlinux-5.10-dunfell-mp1-21-11-17/SDK/Smaug/frank_ta/frank_ta.c:435
     40e:	f8df b19c 	ldr.w	fp, [pc, #412]	; 5ac <sql_decrypt.constprop.0+0x1c4>
/home/frank/TrustSQLite/stm32mp1-openstlinux-5.10-dunfell-mp1-21-11-17/SDK/Smaug/frank_ta/frank_ta.c:422
     412:	4b67      	ldr	r3, [pc, #412]	; (5b0 <sql_decrypt.constprop.0+0x1c8>)
     414:	9d03      	ldr	r5, [sp, #12]
     416:	58fe      	ldr	r6, [r7, r3]
/home/frank/TrustSQLite/stm32mp1-openstlinux-5.10-dunfell-mp1-21-11-17/SDK/Smaug/frank_ta/frank_ta.c:435
     418:	44f9      	add	r9, pc
     41a:	44fa      	add	sl, pc
     41c:	44fb      	add	fp, pc
/home/frank/TrustSQLite/stm32mp1-openstlinux-5.10-dunfell-mp1-21-11-17/SDK/Smaug/frank_ta/frank_ta.c:426
     41e:	7830      	ldrb	r0, [r6, #0]
     420:	b910      	cbnz	r0, 428 <sql_decrypt.constprop.0+0x40>
/home/frank/TrustSQLite/stm32mp1-openstlinux-5.10-dunfell-mp1-21-11-17/SDK/Smaug/frank_ta/frank_ta.c:459
     422:	b007      	add	sp, #28
     424:	e8bd 8ff0 	ldmia.w	sp!, {r4, r5, r6, r7, r8, r9, sl, fp, pc}
/home/frank/TrustSQLite/stm32mp1-openstlinux-5.10-dunfell-mp1-21-11-17/SDK/Smaug/frank_ta/frank_ta.c:427
     428:	213a      	movs	r1, #58	; 0x3a
     42a:	4630      	mov	r0, r6
     42c:	f009 fa0f 	bl	984e <strchr>
/home/frank/TrustSQLite/stm32mp1-openstlinux-5.10-dunfell-mp1-21-11-17/SDK/Smaug/frank_ta/frank_ta.c:428
     430:	4b60      	ldr	r3, [pc, #384]	; (5b4 <sql_decrypt.constprop.0+0x1cc>)
/home/frank/TrustSQLite/stm32mp1-openstlinux-5.10-dunfell-mp1-21-11-17/SDK/Smaug/frank_ta/frank_ta.c:427
     432:	4680      	mov	r8, r0
/home/frank/TrustSQLite/stm32mp1-openstlinux-5.10-dunfell-mp1-21-11-17/SDK/Smaug/frank_ta/frank_ta.c:428
     434:	2232      	movs	r2, #50	; 0x32
     436:	2100      	movs	r1, #0
     438:	58fc      	ldr	r4, [r7, r3]
     43a:	4620      	mov	r0, r4
     43c:	f009 f9ff 	bl	983e <memset>
/home/frank/TrustSQLite/stm32mp1-openstlinux-5.10-dunfell-mp1-21-11-17/SDK/Smaug/frank_ta/frank_ta.c:429
     440:	eba8 0206 	sub.w	r2, r8, r6
     444:	4631      	mov	r1, r6
     446:	3a01      	subs	r2, #1
     448:	4620      	mov	r0, r4
     44a:	f009 fa20 	bl	988e <strncpy>
/home/frank/TrustSQLite/stm32mp1-openstlinux-5.10-dunfell-mp1-21-11-17/SDK/Smaug/frank_ta/frank_ta.c:430
     44e:	f108 0302 	add.w	r3, r8, #2
/home/frank/TrustSQLite/stm32mp1-openstlinux-5.10-dunfell-mp1-21-11-17/SDK/Smaug/frank_ta/frank_ta.c:431
     452:	210a      	movs	r1, #10
     454:	9303      	str	r3, [sp, #12]
     456:	4618      	mov	r0, r3
     458:	f009 f9f9 	bl	984e <strchr>
/home/frank/TrustSQLite/stm32mp1-openstlinux-5.10-dunfell-mp1-21-11-17/SDK/Smaug/frank_ta/frank_ta.c:432
     45c:	4a56      	ldr	r2, [pc, #344]	; (5b8 <sql_decrypt.constprop.0+0x1d0>)
/home/frank/TrustSQLite/stm32mp1-openstlinux-5.10-dunfell-mp1-21-11-17/SDK/Smaug/frank_ta/frank_ta.c:431
     45e:	4606      	mov	r6, r0
/home/frank/TrustSQLite/stm32mp1-openstlinux-5.10-dunfell-mp1-21-11-17/SDK/Smaug/frank_ta/frank_ta.c:432
     460:	2100      	movs	r1, #0
     462:	f857 8002 	ldr.w	r8, [r7, r2]
     466:	2232      	movs	r2, #50	; 0x32
     468:	4640      	mov	r0, r8
     46a:	f009 f9e8 	bl	983e <memset>
/home/frank/TrustSQLite/stm32mp1-openstlinux-5.10-dunfell-mp1-21-11-17/SDK/Smaug/frank_ta/frank_ta.c:433
     46e:	9b03      	ldr	r3, [sp, #12]
     470:	4640      	mov	r0, r8
     472:	1af2      	subs	r2, r6, r3
     474:	4619      	mov	r1, r3
     476:	f009 fa0a 	bl	988e <strncpy>
/home/frank/TrustSQLite/stm32mp1-openstlinux-5.10-dunfell-mp1-21-11-17/SDK/Smaug/frank_ta/frank_ta.c:435
     47a:	4649      	mov	r1, r9
     47c:	4620      	mov	r0, r4
     47e:	f009 f9f3 	bl	9868 <strcmp>
     482:	2800      	cmp	r0, #0
     484:	d04e      	beq.n	524 <sql_decrypt.constprop.0+0x13c>
     486:	4651      	mov	r1, sl
     488:	4620      	mov	r0, r4
     48a:	f009 f9ed 	bl	9868 <strcmp>
     48e:	2800      	cmp	r0, #0
     490:	d048      	beq.n	524 <sql_decrypt.constprop.0+0x13c>
     492:	4659      	mov	r1, fp
     494:	4620      	mov	r0, r4
     496:	f009 f9e7 	bl	9868 <strcmp>
     49a:	2800      	cmp	r0, #0
     49c:	d042      	beq.n	524 <sql_decrypt.constprop.0+0x13c>
     49e:	4947      	ldr	r1, [pc, #284]	; (5bc <sql_decrypt.constprop.0+0x1d4>)
     4a0:	4620      	mov	r0, r4
     4a2:	4479      	add	r1, pc
     4a4:	f009 f9e0 	bl	9868 <strcmp>
     4a8:	2800      	cmp	r0, #0
     4aa:	d03b      	beq.n	524 <sql_decrypt.constprop.0+0x13c>
/home/frank/TrustSQLite/stm32mp1-openstlinux-5.10-dunfell-mp1-21-11-17/SDK/Smaug/frank_ta/frank_ta.c:436
     4ac:	4944      	ldr	r1, [pc, #272]	; (5c0 <sql_decrypt.constprop.0+0x1d8>)
     4ae:	4620      	mov	r0, r4
     4b0:	4479      	add	r1, pc
     4b2:	f009 f9d9 	bl	9868 <strcmp>
/home/frank/TrustSQLite/stm32mp1-openstlinux-5.10-dunfell-mp1-21-11-17/SDK/Smaug/frank_ta/frank_ta.c:435
     4b6:	b3a8      	cbz	r0, 524 <sql_decrypt.constprop.0+0x13c>
/home/frank/TrustSQLite/stm32mp1-openstlinux-5.10-dunfell-mp1-21-11-17/SDK/Smaug/frank_ta/frank_ta.c:436
     4b8:	4942      	ldr	r1, [pc, #264]	; (5c4 <sql_decrypt.constprop.0+0x1dc>)
     4ba:	4620      	mov	r0, r4
     4bc:	4479      	add	r1, pc
     4be:	f009 f9d3 	bl	9868 <strcmp>
     4c2:	b378      	cbz	r0, 524 <sql_decrypt.constprop.0+0x13c>
     4c4:	4940      	ldr	r1, [pc, #256]	; (5c8 <sql_decrypt.constprop.0+0x1e0>)
     4c6:	4620      	mov	r0, r4
     4c8:	4479      	add	r1, pc
     4ca:	f009 f9cd 	bl	9868 <strcmp>
     4ce:	b348      	cbz	r0, 524 <sql_decrypt.constprop.0+0x13c>
     4d0:	493e      	ldr	r1, [pc, #248]	; (5cc <sql_decrypt.constprop.0+0x1e4>)
     4d2:	4620      	mov	r0, r4
     4d4:	4479      	add	r1, pc
     4d6:	f009 f9c7 	bl	9868 <strcmp>
     4da:	b318      	cbz	r0, 524 <sql_decrypt.constprop.0+0x13c>
/home/frank/TrustSQLite/stm32mp1-openstlinux-5.10-dunfell-mp1-21-11-17/SDK/Smaug/frank_ta/frank_ta.c:437
     4dc:	493c      	ldr	r1, [pc, #240]	; (5d0 <sql_decrypt.constprop.0+0x1e8>)
     4de:	4620      	mov	r0, r4
     4e0:	4479      	add	r1, pc
     4e2:	f009 f9c1 	bl	9868 <strcmp>
/home/frank/TrustSQLite/stm32mp1-openstlinux-5.10-dunfell-mp1-21-11-17/SDK/Smaug/frank_ta/frank_ta.c:436
     4e6:	b1e8      	cbz	r0, 524 <sql_decrypt.constprop.0+0x13c>
/home/frank/TrustSQLite/stm32mp1-openstlinux-5.10-dunfell-mp1-21-11-17/SDK/Smaug/frank_ta/frank_ta.c:437
     4e8:	493a      	ldr	r1, [pc, #232]	; (5d4 <sql_decrypt.constprop.0+0x1ec>)
     4ea:	4620      	mov	r0, r4
     4ec:	4479      	add	r1, pc
     4ee:	f009 f9bb 	bl	9868 <strcmp>
     4f2:	b1b8      	cbz	r0, 524 <sql_decrypt.constprop.0+0x13c>
     4f4:	4938      	ldr	r1, [pc, #224]	; (5d8 <sql_decrypt.constprop.0+0x1f0>)
     4f6:	4620      	mov	r0, r4
     4f8:	4479      	add	r1, pc
     4fa:	f009 f9b5 	bl	9868 <strcmp>
     4fe:	b188      	cbz	r0, 524 <sql_decrypt.constprop.0+0x13c>
     500:	4936      	ldr	r1, [pc, #216]	; (5dc <sql_decrypt.constprop.0+0x1f4>)
     502:	4620      	mov	r0, r4
     504:	4479      	add	r1, pc
     506:	f009 f9af 	bl	9868 <strcmp>
     50a:	b158      	cbz	r0, 524 <sql_decrypt.constprop.0+0x13c>
/home/frank/TrustSQLite/stm32mp1-openstlinux-5.10-dunfell-mp1-21-11-17/SDK/Smaug/frank_ta/frank_ta.c:438
     50c:	4934      	ldr	r1, [pc, #208]	; (5e0 <sql_decrypt.constprop.0+0x1f8>)
     50e:	4620      	mov	r0, r4
     510:	4479      	add	r1, pc
     512:	f009 f9a9 	bl	9868 <strcmp>
/home/frank/TrustSQLite/stm32mp1-openstlinux-5.10-dunfell-mp1-21-11-17/SDK/Smaug/frank_ta/frank_ta.c:437
     516:	b128      	cbz	r0, 524 <sql_decrypt.constprop.0+0x13c>
/home/frank/TrustSQLite/stm32mp1-openstlinux-5.10-dunfell-mp1-21-11-17/SDK/Smaug/frank_ta/frank_ta.c:438
     518:	4932      	ldr	r1, [pc, #200]	; (5e4 <sql_decrypt.constprop.0+0x1fc>)
     51a:	4620      	mov	r0, r4
     51c:	4479      	add	r1, pc
     51e:	f009 f9a3 	bl	9868 <strcmp>
     522:	b9d0      	cbnz	r0, 55a <sql_decrypt.constprop.0+0x172>
/home/frank/TrustSQLite/stm32mp1-openstlinux-5.10-dunfell-mp1-21-11-17/SDK/Smaug/frank_ta/frank_ta.c:439
     524:	4640      	mov	r0, r8
     526:	f009 f9aa 	bl	987e <strlen>
     52a:	4601      	mov	r1, r0
     52c:	4640      	mov	r0, r8
     52e:	f7ff fefd 	bl	32c <base64_decode>
/home/frank/TrustSQLite/stm32mp1-openstlinux-5.10-dunfell-mp1-21-11-17/SDK/Smaug/frank_ta/frank_ta.c:440
     532:	4a2d      	ldr	r2, [pc, #180]	; (5e8 <sql_decrypt.constprop.0+0x200>)
     534:	2100      	movs	r1, #0
/home/frank/TrustSQLite/stm32mp1-openstlinux-5.10-dunfell-mp1-21-11-17/SDK/Smaug/frank_ta/frank_ta.c:439
     536:	9005      	str	r0, [sp, #20]
/home/frank/TrustSQLite/stm32mp1-openstlinux-5.10-dunfell-mp1-21-11-17/SDK/Smaug/frank_ta/frank_ta.c:440
     538:	f857 8002 	ldr.w	r8, [r7, r2]
     53c:	2232      	movs	r2, #50	; 0x32
     53e:	4640      	mov	r0, r8
     540:	f009 f97d 	bl	983e <memset>
/home/frank/TrustSQLite/stm32mp1-openstlinux-5.10-dunfell-mp1-21-11-17/SDK/Smaug/frank_ta/frank_ta.c:441
     544:	4a29      	ldr	r2, [pc, #164]	; (5ec <sql_decrypt.constprop.0+0x204>)
     546:	2101      	movs	r1, #1
     548:	9804      	ldr	r0, [sp, #16]
     54a:	58bb      	ldr	r3, [r7, r2]
     54c:	9303      	str	r3, [sp, #12]
     54e:	9b05      	ldr	r3, [sp, #20]
     550:	9a03      	ldr	r2, [sp, #12]
     552:	9300      	str	r3, [sp, #0]
     554:	4643      	mov	r3, r8
     556:	f7ff fdfb 	bl	150 <aes.constprop.0>
/home/frank/TrustSQLite/stm32mp1-openstlinux-5.10-dunfell-mp1-21-11-17/SDK/Smaug/frank_ta/frank_ta.c:449
     55a:	4620      	mov	r0, r4
/home/frank/TrustSQLite/stm32mp1-openstlinux-5.10-dunfell-mp1-21-11-17/SDK/Smaug/frank_ta/frank_ta.c:456
     55c:	3601      	adds	r6, #1
/home/frank/TrustSQLite/stm32mp1-openstlinux-5.10-dunfell-mp1-21-11-17/SDK/Smaug/frank_ta/frank_ta.c:449
     55e:	f009 f98e 	bl	987e <strlen>
     562:	4602      	mov	r2, r0
     564:	4621      	mov	r1, r4
     566:	4628      	mov	r0, r5
     568:	f009 f991 	bl	988e <strncpy>
/home/frank/TrustSQLite/stm32mp1-openstlinux-5.10-dunfell-mp1-21-11-17/SDK/Smaug/frank_ta/frank_ta.c:450
     56c:	4620      	mov	r0, r4
     56e:	f009 f986 	bl	987e <strlen>
     572:	182c      	adds	r4, r5, r0
/home/frank/TrustSQLite/stm32mp1-openstlinux-5.10-dunfell-mp1-21-11-17/SDK/Smaug/frank_ta/frank_ta.c:451
     574:	233d      	movs	r3, #61	; 0x3d
     576:	542b      	strb	r3, [r5, r0]
/home/frank/TrustSQLite/stm32mp1-openstlinux-5.10-dunfell-mp1-21-11-17/SDK/Smaug/frank_ta/frank_ta.c:452
     578:	4640      	mov	r0, r8
/home/frank/TrustSQLite/stm32mp1-openstlinux-5.10-dunfell-mp1-21-11-17/SDK/Smaug/frank_ta/frank_ta.c:451
     57a:	3401      	adds	r4, #1
/home/frank/TrustSQLite/stm32mp1-openstlinux-5.10-dunfell-mp1-21-11-17/SDK/Smaug/frank_ta/frank_ta.c:452
     57c:	f009 f97f 	bl	987e <strlen>
     580:	4602      	mov	r2, r0
     582:	4641      	mov	r1, r8
     584:	4620      	mov	r0, r4
     586:	f009 f982 	bl	988e <strncpy>
/home/frank/TrustSQLite/stm32mp1-openstlinux-5.10-dunfell-mp1-21-11-17/SDK/Smaug/frank_ta/frank_ta.c:453
     58a:	4640      	mov	r0, r8
     58c:	f009 f977 	bl	987e <strlen>
     590:	1825      	adds	r5, r4, r0
/home/frank/TrustSQLite/stm32mp1-openstlinux-5.10-dunfell-mp1-21-11-17/SDK/Smaug/frank_ta/frank_ta.c:454
     592:	230a      	movs	r3, #10
     594:	5423      	strb	r3, [r4, r0]
     596:	3501      	adds	r5, #1
/home/frank/TrustSQLite/stm32mp1-openstlinux-5.10-dunfell-mp1-21-11-17/SDK/Smaug/frank_ta/frank_ta.c:456
     598:	e741      	b.n	41e <sql_decrypt.constprop.0+0x36>
     59a:	bf00      	nop
     59c:	0000bc8c 	.word	0x0000bc8c
     5a0:	0000004c 	.word	0x0000004c
     5a4:	00009b3b 	.word	0x00009b3b
     5a8:	00009b3b 	.word	0x00009b3b
     5ac:	00009b40 	.word	0x00009b40
     5b0:	00000048 	.word	0x00000048
     5b4:	00000064 	.word	0x00000064
     5b8:	0000006c 	.word	0x0000006c
     5bc:	00009abe 	.word	0x00009abe
     5c0:	00009ab4 	.word	0x00009ab4
     5c4:	00009aae 	.word	0x00009aae
     5c8:	00009aa7 	.word	0x00009aa7
     5cc:	00009a9f 	.word	0x00009a9f
     5d0:	00009a97 	.word	0x00009a97
     5d4:	00009a8f 	.word	0x00009a8f
     5d8:	00009a87 	.word	0x00009a87
     5dc:	00009a80 	.word	0x00009a80
     5e0:	00009a77 	.word	0x00009a77
     5e4:	00009a6f 	.word	0x00009a6f
     5e8:	00000040 	.word	0x00000040
     5ec:	00000018 	.word	0x00000018

000005f0 <TA_InvokeCommandEntryPoint>:
TA_InvokeCommandEntryPoint():
/home/frank/TrustSQLite/stm32mp1-openstlinux-5.10-dunfell-mp1-21-11-17/SDK/Smaug/frank_ta/frank_ta.c:787
     5f0:	e92d 4ff0 	stmdb	sp!, {r4, r5, r6, r7, r8, r9, sl, fp, lr}
     5f4:	4682      	mov	sl, r0
     5f6:	f8df 59b0 	ldr.w	r5, [pc, #2480]	; fa8 <TA_InvokeCommandEntryPoint+0x9b8>
     5fa:	b0bb      	sub	sp, #236	; 0xec
     5fc:	460c      	mov	r4, r1
     5fe:	4617      	mov	r7, r2
     600:	447d      	add	r5, pc
     602:	461e      	mov	r6, r3
     604:	2904      	cmp	r1, #4
     606:	f200 84b7 	bhi.w	f78 <TA_InvokeCommandEntryPoint+0x988>
     60a:	e8df f011 	tbh	[pc, r1, lsl #1]
     60e:	0005      	.short	0x0005
     610:	018b010c 	.word	0x018b010c
     614:	0493030d 	.word	0x0493030d
sqlite_cmd_insert_handle():
/home/frank/TrustSQLite/stm32mp1-openstlinux-5.10-dunfell-mp1-21-11-17/SDK/Smaug/frank_ta/frank_ta.c:600
     618:	f8df 1990 	ldr.w	r1, [pc, #2448]	; fac <TA_InvokeCommandEntryPoint+0x9bc>
     61c:	f10d 0840 	add.w	r8, sp, #64	; 0x40
     620:	22a8      	movs	r2, #168	; 0xa8
     622:	4640      	mov	r0, r8
     624:	4479      	add	r1, pc
     626:	f000 fd1f 	bl	1068 <memcpy>
/home/frank/TrustSQLite/stm32mp1-openstlinux-5.10-dunfell-mp1-21-11-17/SDK/Smaug/frank_ta/frank_ta.c:602
     62a:	f8df 3984 	ldr.w	r3, [pc, #2436]	; fb0 <TA_InvokeCommandEntryPoint+0x9c0>
     62e:	2203      	movs	r2, #3
     630:	f8df 0980 	ldr.w	r0, [pc, #2432]	; fb4 <TA_InvokeCommandEntryPoint+0x9c4>
     634:	f240 215a 	movw	r1, #602	; 0x25a
     638:	447b      	add	r3, pc
     63a:	4478      	add	r0, pc
     63c:	9300      	str	r3, [sp, #0]
     63e:	3043      	adds	r0, #67	; 0x43
     640:	2301      	movs	r3, #1
     642:	f000 fe23 	bl	128c <trace_printf>
/home/frank/TrustSQLite/stm32mp1-openstlinux-5.10-dunfell-mp1-21-11-17/SDK/Smaug/frank_ta/frank_ta.c:604
     646:	2f06      	cmp	r7, #6
     648:	f040 8494 	bne.w	f74 <TA_InvokeCommandEntryPoint+0x984>
/home/frank/TrustSQLite/stm32mp1-openstlinux-5.10-dunfell-mp1-21-11-17/SDK/Smaug/frank_ta/frank_ta.c:611
     64c:	a80a      	add	r0, sp, #40	; 0x28
     64e:	f001 fc1f 	bl	1e90 <TEE_GetREETime>
sql_aes():
/home/frank/TrustSQLite/stm32mp1-openstlinux-5.10-dunfell-mp1-21-11-17/SDK/Smaug/frank_ta/frank_ta.c:382
     652:	f8df 1964 	ldr.w	r1, [pc, #2404]	; fb8 <TA_InvokeCommandEntryPoint+0x9c8>
     656:	4640      	mov	r0, r8
     658:	4479      	add	r1, pc
     65a:	f009 f92b 	bl	98b4 <strstr>
/home/frank/TrustSQLite/stm32mp1-openstlinux-5.10-dunfell-mp1-21-11-17/SDK/Smaug/frank_ta/frank_ta.c:383
     65e:	f8df 395c 	ldr.w	r3, [pc, #2396]	; fbc <TA_InvokeCommandEntryPoint+0x9cc>
/home/frank/TrustSQLite/stm32mp1-openstlinux-5.10-dunfell-mp1-21-11-17/SDK/Smaug/frank_ta/frank_ta.c:382
     662:	4683      	mov	fp, r0
/home/frank/TrustSQLite/stm32mp1-openstlinux-5.10-dunfell-mp1-21-11-17/SDK/Smaug/frank_ta/frank_ta.c:384
     664:	ebab 0608 	sub.w	r6, fp, r8
/home/frank/TrustSQLite/stm32mp1-openstlinux-5.10-dunfell-mp1-21-11-17/SDK/Smaug/frank_ta/frank_ta.c:383
     668:	f44f 1280 	mov.w	r2, #1048576	; 0x100000
     66c:	f855 9003 	ldr.w	r9, [r5, r3]
     670:	2100      	movs	r1, #0
/home/frank/TrustSQLite/stm32mp1-openstlinux-5.10-dunfell-mp1-21-11-17/SDK/Smaug/frank_ta/frank_ta.c:384
     672:	3607      	adds	r6, #7
/home/frank/TrustSQLite/stm32mp1-openstlinux-5.10-dunfell-mp1-21-11-17/SDK/Smaug/frank_ta/frank_ta.c:386
     674:	f10b 0b07 	add.w	fp, fp, #7
/home/frank/TrustSQLite/stm32mp1-openstlinux-5.10-dunfell-mp1-21-11-17/SDK/Smaug/frank_ta/frank_ta.c:383
     678:	4648      	mov	r0, r9
     67a:	f009 f8e0 	bl	983e <memset>
/home/frank/TrustSQLite/stm32mp1-openstlinux-5.10-dunfell-mp1-21-11-17/SDK/Smaug/frank_ta/frank_ta.c:384
     67e:	4632      	mov	r2, r6
     680:	4641      	mov	r1, r8
/home/frank/TrustSQLite/stm32mp1-openstlinux-5.10-dunfell-mp1-21-11-17/SDK/Smaug/frank_ta/frank_ta.c:385
     682:	444e      	add	r6, r9
/home/frank/TrustSQLite/stm32mp1-openstlinux-5.10-dunfell-mp1-21-11-17/SDK/Smaug/frank_ta/frank_ta.c:384
     684:	4648      	mov	r0, r9
     686:	f009 f902 	bl	988e <strncpy>
/home/frank/TrustSQLite/stm32mp1-openstlinux-5.10-dunfell-mp1-21-11-17/SDK/Smaug/frank_ta/frank_ta.c:387
     68a:	f89b 7000 	ldrb.w	r7, [fp]
     68e:	2f00      	cmp	r7, #0
     690:	d15e      	bne.n	750 <TA_InvokeCommandEntryPoint+0x160>
sqlite_cmd_insert_handle():
/home/frank/TrustSQLite/stm32mp1-openstlinux-5.10-dunfell-mp1-21-11-17/SDK/Smaug/frank_ta/frank_ta.c:613
     692:	f8df 692c 	ldr.w	r6, [pc, #2348]	; fc0 <TA_InvokeCommandEntryPoint+0x9d0>
     696:	2202      	movs	r2, #2
     698:	f8df 3928 	ldr.w	r3, [pc, #2344]	; fc4 <TA_InvokeCommandEntryPoint+0x9d4>
     69c:	f240 2165 	movw	r1, #613	; 0x265
     6a0:	447e      	add	r6, pc
     6a2:	447b      	add	r3, pc
     6a4:	3643      	adds	r6, #67	; 0x43
     6a6:	9300      	str	r3, [sp, #0]
     6a8:	4630      	mov	r0, r6
     6aa:	f8cd 9004 	str.w	r9, [sp, #4]
     6ae:	2301      	movs	r3, #1
     6b0:	f000 fdec 	bl	128c <trace_printf>
/home/frank/TrustSQLite/stm32mp1-openstlinux-5.10-dunfell-mp1-21-11-17/SDK/Smaug/frank_ta/frank_ta.c:614
     6b4:	a80c      	add	r0, sp, #48	; 0x30
     6b6:	f001 fbeb 	bl	1e90 <TEE_GetREETime>
/home/frank/TrustSQLite/stm32mp1-openstlinux-5.10-dunfell-mp1-21-11-17/SDK/Smaug/frank_ta/frank_ta.c:615
     6ba:	9a0b      	ldr	r2, [sp, #44]	; 0x2c
     6bc:	f240 2167 	movw	r1, #615	; 0x267
     6c0:	9b0d      	ldr	r3, [sp, #52]	; 0x34
     6c2:	4630      	mov	r0, r6
     6c4:	1a9b      	subs	r3, r3, r2
     6c6:	9302      	str	r3, [sp, #8]
     6c8:	9a0a      	ldr	r2, [sp, #40]	; 0x28
     6ca:	9b0c      	ldr	r3, [sp, #48]	; 0x30
     6cc:	1a9a      	subs	r2, r3, r2
     6ce:	f44f 737a 	mov.w	r3, #1000	; 0x3e8
     6d2:	4353      	muls	r3, r2
     6d4:	2202      	movs	r2, #2
     6d6:	9301      	str	r3, [sp, #4]
     6d8:	f8df 38ec 	ldr.w	r3, [pc, #2284]	; fc8 <TA_InvokeCommandEntryPoint+0x9d8>
     6dc:	447b      	add	r3, pc
     6de:	9300      	str	r3, [sp, #0]
     6e0:	2301      	movs	r3, #1
     6e2:	f000 fdd3 	bl	128c <trace_printf>
/home/frank/TrustSQLite/stm32mp1-openstlinux-5.10-dunfell-mp1-21-11-17/SDK/Smaug/frank_ta/frank_ta.c:617
     6e6:	9b0d      	ldr	r3, [sp, #52]	; 0x34
     6e8:	2202      	movs	r2, #2
     6ea:	f240 2169 	movw	r1, #617	; 0x269
     6ee:	4630      	mov	r0, r6
     6f0:	9302      	str	r3, [sp, #8]
     6f2:	9b0c      	ldr	r3, [sp, #48]	; 0x30
     6f4:	9301      	str	r3, [sp, #4]
     6f6:	f8df 38d4 	ldr.w	r3, [pc, #2260]	; fcc <TA_InvokeCommandEntryPoint+0x9dc>
     6fa:	447b      	add	r3, pc
     6fc:	9300      	str	r3, [sp, #0]
     6fe:	2301      	movs	r3, #1
     700:	f000 fdc4 	bl	128c <trace_printf>
/home/frank/TrustSQLite/stm32mp1-openstlinux-5.10-dunfell-mp1-21-11-17/SDK/Smaug/frank_ta/frank_ta.c:618
     704:	f8df 38c8 	ldr.w	r3, [pc, #2248]	; fd0 <TA_InvokeCommandEntryPoint+0x9e0>
     708:	f44f 7280 	mov.w	r2, #256	; 0x100
     70c:	4639      	mov	r1, r7
     70e:	58ed      	ldr	r5, [r5, r3]
     710:	4628      	mov	r0, r5
     712:	f009 f894 	bl	983e <memset>
/home/frank/TrustSQLite/stm32mp1-openstlinux-5.10-dunfell-mp1-21-11-17/SDK/Smaug/frank_ta/frank_ta.c:619
     716:	4648      	mov	r0, r9
     718:	f009 f8b1 	bl	987e <strlen>
     71c:	1c41      	adds	r1, r0, #1
     71e:	f44f 1380 	mov.w	r3, #1048576	; 0x100000
     722:	462a      	mov	r2, r5
     724:	4648      	mov	r0, r9
     726:	f004 e8a0 	blx	4868 <utee_sqlite_exec>
/home/frank/TrustSQLite/stm32mp1-openstlinux-5.10-dunfell-mp1-21-11-17/SDK/Smaug/frank_ta/frank_ta.c:620
     72a:	a80e      	add	r0, sp, #56	; 0x38
     72c:	f001 fbb0 	bl	1e90 <TEE_GetREETime>
/home/frank/TrustSQLite/stm32mp1-openstlinux-5.10-dunfell-mp1-21-11-17/SDK/Smaug/frank_ta/frank_ta.c:621
     730:	9b0f      	ldr	r3, [sp, #60]	; 0x3c
     732:	2202      	movs	r2, #2
     734:	f240 216d 	movw	r1, #621	; 0x26d
     738:	9302      	str	r3, [sp, #8]
     73a:	9b0e      	ldr	r3, [sp, #56]	; 0x38
     73c:	9301      	str	r3, [sp, #4]
     73e:	f8df 3894 	ldr.w	r3, [pc, #2196]	; fd4 <TA_InvokeCommandEntryPoint+0x9e4>
     742:	447b      	add	r3, pc
     744:	9300      	str	r3, [sp, #0]
     746:	2301      	movs	r3, #1
sqlite_cmd_update_handle():
/home/frank/TrustSQLite/stm32mp1-openstlinux-5.10-dunfell-mp1-21-11-17/SDK/Smaug/frank_ta/frank_ta.c:744
     748:	4630      	mov	r0, r6
     74a:	f000 fd9f 	bl	128c <trace_printf>
/home/frank/TrustSQLite/stm32mp1-openstlinux-5.10-dunfell-mp1-21-11-17/SDK/Smaug/frank_ta/frank_ta.c:748
     74e:	e0e5      	b.n	91c <TA_InvokeCommandEntryPoint+0x32c>
sql_aes():
/home/frank/TrustSQLite/stm32mp1-openstlinux-5.10-dunfell-mp1-21-11-17/SDK/Smaug/frank_ta/frank_ta.c:388
     750:	212c      	movs	r1, #44	; 0x2c
     752:	4658      	mov	r0, fp
     754:	f009 f87b 	bl	984e <strchr>
/home/frank/TrustSQLite/stm32mp1-openstlinux-5.10-dunfell-mp1-21-11-17/SDK/Smaug/frank_ta/frank_ta.c:389
     758:	4607      	mov	r7, r0
     75a:	b920      	cbnz	r0, 766 <TA_InvokeCommandEntryPoint+0x176>
     75c:	2129      	movs	r1, #41	; 0x29
     75e:	4658      	mov	r0, fp
     760:	f009 f875 	bl	984e <strchr>
     764:	4607      	mov	r7, r0
/home/frank/TrustSQLite/stm32mp1-openstlinux-5.10-dunfell-mp1-21-11-17/SDK/Smaug/frank_ta/frank_ta.c:390
     766:	f8df 2870 	ldr.w	r2, [pc, #2160]	; fd8 <TA_InvokeCommandEntryPoint+0x9e8>
     76a:	2100      	movs	r1, #0
     76c:	f855 8002 	ldr.w	r8, [r5, r2]
     770:	2232      	movs	r2, #50	; 0x32
     772:	4640      	mov	r0, r8
     774:	f009 f863 	bl	983e <memset>
/home/frank/TrustSQLite/stm32mp1-openstlinux-5.10-dunfell-mp1-21-11-17/SDK/Smaug/frank_ta/frank_ta.c:391
     778:	1cbb      	adds	r3, r7, #2
     77a:	9305      	str	r3, [sp, #20]
     77c:	f89b 3000 	ldrb.w	r3, [fp]
     780:	9304      	str	r3, [sp, #16]
     782:	2b27      	cmp	r3, #39	; 0x27
     784:	d145      	bne.n	812 <TA_InvokeCommandEntryPoint+0x222>
/home/frank/TrustSQLite/stm32mp1-openstlinux-5.10-dunfell-mp1-21-11-17/SDK/Smaug/frank_ta/frank_ta.c:392
     786:	eba7 020b 	sub.w	r2, r7, fp
     78a:	f10b 0101 	add.w	r1, fp, #1
     78e:	3a02      	subs	r2, #2
     790:	4640      	mov	r0, r8
     792:	f009 f87c 	bl	988e <strncpy>
/home/frank/TrustSQLite/stm32mp1-openstlinux-5.10-dunfell-mp1-21-11-17/SDK/Smaug/frank_ta/frank_ta.c:393
     796:	4640      	mov	r0, r8
     798:	f009 f871 	bl	987e <strlen>
     79c:	f010 020f 	ands.w	r2, r0, #15
     7a0:	d034      	beq.n	80c <TA_InvokeCommandEntryPoint+0x21c>
/home/frank/TrustSQLite/stm32mp1-openstlinux-5.10-dunfell-mp1-21-11-17/SDK/Smaug/frank_ta/frank_ta.c:394
     7a2:	4440      	add	r0, r8
     7a4:	f1c2 0210 	rsb	r2, r2, #16
     7a8:	2106      	movs	r1, #6
     7aa:	f009 f848 	bl	983e <memset>
/home/frank/TrustSQLite/stm32mp1-openstlinux-5.10-dunfell-mp1-21-11-17/SDK/Smaug/frank_ta/frank_ta.c:395
     7ae:	9b04      	ldr	r3, [sp, #16]
/home/frank/TrustSQLite/stm32mp1-openstlinux-5.10-dunfell-mp1-21-11-17/SDK/Smaug/frank_ta/frank_ta.c:396
     7b0:	4640      	mov	r0, r8
/home/frank/TrustSQLite/stm32mp1-openstlinux-5.10-dunfell-mp1-21-11-17/SDK/Smaug/frank_ta/frank_ta.c:395
     7b2:	f806 3b01 	strb.w	r3, [r6], #1
/home/frank/TrustSQLite/stm32mp1-openstlinux-5.10-dunfell-mp1-21-11-17/SDK/Smaug/frank_ta/frank_ta.c:396
     7b6:	f009 f862 	bl	987e <strlen>
     7ba:	f8df 3820 	ldr.w	r3, [pc, #2080]	; fdc <TA_InvokeCommandEntryPoint+0x9ec>
     7be:	4642      	mov	r2, r8
     7c0:	2100      	movs	r1, #0
     7c2:	f855 b003 	ldr.w	fp, [r5, r3]
     7c6:	9000      	str	r0, [sp, #0]
     7c8:	4650      	mov	r0, sl
     7ca:	465b      	mov	r3, fp
     7cc:	f7ff fcc0 	bl	150 <aes.constprop.0>
/home/frank/TrustSQLite/stm32mp1-openstlinux-5.10-dunfell-mp1-21-11-17/SDK/Smaug/frank_ta/frank_ta.c:397
     7d0:	4640      	mov	r0, r8
     7d2:	f009 f854 	bl	987e <strlen>
     7d6:	4601      	mov	r1, r0
     7d8:	4658      	mov	r0, fp
     7da:	f7ff fd49 	bl	270 <base64_encode>
/home/frank/TrustSQLite/stm32mp1-openstlinux-5.10-dunfell-mp1-21-11-17/SDK/Smaug/frank_ta/frank_ta.c:398
     7de:	f8df 3800 	ldr.w	r3, [pc, #2048]	; fe0 <TA_InvokeCommandEntryPoint+0x9f0>
/home/frank/TrustSQLite/stm32mp1-openstlinux-5.10-dunfell-mp1-21-11-17/SDK/Smaug/frank_ta/frank_ta.c:397
     7e2:	4683      	mov	fp, r0
/home/frank/TrustSQLite/stm32mp1-openstlinux-5.10-dunfell-mp1-21-11-17/SDK/Smaug/frank_ta/frank_ta.c:399
     7e4:	eb06 080b 	add.w	r8, r6, fp
/home/frank/TrustSQLite/stm32mp1-openstlinux-5.10-dunfell-mp1-21-11-17/SDK/Smaug/frank_ta/frank_ta.c:398
     7e8:	4602      	mov	r2, r0
     7ea:	58eb      	ldr	r3, [r5, r3]
     7ec:	4630      	mov	r0, r6
     7ee:	9306      	str	r3, [sp, #24]
     7f0:	4619      	mov	r1, r3
     7f2:	f009 f84c 	bl	988e <strncpy>
/home/frank/TrustSQLite/stm32mp1-openstlinux-5.10-dunfell-mp1-21-11-17/SDK/Smaug/frank_ta/frank_ta.c:400
     7f6:	9b04      	ldr	r3, [sp, #16]
/home/frank/TrustSQLite/stm32mp1-openstlinux-5.10-dunfell-mp1-21-11-17/SDK/Smaug/frank_ta/frank_ta.c:401
     7f8:	2202      	movs	r2, #2
     7fa:	4639      	mov	r1, r7
     7fc:	f108 0001 	add.w	r0, r8, #1
/home/frank/TrustSQLite/stm32mp1-openstlinux-5.10-dunfell-mp1-21-11-17/SDK/Smaug/frank_ta/frank_ta.c:400
     800:	f806 300b 	strb.w	r3, [r6, fp]
/home/frank/TrustSQLite/stm32mp1-openstlinux-5.10-dunfell-mp1-21-11-17/SDK/Smaug/frank_ta/frank_ta.c:402
     804:	f108 0603 	add.w	r6, r8, #3
/home/frank/TrustSQLite/stm32mp1-openstlinux-5.10-dunfell-mp1-21-11-17/SDK/Smaug/frank_ta/frank_ta.c:401
     808:	f009 f841 	bl	988e <strncpy>
/home/frank/TrustSQLite/stm32mp1-openstlinux-5.10-dunfell-mp1-21-11-17/SDK/Smaug/frank_ta/frank_ta.c:409
     80c:	f8dd b014 	ldr.w	fp, [sp, #20]
     810:	e73b      	b.n	68a <TA_InvokeCommandEntryPoint+0x9a>
/home/frank/TrustSQLite/stm32mp1-openstlinux-5.10-dunfell-mp1-21-11-17/SDK/Smaug/frank_ta/frank_ta.c:406
     812:	9b05      	ldr	r3, [sp, #20]
     814:	4630      	mov	r0, r6
     816:	4659      	mov	r1, fp
     818:	eba3 070b 	sub.w	r7, r3, fp
/home/frank/TrustSQLite/stm32mp1-openstlinux-5.10-dunfell-mp1-21-11-17/SDK/Smaug/frank_ta/frank_ta.c:407
     81c:	443e      	add	r6, r7
/home/frank/TrustSQLite/stm32mp1-openstlinux-5.10-dunfell-mp1-21-11-17/SDK/Smaug/frank_ta/frank_ta.c:406
     81e:	463a      	mov	r2, r7
     820:	f009 f835 	bl	988e <strncpy>
/home/frank/TrustSQLite/stm32mp1-openstlinux-5.10-dunfell-mp1-21-11-17/SDK/Smaug/frank_ta/frank_ta.c:407
     824:	e7f2      	b.n	80c <TA_InvokeCommandEntryPoint+0x21c>
sqlite_cmd_select_handle():
/home/frank/TrustSQLite/stm32mp1-openstlinux-5.10-dunfell-mp1-21-11-17/SDK/Smaug/frank_ta/frank_ta.c:637
     826:	f8df 17bc 	ldr.w	r1, [pc, #1980]	; fe4 <TA_InvokeCommandEntryPoint+0x9f4>
     82a:	f10d 0840 	add.w	r8, sp, #64	; 0x40
/home/frank/TrustSQLite/stm32mp1-openstlinux-5.10-dunfell-mp1-21-11-17/SDK/Smaug/frank_ta/frank_ta.c:639
     82e:	f8df 47b8 	ldr.w	r4, [pc, #1976]	; fe8 <TA_InvokeCommandEntryPoint+0x9f8>
/home/frank/TrustSQLite/stm32mp1-openstlinux-5.10-dunfell-mp1-21-11-17/SDK/Smaug/frank_ta/frank_ta.c:637
     832:	221b      	movs	r2, #27
     834:	4479      	add	r1, pc
     836:	4640      	mov	r0, r8
/home/frank/TrustSQLite/stm32mp1-openstlinux-5.10-dunfell-mp1-21-11-17/SDK/Smaug/frank_ta/frank_ta.c:639
     838:	447c      	add	r4, pc
/home/frank/TrustSQLite/stm32mp1-openstlinux-5.10-dunfell-mp1-21-11-17/SDK/Smaug/frank_ta/frank_ta.c:637
     83a:	f000 fc15 	bl	1068 <memcpy>
/home/frank/TrustSQLite/stm32mp1-openstlinux-5.10-dunfell-mp1-21-11-17/SDK/Smaug/frank_ta/frank_ta.c:639
     83e:	f8df 37ac 	ldr.w	r3, [pc, #1964]	; fec <TA_InvokeCommandEntryPoint+0x9fc>
     842:	345c      	adds	r4, #92	; 0x5c
     844:	2203      	movs	r2, #3
     846:	f240 217f 	movw	r1, #639	; 0x27f
     84a:	447b      	add	r3, pc
     84c:	4620      	mov	r0, r4
     84e:	9300      	str	r3, [sp, #0]
     850:	2301      	movs	r3, #1
     852:	f000 fd1b 	bl	128c <trace_printf>
/home/frank/TrustSQLite/stm32mp1-openstlinux-5.10-dunfell-mp1-21-11-17/SDK/Smaug/frank_ta/frank_ta.c:641
     856:	2f06      	cmp	r7, #6
     858:	f040 838c 	bne.w	f74 <TA_InvokeCommandEntryPoint+0x984>
/home/frank/TrustSQLite/stm32mp1-openstlinux-5.10-dunfell-mp1-21-11-17/SDK/Smaug/frank_ta/frank_ta.c:645
     85c:	6836      	ldr	r6, [r6, #0]
/home/frank/TrustSQLite/stm32mp1-openstlinux-5.10-dunfell-mp1-21-11-17/SDK/Smaug/frank_ta/frank_ta.c:648
     85e:	a80c      	add	r0, sp, #48	; 0x30
     860:	f001 fb16 	bl	1e90 <TEE_GetREETime>
/home/frank/TrustSQLite/stm32mp1-openstlinux-5.10-dunfell-mp1-21-11-17/SDK/Smaug/frank_ta/frank_ta.c:649
     864:	9b0d      	ldr	r3, [sp, #52]	; 0x34
     866:	4620      	mov	r0, r4
     868:	2202      	movs	r2, #2
     86a:	f240 2189 	movw	r1, #649	; 0x289
     86e:	9302      	str	r3, [sp, #8]
     870:	9b0c      	ldr	r3, [sp, #48]	; 0x30
     872:	9301      	str	r3, [sp, #4]
     874:	f8df 3778 	ldr.w	r3, [pc, #1912]	; ff0 <TA_InvokeCommandEntryPoint+0xa00>
     878:	447b      	add	r3, pc
     87a:	9300      	str	r3, [sp, #0]
     87c:	2301      	movs	r3, #1
     87e:	f000 fd05 	bl	128c <trace_printf>
/home/frank/TrustSQLite/stm32mp1-openstlinux-5.10-dunfell-mp1-21-11-17/SDK/Smaug/frank_ta/frank_ta.c:650
     882:	f8df 374c 	ldr.w	r3, [pc, #1868]	; fd0 <TA_InvokeCommandEntryPoint+0x9e0>
     886:	f44f 7280 	mov.w	r2, #256	; 0x100
     88a:	2100      	movs	r1, #0
     88c:	58ef      	ldr	r7, [r5, r3]
     88e:	4638      	mov	r0, r7
     890:	f008 ffd5 	bl	983e <memset>
/home/frank/TrustSQLite/stm32mp1-openstlinux-5.10-dunfell-mp1-21-11-17/SDK/Smaug/frank_ta/frank_ta.c:651
     894:	4640      	mov	r0, r8
     896:	f008 fff2 	bl	987e <strlen>
     89a:	1c41      	adds	r1, r0, #1
     89c:	f44f 1380 	mov.w	r3, #1048576	; 0x100000
     8a0:	463a      	mov	r2, r7
     8a2:	4640      	mov	r0, r8
     8a4:	f003 efe0 	blx	4868 <utee_sqlite_exec>
/home/frank/TrustSQLite/stm32mp1-openstlinux-5.10-dunfell-mp1-21-11-17/SDK/Smaug/frank_ta/frank_ta.c:653
     8a8:	a80e      	add	r0, sp, #56	; 0x38
     8aa:	f001 faf1 	bl	1e90 <TEE_GetREETime>
/home/frank/TrustSQLite/stm32mp1-openstlinux-5.10-dunfell-mp1-21-11-17/SDK/Smaug/frank_ta/frank_ta.c:654
     8ae:	9b0f      	ldr	r3, [sp, #60]	; 0x3c
     8b0:	2202      	movs	r2, #2
     8b2:	f240 218e 	movw	r1, #654	; 0x28e
     8b6:	4620      	mov	r0, r4
     8b8:	9302      	str	r3, [sp, #8]
     8ba:	9b0e      	ldr	r3, [sp, #56]	; 0x38
     8bc:	9301      	str	r3, [sp, #4]
     8be:	f8df 3734 	ldr.w	r3, [pc, #1844]	; ff4 <TA_InvokeCommandEntryPoint+0xa04>
     8c2:	447b      	add	r3, pc
     8c4:	9300      	str	r3, [sp, #0]
     8c6:	2301      	movs	r3, #1
     8c8:	f000 fce0 	bl	128c <trace_printf>
/home/frank/TrustSQLite/stm32mp1-openstlinux-5.10-dunfell-mp1-21-11-17/SDK/Smaug/frank_ta/frank_ta.c:656
     8cc:	4650      	mov	r0, sl
     8ce:	f7ff fd8b 	bl	3e8 <sql_decrypt.constprop.0>
/home/frank/TrustSQLite/stm32mp1-openstlinux-5.10-dunfell-mp1-21-11-17/SDK/Smaug/frank_ta/frank_ta.c:657
     8d2:	a80a      	add	r0, sp, #40	; 0x28
     8d4:	f001 fadc 	bl	1e90 <TEE_GetREETime>
/home/frank/TrustSQLite/stm32mp1-openstlinux-5.10-dunfell-mp1-21-11-17/SDK/Smaug/frank_ta/frank_ta.c:658
     8d8:	9a0f      	ldr	r2, [sp, #60]	; 0x3c
     8da:	f240 2192 	movw	r1, #658	; 0x292
     8de:	9b0b      	ldr	r3, [sp, #44]	; 0x2c
     8e0:	4620      	mov	r0, r4
     8e2:	1a9b      	subs	r3, r3, r2
     8e4:	9302      	str	r3, [sp, #8]
     8e6:	9a0e      	ldr	r2, [sp, #56]	; 0x38
     8e8:	9b0a      	ldr	r3, [sp, #40]	; 0x28
     8ea:	1a9a      	subs	r2, r3, r2
     8ec:	f44f 737a 	mov.w	r3, #1000	; 0x3e8
     8f0:	4353      	muls	r3, r2
     8f2:	2202      	movs	r2, #2
     8f4:	9301      	str	r3, [sp, #4]
     8f6:	f8df 3700 	ldr.w	r3, [pc, #1792]	; ff8 <TA_InvokeCommandEntryPoint+0xa08>
     8fa:	447b      	add	r3, pc
     8fc:	9300      	str	r3, [sp, #0]
     8fe:	2301      	movs	r3, #1
     900:	f000 fcc4 	bl	128c <trace_printf>
/home/frank/TrustSQLite/stm32mp1-openstlinux-5.10-dunfell-mp1-21-11-17/SDK/Smaug/frank_ta/frank_ta.c:663
     904:	f8df 36b4 	ldr.w	r3, [pc, #1716]	; fbc <TA_InvokeCommandEntryPoint+0x9cc>
     908:	58ec      	ldr	r4, [r5, r3]
     90a:	4620      	mov	r0, r4
     90c:	f008 ffb7 	bl	987e <strlen>
     910:	4602      	mov	r2, r0
     912:	4621      	mov	r1, r4
     914:	4630      	mov	r0, r6
/home/frank/TrustSQLite/stm32mp1-openstlinux-5.10-dunfell-mp1-21-11-17/SDK/Smaug/frank_ta/frank_ta.c:666
     916:	2400      	movs	r4, #0
/home/frank/TrustSQLite/stm32mp1-openstlinux-5.10-dunfell-mp1-21-11-17/SDK/Smaug/frank_ta/frank_ta.c:663
     918:	f000 fba6 	bl	1068 <memcpy>
TA_InvokeCommandEntryPoint():
/home/frank/TrustSQLite/stm32mp1-openstlinux-5.10-dunfell-mp1-21-11-17/SDK/Smaug/frank_ta/frank_ta.c:803
     91c:	4620      	mov	r0, r4
     91e:	b03b      	add	sp, #236	; 0xec
     920:	e8bd 8ff0 	ldmia.w	sp!, {r4, r5, r6, r7, r8, r9, sl, fp, pc}
sqlite_cmd_where_handle():
/home/frank/TrustSQLite/stm32mp1-openstlinux-5.10-dunfell-mp1-21-11-17/SDK/Smaug/frank_ta/frank_ta.c:678
     924:	f8df 16d4 	ldr.w	r1, [pc, #1748]	; ffc <TA_InvokeCommandEntryPoint+0xa0c>
     928:	f10d 0840 	add.w	r8, sp, #64	; 0x40
     92c:	2267      	movs	r2, #103	; 0x67
     92e:	4640      	mov	r0, r8
     930:	4479      	add	r1, pc
     932:	f000 fb99 	bl	1068 <memcpy>
/home/frank/TrustSQLite/stm32mp1-openstlinux-5.10-dunfell-mp1-21-11-17/SDK/Smaug/frank_ta/frank_ta.c:680
     936:	f8df 36c8 	ldr.w	r3, [pc, #1736]	; 1000 <TA_InvokeCommandEntryPoint+0xa10>
     93a:	2203      	movs	r2, #3
     93c:	f8df 06c4 	ldr.w	r0, [pc, #1732]	; 1004 <TA_InvokeCommandEntryPoint+0xa14>
     940:	f44f 712a 	mov.w	r1, #680	; 0x2a8
     944:	447b      	add	r3, pc
     946:	4478      	add	r0, pc
     948:	9300      	str	r3, [sp, #0]
     94a:	3075      	adds	r0, #117	; 0x75
     94c:	2301      	movs	r3, #1
     94e:	f000 fc9d 	bl	128c <trace_printf>
/home/frank/TrustSQLite/stm32mp1-openstlinux-5.10-dunfell-mp1-21-11-17/SDK/Smaug/frank_ta/frank_ta.c:682
     952:	2f06      	cmp	r7, #6
     954:	f040 830e 	bne.w	f74 <TA_InvokeCommandEntryPoint+0x984>
/home/frank/TrustSQLite/stm32mp1-openstlinux-5.10-dunfell-mp1-21-11-17/SDK/Smaug/frank_ta/frank_ta.c:686
     958:	6833      	ldr	r3, [r6, #0]
/home/frank/TrustSQLite/stm32mp1-openstlinux-5.10-dunfell-mp1-21-11-17/SDK/Smaug/frank_ta/frank_ta.c:689
     95a:	a808      	add	r0, sp, #32
/home/frank/TrustSQLite/stm32mp1-openstlinux-5.10-dunfell-mp1-21-11-17/SDK/Smaug/frank_ta/frank_ta.c:686
     95c:	9306      	str	r3, [sp, #24]
/home/frank/TrustSQLite/stm32mp1-openstlinux-5.10-dunfell-mp1-21-11-17/SDK/Smaug/frank_ta/frank_ta.c:689
     95e:	f001 fa97 	bl	1e90 <TEE_GetREETime>
sql_where():
/home/frank/TrustSQLite/stm32mp1-openstlinux-5.10-dunfell-mp1-21-11-17/SDK/Smaug/frank_ta/frank_ta.c:472
     962:	f8df 3658 	ldr.w	r3, [pc, #1624]	; fbc <TA_InvokeCommandEntryPoint+0x9cc>
     966:	f44f 1280 	mov.w	r2, #1048576	; 0x100000
     96a:	2100      	movs	r1, #0
     96c:	58ef      	ldr	r7, [r5, r3]
     96e:	4638      	mov	r0, r7
     970:	f008 ff65 	bl	983e <memset>
/home/frank/TrustSQLite/stm32mp1-openstlinux-5.10-dunfell-mp1-21-11-17/SDK/Smaug/frank_ta/frank_ta.c:473
     974:	f8df 1690 	ldr.w	r1, [pc, #1680]	; 1008 <TA_InvokeCommandEntryPoint+0xa18>
     978:	4640      	mov	r0, r8
     97a:	4479      	add	r1, pc
     97c:	f008 ff9a 	bl	98b4 <strstr>
/home/frank/TrustSQLite/stm32mp1-openstlinux-5.10-dunfell-mp1-21-11-17/SDK/Smaug/frank_ta/frank_ta.c:474
     980:	f100 0906 	add.w	r9, r0, #6
/home/frank/TrustSQLite/stm32mp1-openstlinux-5.10-dunfell-mp1-21-11-17/SDK/Smaug/frank_ta/frank_ta.c:475
     984:	4641      	mov	r1, r8
     986:	eba9 0608 	sub.w	r6, r9, r8
     98a:	4638      	mov	r0, r7
     98c:	4632      	mov	r2, r6
/home/frank/TrustSQLite/stm32mp1-openstlinux-5.10-dunfell-mp1-21-11-17/SDK/Smaug/frank_ta/frank_ta.c:476
     98e:	443e      	add	r6, r7
/home/frank/TrustSQLite/stm32mp1-openstlinux-5.10-dunfell-mp1-21-11-17/SDK/Smaug/frank_ta/frank_ta.c:475
     990:	f008 ff7d 	bl	988e <strncpy>
/home/frank/TrustSQLite/stm32mp1-openstlinux-5.10-dunfell-mp1-21-11-17/SDK/Smaug/frank_ta/frank_ta.c:512
     994:	f8df 3674 	ldr.w	r3, [pc, #1652]	; 100c <TA_InvokeCommandEntryPoint+0xa1c>
     998:	447b      	add	r3, pc
     99a:	9307      	str	r3, [sp, #28]
/home/frank/TrustSQLite/stm32mp1-openstlinux-5.10-dunfell-mp1-21-11-17/SDK/Smaug/frank_ta/frank_ta.c:477
     99c:	f899 4000 	ldrb.w	r4, [r9]
     9a0:	2c00      	cmp	r4, #0
     9a2:	f040 8086 	bne.w	ab2 <TA_InvokeCommandEntryPoint+0x4c2>
sqlite_cmd_where_handle():
/home/frank/TrustSQLite/stm32mp1-openstlinux-5.10-dunfell-mp1-21-11-17/SDK/Smaug/frank_ta/frank_ta.c:691
     9a6:	f8df 6668 	ldr.w	r6, [pc, #1640]	; 1010 <TA_InvokeCommandEntryPoint+0xa20>
     9aa:	2202      	movs	r2, #2
     9ac:	f8df 3664 	ldr.w	r3, [pc, #1636]	; 1014 <TA_InvokeCommandEntryPoint+0xa24>
     9b0:	f240 21b3 	movw	r1, #691	; 0x2b3
     9b4:	447e      	add	r6, pc
/home/frank/TrustSQLite/stm32mp1-openstlinux-5.10-dunfell-mp1-21-11-17/SDK/Smaug/frank_ta/frank_ta.c:693
     9b6:	f44f 787a 	mov.w	r8, #1000	; 0x3e8
/home/frank/TrustSQLite/stm32mp1-openstlinux-5.10-dunfell-mp1-21-11-17/SDK/Smaug/frank_ta/frank_ta.c:691
     9ba:	447b      	add	r3, pc
     9bc:	3675      	adds	r6, #117	; 0x75
     9be:	9300      	str	r3, [sp, #0]
     9c0:	4630      	mov	r0, r6
     9c2:	9701      	str	r7, [sp, #4]
     9c4:	2301      	movs	r3, #1
     9c6:	f000 fc61 	bl	128c <trace_printf>
/home/frank/TrustSQLite/stm32mp1-openstlinux-5.10-dunfell-mp1-21-11-17/SDK/Smaug/frank_ta/frank_ta.c:692
     9ca:	a80c      	add	r0, sp, #48	; 0x30
     9cc:	f001 fa60 	bl	1e90 <TEE_GetREETime>
/home/frank/TrustSQLite/stm32mp1-openstlinux-5.10-dunfell-mp1-21-11-17/SDK/Smaug/frank_ta/frank_ta.c:693
     9d0:	9a09      	ldr	r2, [sp, #36]	; 0x24
     9d2:	4630      	mov	r0, r6
     9d4:	9b0d      	ldr	r3, [sp, #52]	; 0x34
     9d6:	f240 21b5 	movw	r1, #693	; 0x2b5
     9da:	1a9b      	subs	r3, r3, r2
     9dc:	9302      	str	r3, [sp, #8]
     9de:	9a08      	ldr	r2, [sp, #32]
     9e0:	9b0c      	ldr	r3, [sp, #48]	; 0x30
     9e2:	1a9b      	subs	r3, r3, r2
     9e4:	2202      	movs	r2, #2
     9e6:	fb08 f303 	mul.w	r3, r8, r3
     9ea:	9301      	str	r3, [sp, #4]
     9ec:	f8df 3628 	ldr.w	r3, [pc, #1576]	; 1018 <TA_InvokeCommandEntryPoint+0xa28>
     9f0:	447b      	add	r3, pc
     9f2:	9300      	str	r3, [sp, #0]
     9f4:	2301      	movs	r3, #1
     9f6:	f000 fc49 	bl	128c <trace_printf>
/home/frank/TrustSQLite/stm32mp1-openstlinux-5.10-dunfell-mp1-21-11-17/SDK/Smaug/frank_ta/frank_ta.c:695
     9fa:	9b0d      	ldr	r3, [sp, #52]	; 0x34
     9fc:	4630      	mov	r0, r6
     9fe:	2202      	movs	r2, #2
     a00:	f240 21b7 	movw	r1, #695	; 0x2b7
     a04:	9302      	str	r3, [sp, #8]
     a06:	9b0c      	ldr	r3, [sp, #48]	; 0x30
     a08:	9301      	str	r3, [sp, #4]
     a0a:	f8df 3610 	ldr.w	r3, [pc, #1552]	; 101c <TA_InvokeCommandEntryPoint+0xa2c>
     a0e:	447b      	add	r3, pc
     a10:	9300      	str	r3, [sp, #0]
     a12:	2301      	movs	r3, #1
     a14:	f000 fc3a 	bl	128c <trace_printf>
/home/frank/TrustSQLite/stm32mp1-openstlinux-5.10-dunfell-mp1-21-11-17/SDK/Smaug/frank_ta/frank_ta.c:696
     a18:	f8df 35b4 	ldr.w	r3, [pc, #1460]	; fd0 <TA_InvokeCommandEntryPoint+0x9e0>
     a1c:	4621      	mov	r1, r4
     a1e:	f44f 7280 	mov.w	r2, #256	; 0x100
     a22:	58ed      	ldr	r5, [r5, r3]
     a24:	4628      	mov	r0, r5
     a26:	f008 ff0a 	bl	983e <memset>
/home/frank/TrustSQLite/stm32mp1-openstlinux-5.10-dunfell-mp1-21-11-17/SDK/Smaug/frank_ta/frank_ta.c:697
     a2a:	4638      	mov	r0, r7
     a2c:	f008 ff27 	bl	987e <strlen>
     a30:	1c41      	adds	r1, r0, #1
     a32:	462a      	mov	r2, r5
     a34:	f44f 1380 	mov.w	r3, #1048576	; 0x100000
     a38:	4638      	mov	r0, r7
     a3a:	f003 ef16 	blx	4868 <utee_sqlite_exec>
/home/frank/TrustSQLite/stm32mp1-openstlinux-5.10-dunfell-mp1-21-11-17/SDK/Smaug/frank_ta/frank_ta.c:698
     a3e:	a80e      	add	r0, sp, #56	; 0x38
     a40:	f001 fa26 	bl	1e90 <TEE_GetREETime>
/home/frank/TrustSQLite/stm32mp1-openstlinux-5.10-dunfell-mp1-21-11-17/SDK/Smaug/frank_ta/frank_ta.c:699
     a44:	9b0f      	ldr	r3, [sp, #60]	; 0x3c
     a46:	2202      	movs	r2, #2
     a48:	4630      	mov	r0, r6
     a4a:	f240 21bb 	movw	r1, #699	; 0x2bb
     a4e:	9302      	str	r3, [sp, #8]
     a50:	9b0e      	ldr	r3, [sp, #56]	; 0x38
     a52:	9301      	str	r3, [sp, #4]
     a54:	f8df 35c8 	ldr.w	r3, [pc, #1480]	; 1020 <TA_InvokeCommandEntryPoint+0xa30>
     a58:	447b      	add	r3, pc
     a5a:	9300      	str	r3, [sp, #0]
     a5c:	2301      	movs	r3, #1
     a5e:	f000 fc15 	bl	128c <trace_printf>
/home/frank/TrustSQLite/stm32mp1-openstlinux-5.10-dunfell-mp1-21-11-17/SDK/Smaug/frank_ta/frank_ta.c:700
     a62:	2101      	movs	r1, #1
     a64:	4650      	mov	r0, sl
     a66:	f7ff fadb 	bl	20 <aes_prepare.constprop.0>
/home/frank/TrustSQLite/stm32mp1-openstlinux-5.10-dunfell-mp1-21-11-17/SDK/Smaug/frank_ta/frank_ta.c:702
     a6a:	4650      	mov	r0, sl
     a6c:	f7ff fcbc 	bl	3e8 <sql_decrypt.constprop.0>
/home/frank/TrustSQLite/stm32mp1-openstlinux-5.10-dunfell-mp1-21-11-17/SDK/Smaug/frank_ta/frank_ta.c:704
     a70:	a80a      	add	r0, sp, #40	; 0x28
     a72:	f001 fa0d 	bl	1e90 <TEE_GetREETime>
/home/frank/TrustSQLite/stm32mp1-openstlinux-5.10-dunfell-mp1-21-11-17/SDK/Smaug/frank_ta/frank_ta.c:705
     a76:	9a0f      	ldr	r2, [sp, #60]	; 0x3c
     a78:	f240 21c1 	movw	r1, #705	; 0x2c1
     a7c:	9b0b      	ldr	r3, [sp, #44]	; 0x2c
     a7e:	4630      	mov	r0, r6
     a80:	1a9b      	subs	r3, r3, r2
     a82:	9302      	str	r3, [sp, #8]
     a84:	9a0e      	ldr	r2, [sp, #56]	; 0x38
     a86:	9b0a      	ldr	r3, [sp, #40]	; 0x28
     a88:	1a9b      	subs	r3, r3, r2
     a8a:	2202      	movs	r2, #2
     a8c:	fb08 f303 	mul.w	r3, r8, r3
     a90:	9301      	str	r3, [sp, #4]
     a92:	f8df 3590 	ldr.w	r3, [pc, #1424]	; 1024 <TA_InvokeCommandEntryPoint+0xa34>
     a96:	447b      	add	r3, pc
     a98:	9300      	str	r3, [sp, #0]
     a9a:	2301      	movs	r3, #1
     a9c:	f000 fbf6 	bl	128c <trace_printf>
/home/frank/TrustSQLite/stm32mp1-openstlinux-5.10-dunfell-mp1-21-11-17/SDK/Smaug/frank_ta/frank_ta.c:709
     aa0:	4638      	mov	r0, r7
     aa2:	f008 feec 	bl	987e <strlen>
     aa6:	4602      	mov	r2, r0
     aa8:	4639      	mov	r1, r7
     aaa:	9806      	ldr	r0, [sp, #24]
     aac:	f000 fadc 	bl	1068 <memcpy>
/home/frank/TrustSQLite/stm32mp1-openstlinux-5.10-dunfell-mp1-21-11-17/SDK/Smaug/frank_ta/frank_ta.c:712
     ab0:	e734      	b.n	91c <TA_InvokeCommandEntryPoint+0x32c>
sql_where():
/home/frank/TrustSQLite/stm32mp1-openstlinux-5.10-dunfell-mp1-21-11-17/SDK/Smaug/frank_ta/frank_ta.c:478
     ab2:	213d      	movs	r1, #61	; 0x3d
     ab4:	4648      	mov	r0, r9
     ab6:	f008 feca 	bl	984e <strchr>
/home/frank/TrustSQLite/stm32mp1-openstlinux-5.10-dunfell-mp1-21-11-17/SDK/Smaug/frank_ta/frank_ta.c:479
     aba:	f8df 356c 	ldr.w	r3, [pc, #1388]	; 1028 <TA_InvokeCommandEntryPoint+0xa38>
/home/frank/TrustSQLite/stm32mp1-openstlinux-5.10-dunfell-mp1-21-11-17/SDK/Smaug/frank_ta/frank_ta.c:478
     abe:	4680      	mov	r8, r0
/home/frank/TrustSQLite/stm32mp1-openstlinux-5.10-dunfell-mp1-21-11-17/SDK/Smaug/frank_ta/frank_ta.c:479
     ac0:	2232      	movs	r2, #50	; 0x32
     ac2:	2100      	movs	r1, #0
     ac4:	58ec      	ldr	r4, [r5, r3]
     ac6:	4620      	mov	r0, r4
     ac8:	f008 feb9 	bl	983e <memset>
/home/frank/TrustSQLite/stm32mp1-openstlinux-5.10-dunfell-mp1-21-11-17/SDK/Smaug/frank_ta/frank_ta.c:480
     acc:	eba8 0209 	sub.w	r2, r8, r9
     ad0:	4649      	mov	r1, r9
     ad2:	4620      	mov	r0, r4
/home/frank/TrustSQLite/stm32mp1-openstlinux-5.10-dunfell-mp1-21-11-17/SDK/Smaug/frank_ta/frank_ta.c:484
     ad4:	f108 0901 	add.w	r9, r8, #1
/home/frank/TrustSQLite/stm32mp1-openstlinux-5.10-dunfell-mp1-21-11-17/SDK/Smaug/frank_ta/frank_ta.c:480
     ad8:	f008 fed9 	bl	988e <strncpy>
/home/frank/TrustSQLite/stm32mp1-openstlinux-5.10-dunfell-mp1-21-11-17/SDK/Smaug/frank_ta/frank_ta.c:481
     adc:	4620      	mov	r0, r4
     ade:	f008 fece 	bl	987e <strlen>
     ae2:	4602      	mov	r2, r0
     ae4:	4621      	mov	r1, r4
     ae6:	4630      	mov	r0, r6
     ae8:	f008 fed1 	bl	988e <strncpy>
/home/frank/TrustSQLite/stm32mp1-openstlinux-5.10-dunfell-mp1-21-11-17/SDK/Smaug/frank_ta/frank_ta.c:482
     aec:	4620      	mov	r0, r4
     aee:	f008 fec6 	bl	987e <strlen>
     af2:	eb06 0b00 	add.w	fp, r6, r0
/home/frank/TrustSQLite/stm32mp1-openstlinux-5.10-dunfell-mp1-21-11-17/SDK/Smaug/frank_ta/frank_ta.c:483
     af6:	f04f 033d 	mov.w	r3, #61	; 0x3d
     afa:	5433      	strb	r3, [r6, r0]
/home/frank/TrustSQLite/stm32mp1-openstlinux-5.10-dunfell-mp1-21-11-17/SDK/Smaug/frank_ta/frank_ta.c:485
     afc:	2120      	movs	r1, #32
     afe:	4648      	mov	r0, r9
     b00:	f008 fea5 	bl	984e <strchr>
/home/frank/TrustSQLite/stm32mp1-openstlinux-5.10-dunfell-mp1-21-11-17/SDK/Smaug/frank_ta/frank_ta.c:486
     b04:	f8df 24d0 	ldr.w	r2, [pc, #1232]	; fd8 <TA_InvokeCommandEntryPoint+0x9e8>
     b08:	4604      	mov	r4, r0
     b0a:	58ae      	ldr	r6, [r5, r2]
     b0c:	f8df 24cc 	ldr.w	r2, [pc, #1228]	; fdc <TA_InvokeCommandEntryPoint+0x9ec>
     b10:	f855 8002 	ldr.w	r8, [r5, r2]
     b14:	f8df 24c8 	ldr.w	r2, [pc, #1224]	; fe0 <TA_InvokeCommandEntryPoint+0x9f0>
     b18:	58ab      	ldr	r3, [r5, r2]
     b1a:	9305      	str	r3, [sp, #20]
     b1c:	2800      	cmp	r0, #0
     b1e:	d141      	bne.n	ba4 <TA_InvokeCommandEntryPoint+0x5b4>
/home/frank/TrustSQLite/stm32mp1-openstlinux-5.10-dunfell-mp1-21-11-17/SDK/Smaug/frank_ta/frank_ta.c:487
     b20:	213b      	movs	r1, #59	; 0x3b
     b22:	4648      	mov	r0, r9
     b24:	f008 fe93 	bl	984e <strchr>
     b28:	9004      	str	r0, [sp, #16]
/home/frank/TrustSQLite/stm32mp1-openstlinux-5.10-dunfell-mp1-21-11-17/SDK/Smaug/frank_ta/frank_ta.c:488
     b2a:	2232      	movs	r2, #50	; 0x32
     b2c:	4621      	mov	r1, r4
     b2e:	4630      	mov	r0, r6
     b30:	f008 fe85 	bl	983e <memset>
/home/frank/TrustSQLite/stm32mp1-openstlinux-5.10-dunfell-mp1-21-11-17/SDK/Smaug/frank_ta/frank_ta.c:489
     b34:	9b04      	ldr	r3, [sp, #16]
     b36:	4649      	mov	r1, r9
     b38:	4630      	mov	r0, r6
     b3a:	eba3 0209 	sub.w	r2, r3, r9
     b3e:	f008 fea6 	bl	988e <strncpy>
/home/frank/TrustSQLite/stm32mp1-openstlinux-5.10-dunfell-mp1-21-11-17/SDK/Smaug/frank_ta/frank_ta.c:490
     b42:	4630      	mov	r0, r6
     b44:	f008 fe9b 	bl	987e <strlen>
     b48:	f010 020f 	ands.w	r2, r0, #15
     b4c:	d005      	beq.n	b5a <TA_InvokeCommandEntryPoint+0x56a>
/home/frank/TrustSQLite/stm32mp1-openstlinux-5.10-dunfell-mp1-21-11-17/SDK/Smaug/frank_ta/frank_ta.c:491
     b4e:	4430      	add	r0, r6
     b50:	f1c2 0210 	rsb	r2, r2, #16
     b54:	2106      	movs	r1, #6
     b56:	f008 fe72 	bl	983e <memset>
/home/frank/TrustSQLite/stm32mp1-openstlinux-5.10-dunfell-mp1-21-11-17/SDK/Smaug/frank_ta/frank_ta.c:492
     b5a:	4630      	mov	r0, r6
/home/frank/TrustSQLite/stm32mp1-openstlinux-5.10-dunfell-mp1-21-11-17/SDK/Smaug/frank_ta/frank_ta.c:494
     b5c:	2427      	movs	r4, #39	; 0x27
/home/frank/TrustSQLite/stm32mp1-openstlinux-5.10-dunfell-mp1-21-11-17/SDK/Smaug/frank_ta/frank_ta.c:492
     b5e:	f008 fe8e 	bl	987e <strlen>
     b62:	9000      	str	r0, [sp, #0]
     b64:	4632      	mov	r2, r6
     b66:	4643      	mov	r3, r8
     b68:	2100      	movs	r1, #0
     b6a:	4650      	mov	r0, sl
     b6c:	f7ff faf0 	bl	150 <aes.constprop.0>
/home/frank/TrustSQLite/stm32mp1-openstlinux-5.10-dunfell-mp1-21-11-17/SDK/Smaug/frank_ta/frank_ta.c:493
     b70:	4630      	mov	r0, r6
     b72:	f008 fe84 	bl	987e <strlen>
     b76:	4601      	mov	r1, r0
     b78:	4640      	mov	r0, r8
     b7a:	f7ff fb79 	bl	270 <base64_encode>
/home/frank/TrustSQLite/stm32mp1-openstlinux-5.10-dunfell-mp1-21-11-17/SDK/Smaug/frank_ta/frank_ta.c:495
     b7e:	9905      	ldr	r1, [sp, #20]
/home/frank/TrustSQLite/stm32mp1-openstlinux-5.10-dunfell-mp1-21-11-17/SDK/Smaug/frank_ta/frank_ta.c:494
     b80:	f10b 0302 	add.w	r3, fp, #2
     b84:	f88b 4001 	strb.w	r4, [fp, #1]
/home/frank/TrustSQLite/stm32mp1-openstlinux-5.10-dunfell-mp1-21-11-17/SDK/Smaug/frank_ta/frank_ta.c:493
     b88:	4606      	mov	r6, r0
/home/frank/TrustSQLite/stm32mp1-openstlinux-5.10-dunfell-mp1-21-11-17/SDK/Smaug/frank_ta/frank_ta.c:495
     b8a:	4602      	mov	r2, r0
     b8c:	4618      	mov	r0, r3
     b8e:	f008 fe7e 	bl	988e <strncpy>
/home/frank/TrustSQLite/stm32mp1-openstlinux-5.10-dunfell-mp1-21-11-17/SDK/Smaug/frank_ta/frank_ta.c:496
     b92:	1982      	adds	r2, r0, r6
/home/frank/TrustSQLite/stm32mp1-openstlinux-5.10-dunfell-mp1-21-11-17/SDK/Smaug/frank_ta/frank_ta.c:498
     b94:	233b      	movs	r3, #59	; 0x3b
/home/frank/TrustSQLite/stm32mp1-openstlinux-5.10-dunfell-mp1-21-11-17/SDK/Smaug/frank_ta/frank_ta.c:497
     b96:	5584      	strb	r4, [r0, r6]
/home/frank/TrustSQLite/stm32mp1-openstlinux-5.10-dunfell-mp1-21-11-17/SDK/Smaug/frank_ta/frank_ta.c:498
     b98:	1c96      	adds	r6, r2, #2
     b9a:	7053      	strb	r3, [r2, #1]
/home/frank/TrustSQLite/stm32mp1-openstlinux-5.10-dunfell-mp1-21-11-17/SDK/Smaug/frank_ta/frank_ta.c:499
     b9c:	9b04      	ldr	r3, [sp, #16]
     b9e:	f103 0901 	add.w	r9, r3, #1
/home/frank/TrustSQLite/stm32mp1-openstlinux-5.10-dunfell-mp1-21-11-17/SDK/Smaug/frank_ta/frank_ta.c:500
     ba2:	e6fb      	b.n	99c <TA_InvokeCommandEntryPoint+0x3ac>
/home/frank/TrustSQLite/stm32mp1-openstlinux-5.10-dunfell-mp1-21-11-17/SDK/Smaug/frank_ta/frank_ta.c:502
     ba4:	2232      	movs	r2, #50	; 0x32
     ba6:	2100      	movs	r1, #0
     ba8:	4630      	mov	r0, r6
     baa:	f008 fe48 	bl	983e <memset>
/home/frank/TrustSQLite/stm32mp1-openstlinux-5.10-dunfell-mp1-21-11-17/SDK/Smaug/frank_ta/frank_ta.c:503
     bae:	eba4 0209 	sub.w	r2, r4, r9
     bb2:	4649      	mov	r1, r9
     bb4:	4630      	mov	r0, r6
     bb6:	f008 fe6a 	bl	988e <strncpy>
/home/frank/TrustSQLite/stm32mp1-openstlinux-5.10-dunfell-mp1-21-11-17/SDK/Smaug/frank_ta/frank_ta.c:504
     bba:	4630      	mov	r0, r6
     bbc:	f008 fe5f 	bl	987e <strlen>
     bc0:	f010 020f 	ands.w	r2, r0, #15
     bc4:	d005      	beq.n	bd2 <TA_InvokeCommandEntryPoint+0x5e2>
/home/frank/TrustSQLite/stm32mp1-openstlinux-5.10-dunfell-mp1-21-11-17/SDK/Smaug/frank_ta/frank_ta.c:505
     bc6:	4430      	add	r0, r6
     bc8:	f1c2 0210 	rsb	r2, r2, #16
     bcc:	2106      	movs	r1, #6
     bce:	f008 fe36 	bl	983e <memset>
/home/frank/TrustSQLite/stm32mp1-openstlinux-5.10-dunfell-mp1-21-11-17/SDK/Smaug/frank_ta/frank_ta.c:506
     bd2:	4630      	mov	r0, r6
     bd4:	f008 fe53 	bl	987e <strlen>
     bd8:	9000      	str	r0, [sp, #0]
     bda:	4643      	mov	r3, r8
     bdc:	4632      	mov	r2, r6
     bde:	2100      	movs	r1, #0
     be0:	4650      	mov	r0, sl
     be2:	f7ff fab5 	bl	150 <aes.constprop.0>
/home/frank/TrustSQLite/stm32mp1-openstlinux-5.10-dunfell-mp1-21-11-17/SDK/Smaug/frank_ta/frank_ta.c:507
     be6:	4630      	mov	r0, r6
/home/frank/TrustSQLite/stm32mp1-openstlinux-5.10-dunfell-mp1-21-11-17/SDK/Smaug/frank_ta/frank_ta.c:508
     be8:	2627      	movs	r6, #39	; 0x27
/home/frank/TrustSQLite/stm32mp1-openstlinux-5.10-dunfell-mp1-21-11-17/SDK/Smaug/frank_ta/frank_ta.c:507
     bea:	f008 fe48 	bl	987e <strlen>
     bee:	4601      	mov	r1, r0
     bf0:	4640      	mov	r0, r8
     bf2:	f7ff fb3d 	bl	270 <base64_encode>
/home/frank/TrustSQLite/stm32mp1-openstlinux-5.10-dunfell-mp1-21-11-17/SDK/Smaug/frank_ta/frank_ta.c:509
     bf6:	9905      	ldr	r1, [sp, #20]
/home/frank/TrustSQLite/stm32mp1-openstlinux-5.10-dunfell-mp1-21-11-17/SDK/Smaug/frank_ta/frank_ta.c:508
     bf8:	f10b 0302 	add.w	r3, fp, #2
     bfc:	f88b 6001 	strb.w	r6, [fp, #1]
/home/frank/TrustSQLite/stm32mp1-openstlinux-5.10-dunfell-mp1-21-11-17/SDK/Smaug/frank_ta/frank_ta.c:507
     c00:	4681      	mov	r9, r0
/home/frank/TrustSQLite/stm32mp1-openstlinux-5.10-dunfell-mp1-21-11-17/SDK/Smaug/frank_ta/frank_ta.c:509
     c02:	4602      	mov	r2, r0
     c04:	4618      	mov	r0, r3
     c06:	f008 fe42 	bl	988e <strncpy>
/home/frank/TrustSQLite/stm32mp1-openstlinux-5.10-dunfell-mp1-21-11-17/SDK/Smaug/frank_ta/frank_ta.c:510
     c0a:	eb00 0809 	add.w	r8, r0, r9
/home/frank/TrustSQLite/stm32mp1-openstlinux-5.10-dunfell-mp1-21-11-17/SDK/Smaug/frank_ta/frank_ta.c:512
     c0e:	2205      	movs	r2, #5
/home/frank/TrustSQLite/stm32mp1-openstlinux-5.10-dunfell-mp1-21-11-17/SDK/Smaug/frank_ta/frank_ta.c:511
     c10:	f800 6009 	strb.w	r6, [r0, r9]
/home/frank/TrustSQLite/stm32mp1-openstlinux-5.10-dunfell-mp1-21-11-17/SDK/Smaug/frank_ta/frank_ta.c:512
     c14:	f108 0001 	add.w	r0, r8, #1
     c18:	9907      	ldr	r1, [sp, #28]
/home/frank/TrustSQLite/stm32mp1-openstlinux-5.10-dunfell-mp1-21-11-17/SDK/Smaug/frank_ta/frank_ta.c:513
     c1a:	f108 0606 	add.w	r6, r8, #6
/home/frank/TrustSQLite/stm32mp1-openstlinux-5.10-dunfell-mp1-21-11-17/SDK/Smaug/frank_ta/frank_ta.c:514
     c1e:	f104 0904 	add.w	r9, r4, #4
/home/frank/TrustSQLite/stm32mp1-openstlinux-5.10-dunfell-mp1-21-11-17/SDK/Smaug/frank_ta/frank_ta.c:512
     c22:	f000 fa21 	bl	1068 <memcpy>
/home/frank/TrustSQLite/stm32mp1-openstlinux-5.10-dunfell-mp1-21-11-17/SDK/Smaug/frank_ta/frank_ta.c:514
     c26:	e6b9      	b.n	99c <TA_InvokeCommandEntryPoint+0x3ac>
sqlite_cmd_update_handle():
/home/frank/TrustSQLite/stm32mp1-openstlinux-5.10-dunfell-mp1-21-11-17/SDK/Smaug/frank_ta/frank_ta.c:723
     c28:	f8df 1400 	ldr.w	r1, [pc, #1024]	; 102c <TA_InvokeCommandEntryPoint+0xa3c>
     c2c:	ae10      	add	r6, sp, #64	; 0x40
     c2e:	2268      	movs	r2, #104	; 0x68
     c30:	4630      	mov	r0, r6
     c32:	4479      	add	r1, pc
     c34:	f000 fa18 	bl	1068 <memcpy>
/home/frank/TrustSQLite/stm32mp1-openstlinux-5.10-dunfell-mp1-21-11-17/SDK/Smaug/frank_ta/frank_ta.c:725
     c38:	4bfd      	ldr	r3, [pc, #1012]	; (1030 <TA_InvokeCommandEntryPoint+0xa40>)
     c3a:	2203      	movs	r2, #3
     c3c:	48fd      	ldr	r0, [pc, #1012]	; (1034 <TA_InvokeCommandEntryPoint+0xa44>)
     c3e:	f240 21d5 	movw	r1, #725	; 0x2d5
     c42:	447b      	add	r3, pc
     c44:	4478      	add	r0, pc
     c46:	9300      	str	r3, [sp, #0]
     c48:	308d      	adds	r0, #141	; 0x8d
     c4a:	2301      	movs	r3, #1
     c4c:	f000 fb1e 	bl	128c <trace_printf>
/home/frank/TrustSQLite/stm32mp1-openstlinux-5.10-dunfell-mp1-21-11-17/SDK/Smaug/frank_ta/frank_ta.c:727
     c50:	2f06      	cmp	r7, #6
     c52:	f040 818f 	bne.w	f74 <TA_InvokeCommandEntryPoint+0x984>
/home/frank/TrustSQLite/stm32mp1-openstlinux-5.10-dunfell-mp1-21-11-17/SDK/Smaug/frank_ta/frank_ta.c:734
     c56:	a80a      	add	r0, sp, #40	; 0x28
     c58:	f001 f91a 	bl	1e90 <TEE_GetREETime>
sql_update():
/home/frank/TrustSQLite/stm32mp1-openstlinux-5.10-dunfell-mp1-21-11-17/SDK/Smaug/frank_ta/frank_ta.c:530
     c5c:	4bd7      	ldr	r3, [pc, #860]	; (fbc <TA_InvokeCommandEntryPoint+0x9cc>)
     c5e:	f44f 1280 	mov.w	r2, #1048576	; 0x100000
     c62:	2100      	movs	r1, #0
     c64:	58eb      	ldr	r3, [r5, r3]
     c66:	9304      	str	r3, [sp, #16]
     c68:	4618      	mov	r0, r3
     c6a:	f008 fde8 	bl	983e <memset>
/home/frank/TrustSQLite/stm32mp1-openstlinux-5.10-dunfell-mp1-21-11-17/SDK/Smaug/frank_ta/frank_ta.c:531
     c6e:	49f2      	ldr	r1, [pc, #968]	; (1038 <TA_InvokeCommandEntryPoint+0xa48>)
     c70:	4630      	mov	r0, r6
     c72:	4479      	add	r1, pc
     c74:	f008 fe1e 	bl	98b4 <strstr>
/home/frank/TrustSQLite/stm32mp1-openstlinux-5.10-dunfell-mp1-21-11-17/SDK/Smaug/frank_ta/frank_ta.c:532
     c78:	1d84      	adds	r4, r0, #6
/home/frank/TrustSQLite/stm32mp1-openstlinux-5.10-dunfell-mp1-21-11-17/SDK/Smaug/frank_ta/frank_ta.c:533
     c7a:	4631      	mov	r1, r6
     c7c:	eba4 0906 	sub.w	r9, r4, r6
     c80:	9804      	ldr	r0, [sp, #16]
     c82:	464a      	mov	r2, r9
     c84:	f008 fe03 	bl	988e <strncpy>
/home/frank/TrustSQLite/stm32mp1-openstlinux-5.10-dunfell-mp1-21-11-17/SDK/Smaug/frank_ta/frank_ta.c:534
     c88:	9b04      	ldr	r3, [sp, #16]
/home/frank/TrustSQLite/stm32mp1-openstlinux-5.10-dunfell-mp1-21-11-17/SDK/Smaug/frank_ta/frank_ta.c:535
     c8a:	2120      	movs	r1, #32
     c8c:	4620      	mov	r0, r4
/home/frank/TrustSQLite/stm32mp1-openstlinux-5.10-dunfell-mp1-21-11-17/SDK/Smaug/frank_ta/frank_ta.c:534
     c8e:	444b      	add	r3, r9
     c90:	9305      	str	r3, [sp, #20]
/home/frank/TrustSQLite/stm32mp1-openstlinux-5.10-dunfell-mp1-21-11-17/SDK/Smaug/frank_ta/frank_ta.c:535
     c92:	f008 fddc 	bl	984e <strchr>
/home/frank/TrustSQLite/stm32mp1-openstlinux-5.10-dunfell-mp1-21-11-17/SDK/Smaug/frank_ta/frank_ta.c:536
     c96:	4bd0      	ldr	r3, [pc, #832]	; (fd8 <TA_InvokeCommandEntryPoint+0x9e8>)
/home/frank/TrustSQLite/stm32mp1-openstlinux-5.10-dunfell-mp1-21-11-17/SDK/Smaug/frank_ta/frank_ta.c:535
     c98:	4680      	mov	r8, r0
/home/frank/TrustSQLite/stm32mp1-openstlinux-5.10-dunfell-mp1-21-11-17/SDK/Smaug/frank_ta/frank_ta.c:536
     c9a:	2232      	movs	r2, #50	; 0x32
     c9c:	2100      	movs	r1, #0
     c9e:	58ee      	ldr	r6, [r5, r3]
     ca0:	4630      	mov	r0, r6
     ca2:	f008 fdcc 	bl	983e <memset>
/home/frank/TrustSQLite/stm32mp1-openstlinux-5.10-dunfell-mp1-21-11-17/SDK/Smaug/frank_ta/frank_ta.c:537
     ca6:	eba8 0204 	sub.w	r2, r8, r4
     caa:	4621      	mov	r1, r4
     cac:	4630      	mov	r0, r6
     cae:	f008 fdee 	bl	988e <strncpy>
/home/frank/TrustSQLite/stm32mp1-openstlinux-5.10-dunfell-mp1-21-11-17/SDK/Smaug/frank_ta/frank_ta.c:538
     cb2:	4630      	mov	r0, r6
     cb4:	f008 fde3 	bl	987e <strlen>
     cb8:	f010 020f 	ands.w	r2, r0, #15
     cbc:	d005      	beq.n	cca <TA_InvokeCommandEntryPoint+0x6da>
/home/frank/TrustSQLite/stm32mp1-openstlinux-5.10-dunfell-mp1-21-11-17/SDK/Smaug/frank_ta/frank_ta.c:539
     cbe:	4430      	add	r0, r6
     cc0:	f1c2 0210 	rsb	r2, r2, #16
     cc4:	4639      	mov	r1, r7
     cc6:	f008 fdba 	bl	983e <memset>
/home/frank/TrustSQLite/stm32mp1-openstlinux-5.10-dunfell-mp1-21-11-17/SDK/Smaug/frank_ta/frank_ta.c:540
     cca:	4630      	mov	r0, r6
     ccc:	f008 fdd7 	bl	987e <strlen>
     cd0:	4bc2      	ldr	r3, [pc, #776]	; (fdc <TA_InvokeCommandEntryPoint+0x9ec>)
     cd2:	4632      	mov	r2, r6
     cd4:	2100      	movs	r1, #0
     cd6:	f855 b003 	ldr.w	fp, [r5, r3]
     cda:	9000      	str	r0, [sp, #0]
     cdc:	4650      	mov	r0, sl
     cde:	465b      	mov	r3, fp
     ce0:	f7ff fa36 	bl	150 <aes.constprop.0>
/home/frank/TrustSQLite/stm32mp1-openstlinux-5.10-dunfell-mp1-21-11-17/SDK/Smaug/frank_ta/frank_ta.c:541
     ce4:	4630      	mov	r0, r6
     ce6:	f008 fdca 	bl	987e <strlen>
     cea:	4601      	mov	r1, r0
     cec:	4658      	mov	r0, fp
     cee:	f7ff fabf 	bl	270 <base64_encode>
/home/frank/TrustSQLite/stm32mp1-openstlinux-5.10-dunfell-mp1-21-11-17/SDK/Smaug/frank_ta/frank_ta.c:542
     cf2:	9904      	ldr	r1, [sp, #16]
/home/frank/TrustSQLite/stm32mp1-openstlinux-5.10-dunfell-mp1-21-11-17/SDK/Smaug/frank_ta/frank_ta.c:541
     cf4:	4602      	mov	r2, r0
/home/frank/TrustSQLite/stm32mp1-openstlinux-5.10-dunfell-mp1-21-11-17/SDK/Smaug/frank_ta/frank_ta.c:542
     cf6:	9b05      	ldr	r3, [sp, #20]
     cf8:	f04f 0027 	mov.w	r0, #39	; 0x27
     cfc:	f809 0001 	strb.w	r0, [r9, r1]
/home/frank/TrustSQLite/stm32mp1-openstlinux-5.10-dunfell-mp1-21-11-17/SDK/Smaug/frank_ta/frank_ta.c:543
     d00:	49b7      	ldr	r1, [pc, #732]	; (fe0 <TA_InvokeCommandEntryPoint+0x9f0>)
/home/frank/TrustSQLite/stm32mp1-openstlinux-5.10-dunfell-mp1-21-11-17/SDK/Smaug/frank_ta/frank_ta.c:542
     d02:	3301      	adds	r3, #1
/home/frank/TrustSQLite/stm32mp1-openstlinux-5.10-dunfell-mp1-21-11-17/SDK/Smaug/frank_ta/frank_ta.c:543
     d04:	4618      	mov	r0, r3
     d06:	5869      	ldr	r1, [r5, r1]
     d08:	9206      	str	r2, [sp, #24]
     d0a:	9105      	str	r1, [sp, #20]
     d0c:	f008 fdbf 	bl	988e <strncpy>
/home/frank/TrustSQLite/stm32mp1-openstlinux-5.10-dunfell-mp1-21-11-17/SDK/Smaug/frank_ta/frank_ta.c:544
     d10:	9a06      	ldr	r2, [sp, #24]
/home/frank/TrustSQLite/stm32mp1-openstlinux-5.10-dunfell-mp1-21-11-17/SDK/Smaug/frank_ta/frank_ta.c:543
     d12:	4603      	mov	r3, r0
/home/frank/TrustSQLite/stm32mp1-openstlinux-5.10-dunfell-mp1-21-11-17/SDK/Smaug/frank_ta/frank_ta.c:546
     d14:	49c9      	ldr	r1, [pc, #804]	; (103c <TA_InvokeCommandEntryPoint+0xa4c>)
/home/frank/TrustSQLite/stm32mp1-openstlinux-5.10-dunfell-mp1-21-11-17/SDK/Smaug/frank_ta/frank_ta.c:544
     d16:	1887      	adds	r7, r0, r2
/home/frank/TrustSQLite/stm32mp1-openstlinux-5.10-dunfell-mp1-21-11-17/SDK/Smaug/frank_ta/frank_ta.c:545
     d18:	f04f 0027 	mov.w	r0, #39	; 0x27
     d1c:	5498      	strb	r0, [r3, r2]
/home/frank/TrustSQLite/stm32mp1-openstlinux-5.10-dunfell-mp1-21-11-17/SDK/Smaug/frank_ta/frank_ta.c:546
     d1e:	4620      	mov	r0, r4
     d20:	4479      	add	r1, pc
/home/frank/TrustSQLite/stm32mp1-openstlinux-5.10-dunfell-mp1-21-11-17/SDK/Smaug/frank_ta/frank_ta.c:545
     d22:	3701      	adds	r7, #1
/home/frank/TrustSQLite/stm32mp1-openstlinux-5.10-dunfell-mp1-21-11-17/SDK/Smaug/frank_ta/frank_ta.c:546
     d24:	f008 fdc6 	bl	98b4 <strstr>
/home/frank/TrustSQLite/stm32mp1-openstlinux-5.10-dunfell-mp1-21-11-17/SDK/Smaug/frank_ta/frank_ta.c:547
     d28:	f100 0906 	add.w	r9, r0, #6
/home/frank/TrustSQLite/stm32mp1-openstlinux-5.10-dunfell-mp1-21-11-17/SDK/Smaug/frank_ta/frank_ta.c:548
     d2c:	4641      	mov	r1, r8
     d2e:	eba9 0408 	sub.w	r4, r9, r8
     d32:	4638      	mov	r0, r7
/home/frank/TrustSQLite/stm32mp1-openstlinux-5.10-dunfell-mp1-21-11-17/SDK/Smaug/frank_ta/frank_ta.c:549
     d34:	4427      	add	r7, r4
/home/frank/TrustSQLite/stm32mp1-openstlinux-5.10-dunfell-mp1-21-11-17/SDK/Smaug/frank_ta/frank_ta.c:548
     d36:	4622      	mov	r2, r4
     d38:	f008 fda9 	bl	988e <strncpy>
/home/frank/TrustSQLite/stm32mp1-openstlinux-5.10-dunfell-mp1-21-11-17/SDK/Smaug/frank_ta/frank_ta.c:585
     d3c:	4bc0      	ldr	r3, [pc, #768]	; (1040 <TA_InvokeCommandEntryPoint+0xa50>)
     d3e:	447b      	add	r3, pc
     d40:	9306      	str	r3, [sp, #24]
/home/frank/TrustSQLite/stm32mp1-openstlinux-5.10-dunfell-mp1-21-11-17/SDK/Smaug/frank_ta/frank_ta.c:550
     d42:	f899 4000 	ldrb.w	r4, [r9]
     d46:	2c00      	cmp	r4, #0
     d48:	d149      	bne.n	dde <TA_InvokeCommandEntryPoint+0x7ee>
sqlite_cmd_update_handle():
/home/frank/TrustSQLite/stm32mp1-openstlinux-5.10-dunfell-mp1-21-11-17/SDK/Smaug/frank_ta/frank_ta.c:738
     d4a:	4ebe      	ldr	r6, [pc, #760]	; (1044 <TA_InvokeCommandEntryPoint+0xa54>)
/home/frank/TrustSQLite/stm32mp1-openstlinux-5.10-dunfell-mp1-21-11-17/SDK/Smaug/frank_ta/frank_ta.c:737
     d4c:	a80c      	add	r0, sp, #48	; 0x30
     d4e:	f001 f89f 	bl	1e90 <TEE_GetREETime>
/home/frank/TrustSQLite/stm32mp1-openstlinux-5.10-dunfell-mp1-21-11-17/SDK/Smaug/frank_ta/frank_ta.c:738
     d52:	9a0b      	ldr	r2, [sp, #44]	; 0x2c
     d54:	f240 21e2 	movw	r1, #738	; 0x2e2
     d58:	9b0d      	ldr	r3, [sp, #52]	; 0x34
     d5a:	447e      	add	r6, pc
     d5c:	1a9b      	subs	r3, r3, r2
     d5e:	368d      	adds	r6, #141	; 0x8d
     d60:	9a0a      	ldr	r2, [sp, #40]	; 0x28
     d62:	4630      	mov	r0, r6
     d64:	9302      	str	r3, [sp, #8]
     d66:	9b0c      	ldr	r3, [sp, #48]	; 0x30
     d68:	1a9a      	subs	r2, r3, r2
     d6a:	f44f 737a 	mov.w	r3, #1000	; 0x3e8
     d6e:	4353      	muls	r3, r2
     d70:	2202      	movs	r2, #2
     d72:	9301      	str	r3, [sp, #4]
     d74:	4bb4      	ldr	r3, [pc, #720]	; (1048 <TA_InvokeCommandEntryPoint+0xa58>)
     d76:	447b      	add	r3, pc
     d78:	9300      	str	r3, [sp, #0]
     d7a:	2301      	movs	r3, #1
     d7c:	f000 fa86 	bl	128c <trace_printf>
/home/frank/TrustSQLite/stm32mp1-openstlinux-5.10-dunfell-mp1-21-11-17/SDK/Smaug/frank_ta/frank_ta.c:740
     d80:	9b0d      	ldr	r3, [sp, #52]	; 0x34
     d82:	2202      	movs	r2, #2
     d84:	f44f 7139 	mov.w	r1, #740	; 0x2e4
     d88:	4630      	mov	r0, r6
     d8a:	9302      	str	r3, [sp, #8]
     d8c:	9b0c      	ldr	r3, [sp, #48]	; 0x30
     d8e:	9301      	str	r3, [sp, #4]
     d90:	4bae      	ldr	r3, [pc, #696]	; (104c <TA_InvokeCommandEntryPoint+0xa5c>)
     d92:	447b      	add	r3, pc
     d94:	9300      	str	r3, [sp, #0]
     d96:	2301      	movs	r3, #1
     d98:	f000 fa78 	bl	128c <trace_printf>
/home/frank/TrustSQLite/stm32mp1-openstlinux-5.10-dunfell-mp1-21-11-17/SDK/Smaug/frank_ta/frank_ta.c:741
     d9c:	4b8c      	ldr	r3, [pc, #560]	; (fd0 <TA_InvokeCommandEntryPoint+0x9e0>)
     d9e:	f44f 7280 	mov.w	r2, #256	; 0x100
     da2:	4621      	mov	r1, r4
     da4:	58ed      	ldr	r5, [r5, r3]
     da6:	4628      	mov	r0, r5
     da8:	f008 fd49 	bl	983e <memset>
/home/frank/TrustSQLite/stm32mp1-openstlinux-5.10-dunfell-mp1-21-11-17/SDK/Smaug/frank_ta/frank_ta.c:742
     dac:	9804      	ldr	r0, [sp, #16]
     dae:	f008 fd66 	bl	987e <strlen>
     db2:	1c41      	adds	r1, r0, #1
     db4:	f44f 1380 	mov.w	r3, #1048576	; 0x100000
     db8:	9804      	ldr	r0, [sp, #16]
     dba:	462a      	mov	r2, r5
     dbc:	f003 ed54 	blx	4868 <utee_sqlite_exec>
/home/frank/TrustSQLite/stm32mp1-openstlinux-5.10-dunfell-mp1-21-11-17/SDK/Smaug/frank_ta/frank_ta.c:743
     dc0:	a80e      	add	r0, sp, #56	; 0x38
     dc2:	f001 f865 	bl	1e90 <TEE_GetREETime>
/home/frank/TrustSQLite/stm32mp1-openstlinux-5.10-dunfell-mp1-21-11-17/SDK/Smaug/frank_ta/frank_ta.c:744
     dc6:	9b0f      	ldr	r3, [sp, #60]	; 0x3c
     dc8:	2202      	movs	r2, #2
     dca:	f44f 713a 	mov.w	r1, #744	; 0x2e8
     dce:	9302      	str	r3, [sp, #8]
     dd0:	9b0e      	ldr	r3, [sp, #56]	; 0x38
     dd2:	9301      	str	r3, [sp, #4]
     dd4:	4b9e      	ldr	r3, [pc, #632]	; (1050 <TA_InvokeCommandEntryPoint+0xa60>)
     dd6:	447b      	add	r3, pc
     dd8:	9300      	str	r3, [sp, #0]
     dda:	2301      	movs	r3, #1
     ddc:	e4b4      	b.n	748 <TA_InvokeCommandEntryPoint+0x158>
sql_update():
/home/frank/TrustSQLite/stm32mp1-openstlinux-5.10-dunfell-mp1-21-11-17/SDK/Smaug/frank_ta/frank_ta.c:551
     dde:	213d      	movs	r1, #61	; 0x3d
     de0:	4648      	mov	r0, r9
     de2:	f008 fd34 	bl	984e <strchr>
/home/frank/TrustSQLite/stm32mp1-openstlinux-5.10-dunfell-mp1-21-11-17/SDK/Smaug/frank_ta/frank_ta.c:552
     de6:	4b90      	ldr	r3, [pc, #576]	; (1028 <TA_InvokeCommandEntryPoint+0xa38>)
/home/frank/TrustSQLite/stm32mp1-openstlinux-5.10-dunfell-mp1-21-11-17/SDK/Smaug/frank_ta/frank_ta.c:551
     de8:	4604      	mov	r4, r0
/home/frank/TrustSQLite/stm32mp1-openstlinux-5.10-dunfell-mp1-21-11-17/SDK/Smaug/frank_ta/frank_ta.c:552
     dea:	2232      	movs	r2, #50	; 0x32
     dec:	2100      	movs	r1, #0
     dee:	f855 8003 	ldr.w	r8, [r5, r3]
     df2:	4640      	mov	r0, r8
     df4:	f008 fd23 	bl	983e <memset>
/home/frank/TrustSQLite/stm32mp1-openstlinux-5.10-dunfell-mp1-21-11-17/SDK/Smaug/frank_ta/frank_ta.c:553
     df8:	eba4 0209 	sub.w	r2, r4, r9
     dfc:	4649      	mov	r1, r9
     dfe:	4640      	mov	r0, r8
     e00:	f008 fd45 	bl	988e <strncpy>
/home/frank/TrustSQLite/stm32mp1-openstlinux-5.10-dunfell-mp1-21-11-17/SDK/Smaug/frank_ta/frank_ta.c:554
     e04:	4640      	mov	r0, r8
     e06:	f008 fd3a 	bl	987e <strlen>
     e0a:	4602      	mov	r2, r0
     e0c:	4641      	mov	r1, r8
     e0e:	4638      	mov	r0, r7
     e10:	f008 fd3d 	bl	988e <strncpy>
/home/frank/TrustSQLite/stm32mp1-openstlinux-5.10-dunfell-mp1-21-11-17/SDK/Smaug/frank_ta/frank_ta.c:555
     e14:	4640      	mov	r0, r8
     e16:	f008 fd32 	bl	987e <strlen>
     e1a:	eb07 0800 	add.w	r8, r7, r0
/home/frank/TrustSQLite/stm32mp1-openstlinux-5.10-dunfell-mp1-21-11-17/SDK/Smaug/frank_ta/frank_ta.c:556
     e1e:	f04f 033d 	mov.w	r3, #61	; 0x3d
     e22:	543b      	strb	r3, [r7, r0]
/home/frank/TrustSQLite/stm32mp1-openstlinux-5.10-dunfell-mp1-21-11-17/SDK/Smaug/frank_ta/frank_ta.c:557
     e24:	1c67      	adds	r7, r4, #1
/home/frank/TrustSQLite/stm32mp1-openstlinux-5.10-dunfell-mp1-21-11-17/SDK/Smaug/frank_ta/frank_ta.c:558
     e26:	2120      	movs	r1, #32
     e28:	4638      	mov	r0, r7
     e2a:	f008 fd10 	bl	984e <strchr>
/home/frank/TrustSQLite/stm32mp1-openstlinux-5.10-dunfell-mp1-21-11-17/SDK/Smaug/frank_ta/frank_ta.c:559
     e2e:	4604      	mov	r4, r0
     e30:	2800      	cmp	r0, #0
     e32:	d13f      	bne.n	eb4 <TA_InvokeCommandEntryPoint+0x8c4>
/home/frank/TrustSQLite/stm32mp1-openstlinux-5.10-dunfell-mp1-21-11-17/SDK/Smaug/frank_ta/frank_ta.c:560
     e34:	213b      	movs	r1, #59	; 0x3b
     e36:	4638      	mov	r0, r7
     e38:	f008 fd09 	bl	984e <strchr>
     e3c:	4681      	mov	r9, r0
/home/frank/TrustSQLite/stm32mp1-openstlinux-5.10-dunfell-mp1-21-11-17/SDK/Smaug/frank_ta/frank_ta.c:561
     e3e:	2232      	movs	r2, #50	; 0x32
     e40:	4621      	mov	r1, r4
     e42:	4630      	mov	r0, r6
     e44:	f008 fcfb 	bl	983e <memset>
/home/frank/TrustSQLite/stm32mp1-openstlinux-5.10-dunfell-mp1-21-11-17/SDK/Smaug/frank_ta/frank_ta.c:562
     e48:	eba9 0207 	sub.w	r2, r9, r7
     e4c:	4639      	mov	r1, r7
     e4e:	4630      	mov	r0, r6
     e50:	f008 fd1d 	bl	988e <strncpy>
/home/frank/TrustSQLite/stm32mp1-openstlinux-5.10-dunfell-mp1-21-11-17/SDK/Smaug/frank_ta/frank_ta.c:563
     e54:	4630      	mov	r0, r6
     e56:	f008 fd12 	bl	987e <strlen>
     e5a:	f010 020f 	ands.w	r2, r0, #15
     e5e:	d005      	beq.n	e6c <TA_InvokeCommandEntryPoint+0x87c>
/home/frank/TrustSQLite/stm32mp1-openstlinux-5.10-dunfell-mp1-21-11-17/SDK/Smaug/frank_ta/frank_ta.c:564
     e60:	4430      	add	r0, r6
     e62:	f1c2 0210 	rsb	r2, r2, #16
     e66:	2106      	movs	r1, #6
     e68:	f008 fce9 	bl	983e <memset>
/home/frank/TrustSQLite/stm32mp1-openstlinux-5.10-dunfell-mp1-21-11-17/SDK/Smaug/frank_ta/frank_ta.c:565
     e6c:	4630      	mov	r0, r6
/home/frank/TrustSQLite/stm32mp1-openstlinux-5.10-dunfell-mp1-21-11-17/SDK/Smaug/frank_ta/frank_ta.c:567
     e6e:	2427      	movs	r4, #39	; 0x27
/home/frank/TrustSQLite/stm32mp1-openstlinux-5.10-dunfell-mp1-21-11-17/SDK/Smaug/frank_ta/frank_ta.c:572
     e70:	f109 0901 	add.w	r9, r9, #1
/home/frank/TrustSQLite/stm32mp1-openstlinux-5.10-dunfell-mp1-21-11-17/SDK/Smaug/frank_ta/frank_ta.c:565
     e74:	f008 fd03 	bl	987e <strlen>
     e78:	9000      	str	r0, [sp, #0]
     e7a:	465b      	mov	r3, fp
     e7c:	4632      	mov	r2, r6
     e7e:	2100      	movs	r1, #0
     e80:	4650      	mov	r0, sl
     e82:	f7ff f965 	bl	150 <aes.constprop.0>
/home/frank/TrustSQLite/stm32mp1-openstlinux-5.10-dunfell-mp1-21-11-17/SDK/Smaug/frank_ta/frank_ta.c:566
     e86:	4630      	mov	r0, r6
     e88:	f008 fcf9 	bl	987e <strlen>
     e8c:	4601      	mov	r1, r0
     e8e:	4658      	mov	r0, fp
     e90:	f7ff f9ee 	bl	270 <base64_encode>
/home/frank/TrustSQLite/stm32mp1-openstlinux-5.10-dunfell-mp1-21-11-17/SDK/Smaug/frank_ta/frank_ta.c:568
     e94:	9905      	ldr	r1, [sp, #20]
/home/frank/TrustSQLite/stm32mp1-openstlinux-5.10-dunfell-mp1-21-11-17/SDK/Smaug/frank_ta/frank_ta.c:567
     e96:	f108 0302 	add.w	r3, r8, #2
     e9a:	f888 4001 	strb.w	r4, [r8, #1]
/home/frank/TrustSQLite/stm32mp1-openstlinux-5.10-dunfell-mp1-21-11-17/SDK/Smaug/frank_ta/frank_ta.c:566
     e9e:	4607      	mov	r7, r0
/home/frank/TrustSQLite/stm32mp1-openstlinux-5.10-dunfell-mp1-21-11-17/SDK/Smaug/frank_ta/frank_ta.c:568
     ea0:	4602      	mov	r2, r0
     ea2:	4618      	mov	r0, r3
     ea4:	f008 fcf3 	bl	988e <strncpy>
/home/frank/TrustSQLite/stm32mp1-openstlinux-5.10-dunfell-mp1-21-11-17/SDK/Smaug/frank_ta/frank_ta.c:569
     ea8:	19c2      	adds	r2, r0, r7
/home/frank/TrustSQLite/stm32mp1-openstlinux-5.10-dunfell-mp1-21-11-17/SDK/Smaug/frank_ta/frank_ta.c:571
     eaa:	233b      	movs	r3, #59	; 0x3b
/home/frank/TrustSQLite/stm32mp1-openstlinux-5.10-dunfell-mp1-21-11-17/SDK/Smaug/frank_ta/frank_ta.c:570
     eac:	55c4      	strb	r4, [r0, r7]
/home/frank/TrustSQLite/stm32mp1-openstlinux-5.10-dunfell-mp1-21-11-17/SDK/Smaug/frank_ta/frank_ta.c:571
     eae:	1c97      	adds	r7, r2, #2
     eb0:	7053      	strb	r3, [r2, #1]
/home/frank/TrustSQLite/stm32mp1-openstlinux-5.10-dunfell-mp1-21-11-17/SDK/Smaug/frank_ta/frank_ta.c:573
     eb2:	e746      	b.n	d42 <TA_InvokeCommandEntryPoint+0x752>
/home/frank/TrustSQLite/stm32mp1-openstlinux-5.10-dunfell-mp1-21-11-17/SDK/Smaug/frank_ta/frank_ta.c:575
     eb4:	2232      	movs	r2, #50	; 0x32
     eb6:	2100      	movs	r1, #0
     eb8:	4630      	mov	r0, r6
     eba:	f008 fcc0 	bl	983e <memset>
/home/frank/TrustSQLite/stm32mp1-openstlinux-5.10-dunfell-mp1-21-11-17/SDK/Smaug/frank_ta/frank_ta.c:576
     ebe:	1be2      	subs	r2, r4, r7
     ec0:	4639      	mov	r1, r7
     ec2:	4630      	mov	r0, r6
     ec4:	f008 fce3 	bl	988e <strncpy>
/home/frank/TrustSQLite/stm32mp1-openstlinux-5.10-dunfell-mp1-21-11-17/SDK/Smaug/frank_ta/frank_ta.c:577
     ec8:	4630      	mov	r0, r6
     eca:	f008 fcd8 	bl	987e <strlen>
     ece:	f010 020f 	ands.w	r2, r0, #15
     ed2:	d005      	beq.n	ee0 <TA_InvokeCommandEntryPoint+0x8f0>
/home/frank/TrustSQLite/stm32mp1-openstlinux-5.10-dunfell-mp1-21-11-17/SDK/Smaug/frank_ta/frank_ta.c:578
     ed4:	4430      	add	r0, r6
     ed6:	f1c2 0210 	rsb	r2, r2, #16
     eda:	2106      	movs	r1, #6
     edc:	f008 fcaf 	bl	983e <memset>
/home/frank/TrustSQLite/stm32mp1-openstlinux-5.10-dunfell-mp1-21-11-17/SDK/Smaug/frank_ta/frank_ta.c:579
     ee0:	4630      	mov	r0, r6
/home/frank/TrustSQLite/stm32mp1-openstlinux-5.10-dunfell-mp1-21-11-17/SDK/Smaug/frank_ta/frank_ta.c:581
     ee2:	f04f 0927 	mov.w	r9, #39	; 0x27
/home/frank/TrustSQLite/stm32mp1-openstlinux-5.10-dunfell-mp1-21-11-17/SDK/Smaug/frank_ta/frank_ta.c:579
     ee6:	f008 fcca 	bl	987e <strlen>
     eea:	9000      	str	r0, [sp, #0]
     eec:	465b      	mov	r3, fp
     eee:	4632      	mov	r2, r6
     ef0:	2100      	movs	r1, #0
     ef2:	4650      	mov	r0, sl
     ef4:	f7ff f92c 	bl	150 <aes.constprop.0>
/home/frank/TrustSQLite/stm32mp1-openstlinux-5.10-dunfell-mp1-21-11-17/SDK/Smaug/frank_ta/frank_ta.c:580
     ef8:	4630      	mov	r0, r6
     efa:	f008 fcc0 	bl	987e <strlen>
     efe:	4601      	mov	r1, r0
     f00:	4658      	mov	r0, fp
     f02:	f7ff f9b5 	bl	270 <base64_encode>
/home/frank/TrustSQLite/stm32mp1-openstlinux-5.10-dunfell-mp1-21-11-17/SDK/Smaug/frank_ta/frank_ta.c:582
     f06:	9007      	str	r0, [sp, #28]
/home/frank/TrustSQLite/stm32mp1-openstlinux-5.10-dunfell-mp1-21-11-17/SDK/Smaug/frank_ta/frank_ta.c:581
     f08:	f108 0302 	add.w	r3, r8, #2
/home/frank/TrustSQLite/stm32mp1-openstlinux-5.10-dunfell-mp1-21-11-17/SDK/Smaug/frank_ta/frank_ta.c:582
     f0c:	9905      	ldr	r1, [sp, #20]
/home/frank/TrustSQLite/stm32mp1-openstlinux-5.10-dunfell-mp1-21-11-17/SDK/Smaug/frank_ta/frank_ta.c:580
     f0e:	4602      	mov	r2, r0
/home/frank/TrustSQLite/stm32mp1-openstlinux-5.10-dunfell-mp1-21-11-17/SDK/Smaug/frank_ta/frank_ta.c:581
     f10:	f888 9001 	strb.w	r9, [r8, #1]
/home/frank/TrustSQLite/stm32mp1-openstlinux-5.10-dunfell-mp1-21-11-17/SDK/Smaug/frank_ta/frank_ta.c:582
     f14:	4618      	mov	r0, r3
     f16:	f008 fcba 	bl	988e <strncpy>
/home/frank/TrustSQLite/stm32mp1-openstlinux-5.10-dunfell-mp1-21-11-17/SDK/Smaug/frank_ta/frank_ta.c:583
     f1a:	9a07      	ldr	r2, [sp, #28]
/home/frank/TrustSQLite/stm32mp1-openstlinux-5.10-dunfell-mp1-21-11-17/SDK/Smaug/frank_ta/frank_ta.c:585
     f1c:	9906      	ldr	r1, [sp, #24]
/home/frank/TrustSQLite/stm32mp1-openstlinux-5.10-dunfell-mp1-21-11-17/SDK/Smaug/frank_ta/frank_ta.c:583
     f1e:	1887      	adds	r7, r0, r2
/home/frank/TrustSQLite/stm32mp1-openstlinux-5.10-dunfell-mp1-21-11-17/SDK/Smaug/frank_ta/frank_ta.c:584
     f20:	f800 9002 	strb.w	r9, [r0, r2]
/home/frank/TrustSQLite/stm32mp1-openstlinux-5.10-dunfell-mp1-21-11-17/SDK/Smaug/frank_ta/frank_ta.c:585
     f24:	1c78      	adds	r0, r7, #1
     f26:	2205      	movs	r2, #5
/home/frank/TrustSQLite/stm32mp1-openstlinux-5.10-dunfell-mp1-21-11-17/SDK/Smaug/frank_ta/frank_ta.c:586
     f28:	3706      	adds	r7, #6
/home/frank/TrustSQLite/stm32mp1-openstlinux-5.10-dunfell-mp1-21-11-17/SDK/Smaug/frank_ta/frank_ta.c:587
     f2a:	f104 0904 	add.w	r9, r4, #4
/home/frank/TrustSQLite/stm32mp1-openstlinux-5.10-dunfell-mp1-21-11-17/SDK/Smaug/frank_ta/frank_ta.c:585
     f2e:	f000 f89b 	bl	1068 <memcpy>
/home/frank/TrustSQLite/stm32mp1-openstlinux-5.10-dunfell-mp1-21-11-17/SDK/Smaug/frank_ta/frank_ta.c:587
     f32:	e706      	b.n	d42 <TA_InvokeCommandEntryPoint+0x752>
sqlite_cmd_ope_handle():
/home/frank/TrustSQLite/stm32mp1-openstlinux-5.10-dunfell-mp1-21-11-17/SDK/Smaug/frank_ta/frank_ta.c:761
     f34:	4b47      	ldr	r3, [pc, #284]	; (1054 <TA_InvokeCommandEntryPoint+0xa64>)
/home/frank/TrustSQLite/stm32mp1-openstlinux-5.10-dunfell-mp1-21-11-17/SDK/Smaug/frank_ta/frank_ta.c:758
     f36:	2400      	movs	r4, #0
/home/frank/TrustSQLite/stm32mp1-openstlinux-5.10-dunfell-mp1-21-11-17/SDK/Smaug/frank_ta/frank_ta.c:761
     f38:	4847      	ldr	r0, [pc, #284]	; (1058 <TA_InvokeCommandEntryPoint+0xa68>)
     f3a:	2203      	movs	r2, #3
     f3c:	447b      	add	r3, pc
     f3e:	f240 21f9 	movw	r1, #761	; 0x2f9
     f42:	4478      	add	r0, pc
     f44:	9300      	str	r3, [sp, #0]
     f46:	30a6      	adds	r0, #166	; 0xa6
/home/frank/TrustSQLite/stm32mp1-openstlinux-5.10-dunfell-mp1-21-11-17/SDK/Smaug/frank_ta/frank_ta.c:758
     f48:	9410      	str	r4, [sp, #64]	; 0x40
/home/frank/TrustSQLite/stm32mp1-openstlinux-5.10-dunfell-mp1-21-11-17/SDK/Smaug/frank_ta/frank_ta.c:761
     f4a:	2301      	movs	r3, #1
     f4c:	f000 f99e 	bl	128c <trace_printf>
/home/frank/TrustSQLite/stm32mp1-openstlinux-5.10-dunfell-mp1-21-11-17/SDK/Smaug/frank_ta/frank_ta.c:762
     f50:	2f06      	cmp	r7, #6
     f52:	d10f      	bne.n	f74 <TA_InvokeCommandEntryPoint+0x984>
/home/frank/TrustSQLite/stm32mp1-openstlinux-5.10-dunfell-mp1-21-11-17/SDK/Smaug/frank_ta/frank_ta.c:766
     f54:	6835      	ldr	r5, [r6, #0]
/home/frank/TrustSQLite/stm32mp1-openstlinux-5.10-dunfell-mp1-21-11-17/SDK/Smaug/frank_ta/frank_ta.c:777
     f56:	2104      	movs	r1, #4
     f58:	a810      	add	r0, sp, #64	; 0x40
     f5a:	f003 f817 	bl	3f8c <TEE_GenerateRandom>
/home/frank/TrustSQLite/stm32mp1-openstlinux-5.10-dunfell-mp1-21-11-17/SDK/Smaug/frank_ta/frank_ta.c:778
     f5e:	eddd 7a10 	vldr	s15, [sp, #64]	; 0x40
     f62:	eddf 1b0d 	vldr	d17, [pc, #52]	; f98 <TA_InvokeCommandEntryPoint+0x9a8>
     f66:	eef8 0b67 	vcvt.f64.u32	d16, s15
     f6a:	ee60 0ba1 	vmul.f64	d16, d16, d17
     f6e:	edc5 0b00 	vstr	d16, [r5]
/home/frank/TrustSQLite/stm32mp1-openstlinux-5.10-dunfell-mp1-21-11-17/SDK/Smaug/frank_ta/frank_ta.c:780
     f72:	e4d3      	b.n	91c <TA_InvokeCommandEntryPoint+0x32c>
/home/frank/TrustSQLite/stm32mp1-openstlinux-5.10-dunfell-mp1-21-11-17/SDK/Smaug/frank_ta/frank_ta.c:763
     f74:	4c0a      	ldr	r4, [pc, #40]	; (fa0 <TA_InvokeCommandEntryPoint+0x9b0>)
TA_InvokeCommandEntryPoint():
/home/frank/TrustSQLite/stm32mp1-openstlinux-5.10-dunfell-mp1-21-11-17/SDK/Smaug/frank_ta/frank_ta.c:798
     f76:	e4d1      	b.n	91c <TA_InvokeCommandEntryPoint+0x32c>
/home/frank/TrustSQLite/stm32mp1-openstlinux-5.10-dunfell-mp1-21-11-17/SDK/Smaug/frank_ta/frank_ta.c:800
     f78:	4b38      	ldr	r3, [pc, #224]	; (105c <TA_InvokeCommandEntryPoint+0xa6c>)
     f7a:	4839      	ldr	r0, [pc, #228]	; (1060 <TA_InvokeCommandEntryPoint+0xa70>)
     f7c:	447b      	add	r3, pc
     f7e:	9300      	str	r3, [sp, #0]
     f80:	2301      	movs	r3, #1
     f82:	4478      	add	r0, pc
     f84:	461a      	mov	r2, r3
     f86:	9101      	str	r1, [sp, #4]
     f88:	30bc      	adds	r0, #188	; 0xbc
/home/frank/TrustSQLite/stm32mp1-openstlinux-5.10-dunfell-mp1-21-11-17/SDK/Smaug/frank_ta/frank_ta.c:801
     f8a:	4c06      	ldr	r4, [pc, #24]	; (fa4 <TA_InvokeCommandEntryPoint+0x9b4>)
/home/frank/TrustSQLite/stm32mp1-openstlinux-5.10-dunfell-mp1-21-11-17/SDK/Smaug/frank_ta/frank_ta.c:800
     f8c:	f44f 7148 	mov.w	r1, #800	; 0x320
     f90:	f000 f97c 	bl	128c <trace_printf>
/home/frank/TrustSQLite/stm32mp1-openstlinux-5.10-dunfell-mp1-21-11-17/SDK/Smaug/frank_ta/frank_ta.c:801
     f94:	e4c2      	b.n	91c <TA_InvokeCommandEntryPoint+0x32c>
     f96:	bf00      	nop
     f98:	00000000 	.word	0x00000000
     f9c:	3df00000 	.word	0x3df00000
     fa0:	ffff0006 	.word	0xffff0006
     fa4:	ffff000a 	.word	0xffff000a
     fa8:	0000ba84 	.word	0x0000ba84
     fac:	00009a30 	.word	0x00009a30
     fb0:	00009955 	.word	0x00009955
     fb4:	00009bed 	.word	0x00009bed
     fb8:	00009945 	.word	0x00009945
     fbc:	0000004c 	.word	0x0000004c
     fc0:	00009b87 	.word	0x00009b87
     fc4:	00009902 	.word	0x00009902
     fc8:	000098df 	.word	0x000098df
     fcc:	000098d1 	.word	0x000098d1
     fd0:	00000048 	.word	0x00000048
     fd4:	000098ac 	.word	0x000098ac
     fd8:	0000006c 	.word	0x0000006c
     fdc:	00000058 	.word	0x00000058
     fe0:	00000018 	.word	0x00000018
     fe4:	000098c8 	.word	0x000098c8
     fe8:	000099ef 	.word	0x000099ef
     fec:	00009743 	.word	0x00009743
     ff0:	00009753 	.word	0x00009753
     ff4:	0000972c 	.word	0x0000972c
     ff8:	00009715 	.word	0x00009715
     ffc:	000097e7 	.word	0x000097e7
    1000:	00009649 	.word	0x00009649
    1004:	000098e1 	.word	0x000098e1
    1008:	000096a5 	.word	0x000096a5
    100c:	0000968e 	.word	0x0000968e
    1010:	00009873 	.word	0x00009873
    1014:	000095ea 	.word	0x000095ea
    1018:	000095cb 	.word	0x000095cb
    101c:	000095bd 	.word	0x000095bd
    1020:	00009596 	.word	0x00009596
    1024:	00009579 	.word	0x00009579
    1028:	00000064 	.word	0x00000064
    102c:	0000954c 	.word	0x0000954c
    1030:	0000934b 	.word	0x0000934b
    1034:	000095e3 	.word	0x000095e3
    1038:	000093ba 	.word	0x000093ba
    103c:	000092ff 	.word	0x000092ff
    1040:	000092e8 	.word	0x000092e8
    1044:	000094cd 	.word	0x000094cd
    1048:	00009245 	.word	0x00009245
    104c:	00009239 	.word	0x00009239
    1050:	00009218 	.word	0x00009218
    1054:	00009051 	.word	0x00009051
    1058:	000092e5 	.word	0x000092e5
    105c:	000090b7 	.word	0x000090b7
    1060:	000092a5 	.word	0x000092a5

00001064 <__ta_entry>:
__ta_entry():
/home/frank/TrustSQLite/stm32mp1-openstlinux-5.10-dunfell-mp1-21-11-17/SDK/sysroots/cortexa7t2hf-neon-vfpv4-ostl-linux-gnueabi/usr/include/optee/export-user_ta/src/ta_entry_a32.S:20
    1064:	fa0021f1 	blx	9830 <__ta_entry_c>

00001068 <memcpy>:
memcpy():
/home/frank/TrustSQLite/stm32mp1-openstlinux-5.10-dunfell-mp1-21-11-17/sources/arm-ostl-linux-gnueabi/optee-os-stm32mp-3.12.0-stm32mp-r2-r0/optee-os-stm32mp-3.12.0-stm32mp-r2/lib/libutils/isoc/newlib/memcpy.c:106
    1068:	2a0f      	cmp	r2, #15
/home/frank/TrustSQLite/stm32mp1-openstlinux-5.10-dunfell-mp1-21-11-17/sources/arm-ostl-linux-gnueabi/optee-os-stm32mp-3.12.0-stm32mp-r2-r0/optee-os-stm32mp-3.12.0-stm32mp-r2/lib/libutils/isoc/newlib/memcpy.c:87
    106a:	b4f0      	push	{r4, r5, r6, r7}
/home/frank/TrustSQLite/stm32mp1-openstlinux-5.10-dunfell-mp1-21-11-17/sources/arm-ostl-linux-gnueabi/optee-os-stm32mp-3.12.0-stm32mp-r2-r0/optee-os-stm32mp-3.12.0-stm32mp-r2/lib/libutils/isoc/newlib/memcpy.c:106
    106c:	d945      	bls.n	10fa <memcpy+0x92>
/home/frank/TrustSQLite/stm32mp1-openstlinux-5.10-dunfell-mp1-21-11-17/sources/arm-ostl-linux-gnueabi/optee-os-stm32mp-3.12.0-stm32mp-r2-r0/optee-os-stm32mp-3.12.0-stm32mp-r2/lib/libutils/isoc/newlib/memcpy.c:106 (discriminator 1)
    106e:	ea40 0301 	orr.w	r3, r0, r1
    1072:	079b      	lsls	r3, r3, #30
    1074:	d150      	bne.n	1118 <memcpy+0xb0>
    1076:	f1a2 0410 	sub.w	r4, r2, #16
    107a:	f101 0620 	add.w	r6, r1, #32
    107e:	f024 050f 	bic.w	r5, r4, #15
    1082:	f101 0310 	add.w	r3, r1, #16
    1086:	0927      	lsrs	r7, r4, #4
    1088:	f100 0410 	add.w	r4, r0, #16
    108c:	442e      	add	r6, r5
/home/frank/TrustSQLite/stm32mp1-openstlinux-5.10-dunfell-mp1-21-11-17/sources/arm-ostl-linux-gnueabi/optee-os-stm32mp-3.12.0-stm32mp-r2-r0/optee-os-stm32mp-3.12.0-stm32mp-r2/lib/libutils/isoc/newlib/memcpy.c:112
    108e:	f853 5c10 	ldr.w	r5, [r3, #-16]
    1092:	3310      	adds	r3, #16
    1094:	3410      	adds	r4, #16
    1096:	f844 5c20 	str.w	r5, [r4, #-32]
/home/frank/TrustSQLite/stm32mp1-openstlinux-5.10-dunfell-mp1-21-11-17/sources/arm-ostl-linux-gnueabi/optee-os-stm32mp-3.12.0-stm32mp-r2-r0/optee-os-stm32mp-3.12.0-stm32mp-r2/lib/libutils/isoc/newlib/memcpy.c:113
    109a:	f853 5c1c 	ldr.w	r5, [r3, #-28]
    109e:	f844 5c1c 	str.w	r5, [r4, #-28]
/home/frank/TrustSQLite/stm32mp1-openstlinux-5.10-dunfell-mp1-21-11-17/sources/arm-ostl-linux-gnueabi/optee-os-stm32mp-3.12.0-stm32mp-r2-r0/optee-os-stm32mp-3.12.0-stm32mp-r2/lib/libutils/isoc/newlib/memcpy.c:114
    10a2:	f853 5c18 	ldr.w	r5, [r3, #-24]
    10a6:	f844 5c18 	str.w	r5, [r4, #-24]
/home/frank/TrustSQLite/stm32mp1-openstlinux-5.10-dunfell-mp1-21-11-17/sources/arm-ostl-linux-gnueabi/optee-os-stm32mp-3.12.0-stm32mp-r2-r0/optee-os-stm32mp-3.12.0-stm32mp-r2/lib/libutils/isoc/newlib/memcpy.c:115
    10aa:	f853 5c14 	ldr.w	r5, [r3, #-20]
/home/frank/TrustSQLite/stm32mp1-openstlinux-5.10-dunfell-mp1-21-11-17/sources/arm-ostl-linux-gnueabi/optee-os-stm32mp-3.12.0-stm32mp-r2-r0/optee-os-stm32mp-3.12.0-stm32mp-r2/lib/libutils/isoc/newlib/memcpy.c:111
    10ae:	42b3      	cmp	r3, r6
/home/frank/TrustSQLite/stm32mp1-openstlinux-5.10-dunfell-mp1-21-11-17/sources/arm-ostl-linux-gnueabi/optee-os-stm32mp-3.12.0-stm32mp-r2-r0/optee-os-stm32mp-3.12.0-stm32mp-r2/lib/libutils/isoc/newlib/memcpy.c:115
    10b0:	f844 5c14 	str.w	r5, [r4, #-20]
/home/frank/TrustSQLite/stm32mp1-openstlinux-5.10-dunfell-mp1-21-11-17/sources/arm-ostl-linux-gnueabi/optee-os-stm32mp-3.12.0-stm32mp-r2-r0/optee-os-stm32mp-3.12.0-stm32mp-r2/lib/libutils/isoc/newlib/memcpy.c:111
    10b4:	d1eb      	bne.n	108e <memcpy+0x26>
    10b6:	1c7b      	adds	r3, r7, #1
/home/frank/TrustSQLite/stm32mp1-openstlinux-5.10-dunfell-mp1-21-11-17/sources/arm-ostl-linux-gnueabi/optee-os-stm32mp-3.12.0-stm32mp-r2-r0/optee-os-stm32mp-3.12.0-stm32mp-r2/lib/libutils/isoc/newlib/memcpy.c:120
    10b8:	f012 0f0c 	tst.w	r2, #12
    10bc:	f002 050f 	and.w	r5, r2, #15
    10c0:	ea4f 1303 	mov.w	r3, r3, lsl #4
    10c4:	bf08      	it	eq
    10c6:	462a      	moveq	r2, r5
    10c8:	4419      	add	r1, r3
    10ca:	4403      	add	r3, r0
    10cc:	d016      	beq.n	10fc <memcpy+0x94>
    10ce:	1f1f      	subs	r7, r3, #4
/home/frank/TrustSQLite/stm32mp1-openstlinux-5.10-dunfell-mp1-21-11-17/sources/arm-ostl-linux-gnueabi/optee-os-stm32mp-3.12.0-stm32mp-r2-r0/optee-os-stm32mp-3.12.0-stm32mp-r2/lib/libutils/isoc/newlib/memcpy.c:115
    10d0:	460e      	mov	r6, r1
/home/frank/TrustSQLite/stm32mp1-openstlinux-5.10-dunfell-mp1-21-11-17/sources/arm-ostl-linux-gnueabi/optee-os-stm32mp-3.12.0-stm32mp-r2-r0/optee-os-stm32mp-3.12.0-stm32mp-r2/lib/libutils/isoc/newlib/memcpy.c:121
    10d2:	f856 cb04 	ldr.w	ip, [r6], #4
    10d6:	1bac      	subs	r4, r5, r6
/home/frank/TrustSQLite/stm32mp1-openstlinux-5.10-dunfell-mp1-21-11-17/sources/arm-ostl-linux-gnueabi/optee-os-stm32mp-3.12.0-stm32mp-r2-r0/optee-os-stm32mp-3.12.0-stm32mp-r2/lib/libutils/isoc/newlib/memcpy.c:120
    10d8:	440c      	add	r4, r1
/home/frank/TrustSQLite/stm32mp1-openstlinux-5.10-dunfell-mp1-21-11-17/sources/arm-ostl-linux-gnueabi/optee-os-stm32mp-3.12.0-stm32mp-r2-r0/optee-os-stm32mp-3.12.0-stm32mp-r2/lib/libutils/isoc/newlib/memcpy.c:121
    10da:	f847 cf04 	str.w	ip, [r7, #4]!
/home/frank/TrustSQLite/stm32mp1-openstlinux-5.10-dunfell-mp1-21-11-17/sources/arm-ostl-linux-gnueabi/optee-os-stm32mp-3.12.0-stm32mp-r2-r0/optee-os-stm32mp-3.12.0-stm32mp-r2/lib/libutils/isoc/newlib/memcpy.c:120
    10de:	2c03      	cmp	r4, #3
    10e0:	d8f7      	bhi.n	10d2 <memcpy+0x6a>
    10e2:	1f2c      	subs	r4, r5, #4
    10e4:	f002 0203 	and.w	r2, r2, #3
    10e8:	f024 0403 	bic.w	r4, r4, #3
    10ec:	3404      	adds	r4, #4
    10ee:	4423      	add	r3, r4
    10f0:	4421      	add	r1, r4
/home/frank/TrustSQLite/stm32mp1-openstlinux-5.10-dunfell-mp1-21-11-17/sources/arm-ostl-linux-gnueabi/optee-os-stm32mp-3.12.0-stm32mp-r2-r0/optee-os-stm32mp-3.12.0-stm32mp-r2/lib/libutils/isoc/newlib/memcpy.c:130
    10f2:	1e54      	subs	r4, r2, #1
    10f4:	b92a      	cbnz	r2, 1102 <memcpy+0x9a>
/home/frank/TrustSQLite/stm32mp1-openstlinux-5.10-dunfell-mp1-21-11-17/sources/arm-ostl-linux-gnueabi/optee-os-stm32mp-3.12.0-stm32mp-r2-r0/optee-os-stm32mp-3.12.0-stm32mp-r2/lib/libutils/isoc/newlib/memcpy.c:135
    10f6:	bcf0      	pop	{r4, r5, r6, r7}
    10f8:	4770      	bx	lr
/home/frank/TrustSQLite/stm32mp1-openstlinux-5.10-dunfell-mp1-21-11-17/sources/arm-ostl-linux-gnueabi/optee-os-stm32mp-3.12.0-stm32mp-r2-r0/optee-os-stm32mp-3.12.0-stm32mp-r2/lib/libutils/isoc/newlib/memcpy.c:99
    10fa:	4603      	mov	r3, r0
/home/frank/TrustSQLite/stm32mp1-openstlinux-5.10-dunfell-mp1-21-11-17/sources/arm-ostl-linux-gnueabi/optee-os-stm32mp-3.12.0-stm32mp-r2-r0/optee-os-stm32mp-3.12.0-stm32mp-r2/lib/libutils/isoc/newlib/memcpy.c:130
    10fc:	1e54      	subs	r4, r2, #1
    10fe:	2a00      	cmp	r2, #0
    1100:	d0f9      	beq.n	10f6 <memcpy+0x8e>
    1102:	3401      	adds	r4, #1
    1104:	3b01      	subs	r3, #1
    1106:	440c      	add	r4, r1
/home/frank/TrustSQLite/stm32mp1-openstlinux-5.10-dunfell-mp1-21-11-17/sources/arm-ostl-linux-gnueabi/optee-os-stm32mp-3.12.0-stm32mp-r2-r0/optee-os-stm32mp-3.12.0-stm32mp-r2/lib/libutils/isoc/newlib/memcpy.c:131
    1108:	f811 2b01 	ldrb.w	r2, [r1], #1
/home/frank/TrustSQLite/stm32mp1-openstlinux-5.10-dunfell-mp1-21-11-17/sources/arm-ostl-linux-gnueabi/optee-os-stm32mp-3.12.0-stm32mp-r2-r0/optee-os-stm32mp-3.12.0-stm32mp-r2/lib/libutils/isoc/newlib/memcpy.c:130
    110c:	42a1      	cmp	r1, r4
/home/frank/TrustSQLite/stm32mp1-openstlinux-5.10-dunfell-mp1-21-11-17/sources/arm-ostl-linux-gnueabi/optee-os-stm32mp-3.12.0-stm32mp-r2-r0/optee-os-stm32mp-3.12.0-stm32mp-r2/lib/libutils/isoc/newlib/memcpy.c:131
    110e:	f803 2f01 	strb.w	r2, [r3, #1]!
/home/frank/TrustSQLite/stm32mp1-openstlinux-5.10-dunfell-mp1-21-11-17/sources/arm-ostl-linux-gnueabi/optee-os-stm32mp-3.12.0-stm32mp-r2-r0/optee-os-stm32mp-3.12.0-stm32mp-r2/lib/libutils/isoc/newlib/memcpy.c:130
    1112:	d1f9      	bne.n	1108 <memcpy+0xa0>
/home/frank/TrustSQLite/stm32mp1-openstlinux-5.10-dunfell-mp1-21-11-17/sources/arm-ostl-linux-gnueabi/optee-os-stm32mp-3.12.0-stm32mp-r2-r0/optee-os-stm32mp-3.12.0-stm32mp-r2/lib/libutils/isoc/newlib/memcpy.c:135
    1114:	bcf0      	pop	{r4, r5, r6, r7}
    1116:	4770      	bx	lr
/home/frank/TrustSQLite/stm32mp1-openstlinux-5.10-dunfell-mp1-21-11-17/sources/arm-ostl-linux-gnueabi/optee-os-stm32mp-3.12.0-stm32mp-r2-r0/optee-os-stm32mp-3.12.0-stm32mp-r2/lib/libutils/isoc/newlib/memcpy.c:130
    1118:	1e54      	subs	r4, r2, #1
/home/frank/TrustSQLite/stm32mp1-openstlinux-5.10-dunfell-mp1-21-11-17/sources/arm-ostl-linux-gnueabi/optee-os-stm32mp-3.12.0-stm32mp-r2-r0/optee-os-stm32mp-3.12.0-stm32mp-r2/lib/libutils/isoc/newlib/memcpy.c:99
    111a:	4603      	mov	r3, r0
    111c:	e7f1      	b.n	1102 <memcpy+0x9a>
    111e:	bf00      	nop

00001120 <trace_set_level>:
trace_set_level():
/home/frank/TrustSQLite/stm32mp1-openstlinux-5.10-dunfell-mp1-21-11-17/sources/arm-ostl-linux-gnueabi/optee-os-stm32mp-3.12.0-stm32mp-r2-r0/optee-os-stm32mp-3.12.0-stm32mp-r2/lib/libutils/ext/trace.c:25
    1120:	4b04      	ldr	r3, [pc, #16]	; (1134 <trace_set_level+0x14>)
/home/frank/TrustSQLite/stm32mp1-openstlinux-5.10-dunfell-mp1-21-11-17/sources/arm-ostl-linux-gnueabi/optee-os-stm32mp-3.12.0-stm32mp-r2-r0/optee-os-stm32mp-3.12.0-stm32mp-r2/lib/libutils/ext/trace.c:29
    1122:	2804      	cmp	r0, #4
    1124:	4a04      	ldr	r2, [pc, #16]	; (1138 <trace_set_level+0x18>)
    1126:	bf28      	it	cs
    1128:	2004      	movcs	r0, #4
/home/frank/TrustSQLite/stm32mp1-openstlinux-5.10-dunfell-mp1-21-11-17/sources/arm-ostl-linux-gnueabi/optee-os-stm32mp-3.12.0-stm32mp-r2-r0/optee-os-stm32mp-3.12.0-stm32mp-r2/lib/libutils/ext/trace.c:25
    112a:	447b      	add	r3, pc
    112c:	589b      	ldr	r3, [r3, r2]
    112e:	6018      	str	r0, [r3, #0]
/home/frank/TrustSQLite/stm32mp1-openstlinux-5.10-dunfell-mp1-21-11-17/sources/arm-ostl-linux-gnueabi/optee-os-stm32mp-3.12.0-stm32mp-r2-r0/optee-os-stm32mp-3.12.0-stm32mp-r2/lib/libutils/ext/trace.c:30
    1130:	4770      	bx	lr
    1132:	bf00      	nop
    1134:	0000af5a 	.word	0x0000af5a
    1138:	0000001c 	.word	0x0000001c

0000113c <trace_get_level>:
trace_get_level():
/home/frank/TrustSQLite/stm32mp1-openstlinux-5.10-dunfell-mp1-21-11-17/sources/arm-ostl-linux-gnueabi/optee-os-stm32mp-3.12.0-stm32mp-r2-r0/optee-os-stm32mp-3.12.0-stm32mp-r2/lib/libutils/ext/trace.c:33
    113c:	4b02      	ldr	r3, [pc, #8]	; (1148 <trace_get_level+0xc>)
/home/frank/TrustSQLite/stm32mp1-openstlinux-5.10-dunfell-mp1-21-11-17/sources/arm-ostl-linux-gnueabi/optee-os-stm32mp-3.12.0-stm32mp-r2-r0/optee-os-stm32mp-3.12.0-stm32mp-r2/lib/libutils/ext/trace.c:34
    113e:	4a03      	ldr	r2, [pc, #12]	; (114c <trace_get_level+0x10>)
/home/frank/TrustSQLite/stm32mp1-openstlinux-5.10-dunfell-mp1-21-11-17/sources/arm-ostl-linux-gnueabi/optee-os-stm32mp-3.12.0-stm32mp-r2-r0/optee-os-stm32mp-3.12.0-stm32mp-r2/lib/libutils/ext/trace.c:33
    1140:	447b      	add	r3, pc
/home/frank/TrustSQLite/stm32mp1-openstlinux-5.10-dunfell-mp1-21-11-17/sources/arm-ostl-linux-gnueabi/optee-os-stm32mp-3.12.0-stm32mp-r2-r0/optee-os-stm32mp-3.12.0-stm32mp-r2/lib/libutils/ext/trace.c:34
    1142:	589b      	ldr	r3, [r3, r2]
/home/frank/TrustSQLite/stm32mp1-openstlinux-5.10-dunfell-mp1-21-11-17/sources/arm-ostl-linux-gnueabi/optee-os-stm32mp-3.12.0-stm32mp-r2-r0/optee-os-stm32mp-3.12.0-stm32mp-r2/lib/libutils/ext/trace.c:35
    1144:	6818      	ldr	r0, [r3, #0]
    1146:	4770      	bx	lr
    1148:	0000af44 	.word	0x0000af44
    114c:	0000001c 	.word	0x0000001c

00001150 <trace_vprintf>:
trace_vprintf():
/home/frank/TrustSQLite/stm32mp1-openstlinux-5.10-dunfell-mp1-21-11-17/sources/arm-ostl-linux-gnueabi/optee-os-stm32mp-3.12.0-stm32mp-r2-r0/optee-os-stm32mp-3.12.0-stm32mp-r2/lib/libutils/ext/trace.c:106
    1150:	e92d 4ff0 	stmdb	sp!, {r4, r5, r6, r7, r8, r9, sl, fp, lr}
    1154:	4607      	mov	r7, r0
    1156:	f8df b10c 	ldr.w	fp, [pc, #268]	; 1264 <trace_vprintf+0x114>
    115a:	b0c5      	sub	sp, #276	; 0x114
    115c:	4688      	mov	r8, r1
    115e:	4614      	mov	r4, r2
    1160:	44fb      	add	fp, pc
/home/frank/TrustSQLite/stm32mp1-openstlinux-5.10-dunfell-mp1-21-11-17/sources/arm-ostl-linux-gnueabi/optee-os-stm32mp-3.12.0-stm32mp-r2-r0/optee-os-stm32mp-3.12.0-stm32mp-r2/lib/libutils/ext/trace.c:111
    1162:	469a      	mov	sl, r3
    1164:	2b00      	cmp	r3, #0
    1166:	d069      	beq.n	123c <trace_vprintf+0xec>
/home/frank/TrustSQLite/stm32mp1-openstlinux-5.10-dunfell-mp1-21-11-17/sources/arm-ostl-linux-gnueabi/optee-os-stm32mp-3.12.0-stm32mp-r2-r0/optee-os-stm32mp-3.12.0-stm32mp-r2/lib/libutils/ext/trace.c:111 (discriminator 1)
    1168:	4b3f      	ldr	r3, [pc, #252]	; (1268 <trace_vprintf+0x118>)
    116a:	f85b 3003 	ldr.w	r3, [fp, r3]
    116e:	681b      	ldr	r3, [r3, #0]
    1170:	4293      	cmp	r3, r2
    1172:	db60      	blt.n	1236 <trace_vprintf+0xe6>
trace_level_to_string():
/home/frank/TrustSQLite/stm32mp1-openstlinux-5.10-dunfell-mp1-21-11-17/sources/arm-ostl-linux-gnueabi/optee-os-stm32mp-3.12.0-stm32mp-r2-r0/optee-os-stm32mp-3.12.0-stm32mp-r2/lib/libutils/ext/trace.c:52
    1174:	2a04      	cmp	r2, #4
    1176:	bf94      	ite	ls
    1178:	4613      	movls	r3, r2
    117a:	2300      	movhi	r3, #0
/home/frank/TrustSQLite/stm32mp1-openstlinux-5.10-dunfell-mp1-21-11-17/sources/arm-ostl-linux-gnueabi/optee-os-stm32mp-3.12.0-stm32mp-r2-r0/optee-os-stm32mp-3.12.0-stm32mp-r2/lib/libutils/ext/trace.c:55
    117c:	4a3b      	ldr	r2, [pc, #236]	; (126c <trace_vprintf+0x11c>)
    117e:	447a      	add	r2, pc
    1180:	5cd3      	ldrb	r3, [r2, r3]
trace_vprintf():
/home/frank/TrustSQLite/stm32mp1-openstlinux-5.10-dunfell-mp1-21-11-17/sources/arm-ostl-linux-gnueabi/optee-os-stm32mp-3.12.0-stm32mp-r2-r0/optee-os-stm32mp-3.12.0-stm32mp-r2/lib/libutils/ext/trace.c:115
    1182:	4a3b      	ldr	r2, [pc, #236]	; (1270 <trace_vprintf+0x120>)
    1184:	ad04      	add	r5, sp, #16
    1186:	f44f 7180 	mov.w	r1, #256	; 0x100
    118a:	4628      	mov	r0, r5
    118c:	447a      	add	r2, pc
    118e:	f000 f8aa 	bl	12e6 <snprintk>
/home/frank/TrustSQLite/stm32mp1-openstlinux-5.10-dunfell-mp1-21-11-17/sources/arm-ostl-linux-gnueabi/optee-os-stm32mp-3.12.0-stm32mp-r2-r0/optee-os-stm32mp-3.12.0-stm32mp-r2/lib/libutils/ext/trace.c:117
    1192:	1e06      	subs	r6, r0, #0
    1194:	db4f      	blt.n	1236 <trace_vprintf+0xe6>
/home/frank/TrustSQLite/stm32mp1-openstlinux-5.10-dunfell-mp1-21-11-17/sources/arm-ostl-linux-gnueabi/optee-os-stm32mp-3.12.0-stm32mp-r2-r0/optee-os-stm32mp-3.12.0-stm32mp-r2/lib/libutils/ext/trace.c:122
    1196:	4b37      	ldr	r3, [pc, #220]	; (1274 <trace_vprintf+0x124>)
    1198:	f5c6 7180 	rsb	r1, r6, #256	; 0x100
    119c:	4a36      	ldr	r2, [pc, #216]	; (1278 <trace_vprintf+0x128>)
    119e:	f85b 3003 	ldr.w	r3, [fp, r3]
    11a2:	447a      	add	r2, pc
    11a4:	19a8      	adds	r0, r5, r6
    11a6:	9303      	str	r3, [sp, #12]
    11a8:	f000 f89d 	bl	12e6 <snprintk>
/home/frank/TrustSQLite/stm32mp1-openstlinux-5.10-dunfell-mp1-21-11-17/sources/arm-ostl-linux-gnueabi/optee-os-stm32mp-3.12.0-stm32mp-r2-r0/optee-os-stm32mp-3.12.0-stm32mp-r2/lib/libutils/ext/trace.c:124
    11ac:	2800      	cmp	r0, #0
    11ae:	db42      	blt.n	1236 <trace_vprintf+0xe6>
/home/frank/TrustSQLite/stm32mp1-openstlinux-5.10-dunfell-mp1-21-11-17/sources/arm-ostl-linux-gnueabi/optee-os-stm32mp-3.12.0-stm32mp-r2-r0/optee-os-stm32mp-3.12.0-stm32mp-r2/lib/libutils/ext/trace.c:126
    11b0:	4406      	add	r6, r0
/home/frank/TrustSQLite/stm32mp1-openstlinux-5.10-dunfell-mp1-21-11-17/sources/arm-ostl-linux-gnueabi/optee-os-stm32mp-3.12.0-stm32mp-r2-r0/optee-os-stm32mp-3.12.0-stm32mp-r2/lib/libutils/ext/trace.c:128
    11b2:	f1ba 0f00 	cmp.w	sl, #0
    11b6:	d04a      	beq.n	124e <trace_vprintf+0xfe>
/home/frank/TrustSQLite/stm32mp1-openstlinux-5.10-dunfell-mp1-21-11-17/sources/arm-ostl-linux-gnueabi/optee-os-stm32mp-3.12.0-stm32mp-r2-r0/optee-os-stm32mp-3.12.0-stm32mp-r2/lib/libutils/ext/trace.c:128 (discriminator 1)
    11b8:	221a      	movs	r2, #26
    11ba:	fa22 f404 	lsr.w	r4, r2, r4
    11be:	07e3      	lsls	r3, r4, #31
    11c0:	d545      	bpl.n	124e <trace_vprintf+0xfe>
/home/frank/TrustSQLite/stm32mp1-openstlinux-5.10-dunfell-mp1-21-11-17/sources/arm-ostl-linux-gnueabi/optee-os-stm32mp-3.12.0-stm32mp-r2-r0/optee-os-stm32mp-3.12.0-stm32mp-r2/lib/libutils/ext/trace.c:130
    11c2:	19ac      	adds	r4, r5, r6
print_thread_id():
/home/frank/TrustSQLite/stm32mp1-openstlinux-5.10-dunfell-mp1-21-11-17/sources/arm-ostl-linux-gnueabi/optee-os-stm32mp-3.12.0-stm32mp-r2-r0/optee-os-stm32mp-3.12.0-stm32mp-r2/lib/libutils/ext/trace.c:65
    11c4:	f000 fc22 	bl	1a0c <trace_ext_get_thread_id>
/home/frank/TrustSQLite/stm32mp1-openstlinux-5.10-dunfell-mp1-21-11-17/sources/arm-ostl-linux-gnueabi/optee-os-stm32mp-3.12.0-stm32mp-r2-r0/optee-os-stm32mp-3.12.0-stm32mp-r2/lib/libutils/ext/trace.c:67
    11c8:	2800      	cmp	r0, #0
trace_vprintf():
/home/frank/TrustSQLite/stm32mp1-openstlinux-5.10-dunfell-mp1-21-11-17/sources/arm-ostl-linux-gnueabi/optee-os-stm32mp-3.12.0-stm32mp-r2-r0/optee-os-stm32mp-3.12.0-stm32mp-r2/lib/libutils/ext/trace.c:130
    11ca:	f5c6 7980 	rsb	r9, r6, #256	; 0x100
print_thread_id():
/home/frank/TrustSQLite/stm32mp1-openstlinux-5.10-dunfell-mp1-21-11-17/sources/arm-ostl-linux-gnueabi/optee-os-stm32mp-3.12.0-stm32mp-r2-r0/optee-os-stm32mp-3.12.0-stm32mp-r2/lib/libutils/ext/trace.c:67
    11ce:	db37      	blt.n	1240 <trace_vprintf+0xf0>
/home/frank/TrustSQLite/stm32mp1-openstlinux-5.10-dunfell-mp1-21-11-17/sources/arm-ostl-linux-gnueabi/optee-os-stm32mp-3.12.0-stm32mp-r2-r0/optee-os-stm32mp-3.12.0-stm32mp-r2/lib/libutils/ext/trace.c:68
    11d0:	4a2a      	ldr	r2, [pc, #168]	; (127c <trace_vprintf+0x12c>)
    11d2:	2301      	movs	r3, #1
    11d4:	9000      	str	r0, [sp, #0]
    11d6:	447a      	add	r2, pc
/home/frank/TrustSQLite/stm32mp1-openstlinux-5.10-dunfell-mp1-21-11-17/sources/arm-ostl-linux-gnueabi/optee-os-stm32mp-3.12.0-stm32mp-r2-r0/optee-os-stm32mp-3.12.0-stm32mp-r2/lib/libutils/ext/trace.c:70
    11d8:	4649      	mov	r1, r9
    11da:	4620      	mov	r0, r4
    11dc:	f000 f883 	bl	12e6 <snprintk>
trace_vprintf():
/home/frank/TrustSQLite/stm32mp1-openstlinux-5.10-dunfell-mp1-21-11-17/sources/arm-ostl-linux-gnueabi/optee-os-stm32mp-3.12.0-stm32mp-r2-r0/optee-os-stm32mp-3.12.0-stm32mp-r2/lib/libutils/ext/trace.c:137
    11e0:	2800      	cmp	r0, #0
    11e2:	db28      	blt.n	1236 <trace_vprintf+0xe6>
/home/frank/TrustSQLite/stm32mp1-openstlinux-5.10-dunfell-mp1-21-11-17/sources/arm-ostl-linux-gnueabi/optee-os-stm32mp-3.12.0-stm32mp-r2-r0/optee-os-stm32mp-3.12.0-stm32mp-r2/lib/libutils/ext/trace.c:139
    11e4:	1984      	adds	r4, r0, r6
/home/frank/TrustSQLite/stm32mp1-openstlinux-5.10-dunfell-mp1-21-11-17/sources/arm-ostl-linux-gnueabi/optee-os-stm32mp-3.12.0-stm32mp-r2-r0/optee-os-stm32mp-3.12.0-stm32mp-r2/lib/libutils/ext/trace.c:141
    11e6:	b167      	cbz	r7, 1202 <trace_vprintf+0xb2>
/home/frank/TrustSQLite/stm32mp1-openstlinux-5.10-dunfell-mp1-21-11-17/sources/arm-ostl-linux-gnueabi/optee-os-stm32mp-3.12.0-stm32mp-r2-r0/optee-os-stm32mp-3.12.0-stm32mp-r2/lib/libutils/ext/trace.c:142
    11e8:	4a25      	ldr	r2, [pc, #148]	; (1280 <trace_vprintf+0x130>)
    11ea:	463b      	mov	r3, r7
    11ec:	1928      	adds	r0, r5, r4
    11ee:	f5c4 7180 	rsb	r1, r4, #256	; 0x100
    11f2:	447a      	add	r2, pc
    11f4:	f8cd 8000 	str.w	r8, [sp]
    11f8:	f000 f875 	bl	12e6 <snprintk>
/home/frank/TrustSQLite/stm32mp1-openstlinux-5.10-dunfell-mp1-21-11-17/sources/arm-ostl-linux-gnueabi/optee-os-stm32mp-3.12.0-stm32mp-r2-r0/optee-os-stm32mp-3.12.0-stm32mp-r2/lib/libutils/ext/trace.c:144
    11fc:	2800      	cmp	r0, #0
    11fe:	db1a      	blt.n	1236 <trace_vprintf+0xe6>
/home/frank/TrustSQLite/stm32mp1-openstlinux-5.10-dunfell-mp1-21-11-17/sources/arm-ostl-linux-gnueabi/optee-os-stm32mp-3.12.0-stm32mp-r2-r0/optee-os-stm32mp-3.12.0-stm32mp-r2/lib/libutils/ext/trace.c:146
    1200:	4404      	add	r4, r0
/home/frank/TrustSQLite/stm32mp1-openstlinux-5.10-dunfell-mp1-21-11-17/sources/arm-ostl-linux-gnueabi/optee-os-stm32mp-3.12.0-stm32mp-r2-r0/optee-os-stm32mp-3.12.0-stm32mp-r2/lib/libutils/ext/trace.c:156
    1202:	1928      	adds	r0, r5, r4
    1204:	f5c4 7180 	rsb	r1, r4, #256	; 0x100
    1208:	9b4f      	ldr	r3, [sp, #316]	; 0x13c
    120a:	9a4e      	ldr	r2, [sp, #312]	; 0x138
    120c:	f000 f864 	bl	12d8 <vsnprintk>
/home/frank/TrustSQLite/stm32mp1-openstlinux-5.10-dunfell-mp1-21-11-17/sources/arm-ostl-linux-gnueabi/optee-os-stm32mp-3.12.0-stm32mp-r2-r0/optee-os-stm32mp-3.12.0-stm32mp-r2/lib/libutils/ext/trace.c:157
    1210:	2800      	cmp	r0, #0
/home/frank/TrustSQLite/stm32mp1-openstlinux-5.10-dunfell-mp1-21-11-17/sources/arm-ostl-linux-gnueabi/optee-os-stm32mp-3.12.0-stm32mp-r2-r0/optee-os-stm32mp-3.12.0-stm32mp-r2/lib/libutils/ext/trace.c:163
    1212:	f04f 030a 	mov.w	r3, #10
/home/frank/TrustSQLite/stm32mp1-openstlinux-5.10-dunfell-mp1-21-11-17/sources/arm-ostl-linux-gnueabi/optee-os-stm32mp-3.12.0-stm32mp-r2-r0/optee-os-stm32mp-3.12.0-stm32mp-r2/lib/libutils/ext/trace.c:158
    1216:	bfc8      	it	gt
    1218:	1824      	addgt	r4, r4, r0
/home/frank/TrustSQLite/stm32mp1-openstlinux-5.10-dunfell-mp1-21-11-17/sources/arm-ostl-linux-gnueabi/optee-os-stm32mp-3.12.0-stm32mp-r2-r0/optee-os-stm32mp-3.12.0-stm32mp-r2/lib/libutils/ext/trace.c:160
    121a:	2cfe      	cmp	r4, #254	; 0xfe
    121c:	bf28      	it	cs
    121e:	24fe      	movcs	r4, #254	; 0xfe
/home/frank/TrustSQLite/stm32mp1-openstlinux-5.10-dunfell-mp1-21-11-17/sources/arm-ostl-linux-gnueabi/optee-os-stm32mp-3.12.0-stm32mp-r2-r0/optee-os-stm32mp-3.12.0-stm32mp-r2/lib/libutils/ext/trace.c:163
    1220:	552b      	strb	r3, [r5, r4]
/home/frank/TrustSQLite/stm32mp1-openstlinux-5.10-dunfell-mp1-21-11-17/sources/arm-ostl-linux-gnueabi/optee-os-stm32mp-3.12.0-stm32mp-r2-r0/optee-os-stm32mp-3.12.0-stm32mp-r2/lib/libutils/ext/trace.c:164
    1222:	b114      	cbz	r4, 122a <trace_vprintf+0xda>
/home/frank/TrustSQLite/stm32mp1-openstlinux-5.10-dunfell-mp1-21-11-17/sources/arm-ostl-linux-gnueabi/optee-os-stm32mp-3.12.0-stm32mp-r2-r0/optee-os-stm32mp-3.12.0-stm32mp-r2/lib/libutils/ext/trace.c:164 (discriminator 1)
    1224:	5d2b      	ldrb	r3, [r5, r4]
    1226:	2b0a      	cmp	r3, #10
    1228:	d019      	beq.n	125e <trace_vprintf+0x10e>
/home/frank/TrustSQLite/stm32mp1-openstlinux-5.10-dunfell-mp1-21-11-17/sources/arm-ostl-linux-gnueabi/optee-os-stm32mp-3.12.0-stm32mp-r2-r0/optee-os-stm32mp-3.12.0-stm32mp-r2/lib/libutils/ext/trace.c:167
    122a:	442c      	add	r4, r5
    122c:	2300      	movs	r3, #0
/home/frank/TrustSQLite/stm32mp1-openstlinux-5.10-dunfell-mp1-21-11-17/sources/arm-ostl-linux-gnueabi/optee-os-stm32mp-3.12.0-stm32mp-r2-r0/optee-os-stm32mp-3.12.0-stm32mp-r2/lib/libutils/ext/trace.c:169
    122e:	4628      	mov	r0, r5
/home/frank/TrustSQLite/stm32mp1-openstlinux-5.10-dunfell-mp1-21-11-17/sources/arm-ostl-linux-gnueabi/optee-os-stm32mp-3.12.0-stm32mp-r2-r0/optee-os-stm32mp-3.12.0-stm32mp-r2/lib/libutils/ext/trace.c:167
    1230:	70a3      	strb	r3, [r4, #2]
/home/frank/TrustSQLite/stm32mp1-openstlinux-5.10-dunfell-mp1-21-11-17/sources/arm-ostl-linux-gnueabi/optee-os-stm32mp-3.12.0-stm32mp-r2-r0/optee-os-stm32mp-3.12.0-stm32mp-r2/lib/libutils/ext/trace.c:169
    1232:	f000 fbe1 	bl	19f8 <trace_ext_puts>
/home/frank/TrustSQLite/stm32mp1-openstlinux-5.10-dunfell-mp1-21-11-17/sources/arm-ostl-linux-gnueabi/optee-os-stm32mp-3.12.0-stm32mp-r2-r0/optee-os-stm32mp-3.12.0-stm32mp-r2/lib/libutils/ext/trace.c:170
    1236:	b045      	add	sp, #276	; 0x114
    1238:	e8bd 8ff0 	ldmia.w	sp!, {r4, r5, r6, r7, r8, r9, sl, fp, pc}
trace_level_to_string():
/home/frank/TrustSQLite/stm32mp1-openstlinux-5.10-dunfell-mp1-21-11-17/sources/arm-ostl-linux-gnueabi/optee-os-stm32mp-3.12.0-stm32mp-r2-r0/optee-os-stm32mp-3.12.0-stm32mp-r2/lib/libutils/ext/trace.c:50
    123c:	234d      	movs	r3, #77	; 0x4d
    123e:	e7a0      	b.n	1182 <trace_vprintf+0x32>
print_thread_id():
/home/frank/TrustSQLite/stm32mp1-openstlinux-5.10-dunfell-mp1-21-11-17/sources/arm-ostl-linux-gnueabi/optee-os-stm32mp-3.12.0-stm32mp-r2-r0/optee-os-stm32mp-3.12.0-stm32mp-r2/lib/libutils/ext/trace.c:70
    1240:	4b10      	ldr	r3, [pc, #64]	; (1284 <trace_vprintf+0x134>)
    1242:	4a11      	ldr	r2, [pc, #68]	; (1288 <trace_vprintf+0x138>)
    1244:	447b      	add	r3, pc
    1246:	9300      	str	r3, [sp, #0]
    1248:	2301      	movs	r3, #1
    124a:	447a      	add	r2, pc
    124c:	e7c4      	b.n	11d8 <trace_vprintf+0x88>
trace_vprintf():
/home/frank/TrustSQLite/stm32mp1-openstlinux-5.10-dunfell-mp1-21-11-17/sources/arm-ostl-linux-gnueabi/optee-os-stm32mp-3.12.0-stm32mp-r2-r0/optee-os-stm32mp-3.12.0-stm32mp-r2/lib/libutils/ext/trace.c:150
    124e:	2efe      	cmp	r6, #254	; 0xfe
    1250:	d8f1      	bhi.n	1236 <trace_vprintf+0xe6>
/home/frank/TrustSQLite/stm32mp1-openstlinux-5.10-dunfell-mp1-21-11-17/sources/arm-ostl-linux-gnueabi/optee-os-stm32mp-3.12.0-stm32mp-r2-r0/optee-os-stm32mp-3.12.0-stm32mp-r2/lib/libutils/ext/trace.c:152
    1252:	2320      	movs	r3, #32
    1254:	1c74      	adds	r4, r6, #1
    1256:	55ab      	strb	r3, [r5, r6]
/home/frank/TrustSQLite/stm32mp1-openstlinux-5.10-dunfell-mp1-21-11-17/sources/arm-ostl-linux-gnueabi/optee-os-stm32mp-3.12.0-stm32mp-r2-r0/optee-os-stm32mp-3.12.0-stm32mp-r2/lib/libutils/ext/trace.c:153
    1258:	2300      	movs	r3, #0
    125a:	552b      	strb	r3, [r5, r4]
    125c:	e7d1      	b.n	1202 <trace_vprintf+0xb2>
/home/frank/TrustSQLite/stm32mp1-openstlinux-5.10-dunfell-mp1-21-11-17/sources/arm-ostl-linux-gnueabi/optee-os-stm32mp-3.12.0-stm32mp-r2-r0/optee-os-stm32mp-3.12.0-stm32mp-r2/lib/libutils/ext/trace.c:165
    125e:	3c01      	subs	r4, #1
    1260:	e7df      	b.n	1222 <trace_vprintf+0xd2>
    1262:	bf00      	nop
    1264:	0000af24 	.word	0x0000af24
    1268:	0000001c 	.word	0x0000001c
    126c:	000092c2 	.word	0x000092c2
    1270:	0000929a 	.word	0x0000929a
    1274:	00000020 	.word	0x00000020
    1278:	00009288 	.word	0x00009288
    127c:	00009258 	.word	0x00009258
    1280:	00009247 	.word	0x00009247
    1284:	000099fd 	.word	0x000099fd
    1288:	000091ea 	.word	0x000091ea

0000128c <trace_printf>:
trace_printf():
/home/frank/TrustSQLite/stm32mp1-openstlinux-5.10-dunfell-mp1-21-11-17/sources/arm-ostl-linux-gnueabi/optee-os-stm32mp-3.12.0-stm32mp-r2-r0/optee-os-stm32mp-3.12.0-stm32mp-r2/lib/libutils/ext/trace.c:97
    128c:	b530      	push	{r4, r5, lr}
    128e:	b085      	sub	sp, #20
    1290:	ac08      	add	r4, sp, #32
    1292:	f854 5b04 	ldr.w	r5, [r4], #4
/home/frank/TrustSQLite/stm32mp1-openstlinux-5.10-dunfell-mp1-21-11-17/sources/arm-ostl-linux-gnueabi/optee-os-stm32mp-3.12.0-stm32mp-r2-r0/optee-os-stm32mp-3.12.0-stm32mp-r2/lib/libutils/ext/trace.c:101
    1296:	9401      	str	r4, [sp, #4]
    1298:	9500      	str	r5, [sp, #0]
/home/frank/TrustSQLite/stm32mp1-openstlinux-5.10-dunfell-mp1-21-11-17/sources/arm-ostl-linux-gnueabi/optee-os-stm32mp-3.12.0-stm32mp-r2-r0/optee-os-stm32mp-3.12.0-stm32mp-r2/lib/libutils/ext/trace.c:100
    129a:	9403      	str	r4, [sp, #12]
/home/frank/TrustSQLite/stm32mp1-openstlinux-5.10-dunfell-mp1-21-11-17/sources/arm-ostl-linux-gnueabi/optee-os-stm32mp-3.12.0-stm32mp-r2-r0/optee-os-stm32mp-3.12.0-stm32mp-r2/lib/libutils/ext/trace.c:101
    129c:	f7ff ff58 	bl	1150 <trace_vprintf>
/home/frank/TrustSQLite/stm32mp1-openstlinux-5.10-dunfell-mp1-21-11-17/sources/arm-ostl-linux-gnueabi/optee-os-stm32mp-3.12.0-stm32mp-r2-r0/optee-os-stm32mp-3.12.0-stm32mp-r2/lib/libutils/ext/trace.c:103
    12a0:	b005      	add	sp, #20
    12a2:	bd30      	pop	{r4, r5, pc}

000012a4 <dhex_dump>:
dhex_dump():
/home/frank/TrustSQLite/stm32mp1-openstlinux-5.10-dunfell-mp1-21-11-17/sources/arm-ostl-linux-gnueabi/optee-os-stm32mp-3.12.0-stm32mp-r2-r0/optee-os-stm32mp-3.12.0-stm32mp-r2/lib/libutils/ext/trace.c:280
    12a4:	4770      	bx	lr
    12a6:	bf00      	nop

000012a8 <__vsnprintf>:
__vsnprintf():
/home/frank/TrustSQLite/stm32mp1-openstlinux-5.10-dunfell-mp1-21-11-17/sources/arm-ostl-linux-gnueabi/optee-os-stm32mp-3.12.0-stm32mp-r2-r0/optee-os-stm32mp-3.12.0-stm32mp-r2/lib/libutils/ext/snprintk.c:138
    12a8:	b57f      	push	{r0, r1, r2, r3, r4, r5, r6, lr}
    12aa:	4604      	mov	r4, r0
/home/frank/TrustSQLite/stm32mp1-openstlinux-5.10-dunfell-mp1-21-11-17/sources/arm-ostl-linux-gnueabi/optee-os-stm32mp-3.12.0-stm32mp-r2-r0/optee-os-stm32mp-3.12.0-stm32mp-r2/lib/libutils/ext/snprintk.c:142
    12ac:	1866      	adds	r6, r4, r1
/home/frank/TrustSQLite/stm32mp1-openstlinux-5.10-dunfell-mp1-21-11-17/sources/arm-ostl-linux-gnueabi/optee-os-stm32mp-3.12.0-stm32mp-r2-r0/optee-os-stm32mp-3.12.0-stm32mp-r2/lib/libutils/ext/snprintk.c:138
    12ae:	4610      	mov	r0, r2
/home/frank/TrustSQLite/stm32mp1-openstlinux-5.10-dunfell-mp1-21-11-17/sources/arm-ostl-linux-gnueabi/optee-os-stm32mp-3.12.0-stm32mp-r2-r0/optee-os-stm32mp-3.12.0-stm32mp-r2/lib/libutils/ext/snprintk.c:143
    12b0:	f89d 2020 	ldrb.w	r2, [sp, #32]
/home/frank/TrustSQLite/stm32mp1-openstlinux-5.10-dunfell-mp1-21-11-17/sources/arm-ostl-linux-gnueabi/optee-os-stm32mp-3.12.0-stm32mp-r2-r0/optee-os-stm32mp-3.12.0-stm32mp-r2/lib/libutils/ext/snprintk.c:138
    12b4:	460d      	mov	r5, r1
/home/frank/TrustSQLite/stm32mp1-openstlinux-5.10-dunfell-mp1-21-11-17/sources/arm-ostl-linux-gnueabi/optee-os-stm32mp-3.12.0-stm32mp-r2-r0/optee-os-stm32mp-3.12.0-stm32mp-r2/lib/libutils/ext/snprintk.c:142
    12b6:	9603      	str	r6, [sp, #12]
/home/frank/TrustSQLite/stm32mp1-openstlinux-5.10-dunfell-mp1-21-11-17/sources/arm-ostl-linux-gnueabi/optee-os-stm32mp-3.12.0-stm32mp-r2-r0/optee-os-stm32mp-3.12.0-stm32mp-r2/lib/libutils/ext/snprintk.c:143
    12b8:	a903      	add	r1, sp, #12
    12ba:	9200      	str	r2, [sp, #0]
    12bc:	4622      	mov	r2, r4
    12be:	f000 f81f 	bl	1300 <kprintf.constprop.0>
/home/frank/TrustSQLite/stm32mp1-openstlinux-5.10-dunfell-mp1-21-11-17/sources/arm-ostl-linux-gnueabi/optee-os-stm32mp-3.12.0-stm32mp-r2-r0/optee-os-stm32mp-3.12.0-stm32mp-r2/lib/libutils/ext/snprintk.c:144
    12c2:	b13c      	cbz	r4, 12d4 <__vsnprintf+0x2c>
/home/frank/TrustSQLite/stm32mp1-openstlinux-5.10-dunfell-mp1-21-11-17/sources/arm-ostl-linux-gnueabi/optee-os-stm32mp-3.12.0-stm32mp-r2-r0/optee-os-stm32mp-3.12.0-stm32mp-r2/lib/libutils/ext/snprintk.c:144 (discriminator 1)
    12c4:	b135      	cbz	r5, 12d4 <__vsnprintf+0x2c>
/home/frank/TrustSQLite/stm32mp1-openstlinux-5.10-dunfell-mp1-21-11-17/sources/arm-ostl-linux-gnueabi/optee-os-stm32mp-3.12.0-stm32mp-r2-r0/optee-os-stm32mp-3.12.0-stm32mp-r2/lib/libutils/ext/snprintk.c:146
    12c6:	42a8      	cmp	r0, r5
    12c8:	f04f 0300 	mov.w	r3, #0
/home/frank/TrustSQLite/stm32mp1-openstlinux-5.10-dunfell-mp1-21-11-17/sources/arm-ostl-linux-gnueabi/optee-os-stm32mp-3.12.0-stm32mp-r2-r0/optee-os-stm32mp-3.12.0-stm32mp-r2/lib/libutils/ext/snprintk.c:147
    12cc:	bf2c      	ite	cs
    12ce:	f806 3c01 	strbcs.w	r3, [r6, #-1]
/home/frank/TrustSQLite/stm32mp1-openstlinux-5.10-dunfell-mp1-21-11-17/sources/arm-ostl-linux-gnueabi/optee-os-stm32mp-3.12.0-stm32mp-r2-r0/optee-os-stm32mp-3.12.0-stm32mp-r2/lib/libutils/ext/snprintk.c:149
    12d2:	5423      	strbcc	r3, [r4, r0]
/home/frank/TrustSQLite/stm32mp1-openstlinux-5.10-dunfell-mp1-21-11-17/sources/arm-ostl-linux-gnueabi/optee-os-stm32mp-3.12.0-stm32mp-r2-r0/optee-os-stm32mp-3.12.0-stm32mp-r2/lib/libutils/ext/snprintk.c:152
    12d4:	b004      	add	sp, #16
    12d6:	bd70      	pop	{r4, r5, r6, pc}

000012d8 <vsnprintk>:
vsnprintk():
/home/frank/TrustSQLite/stm32mp1-openstlinux-5.10-dunfell-mp1-21-11-17/sources/arm-ostl-linux-gnueabi/optee-os-stm32mp-3.12.0-stm32mp-r2-r0/optee-os-stm32mp-3.12.0-stm32mp-r2/lib/libutils/ext/snprintk.c:130
    12d8:	b513      	push	{r0, r1, r4, lr}
/home/frank/TrustSQLite/stm32mp1-openstlinux-5.10-dunfell-mp1-21-11-17/sources/arm-ostl-linux-gnueabi/optee-os-stm32mp-3.12.0-stm32mp-r2-r0/optee-os-stm32mp-3.12.0-stm32mp-r2/lib/libutils/ext/snprintk.c:131
    12da:	2401      	movs	r4, #1
    12dc:	9400      	str	r4, [sp, #0]
    12de:	f7ff ffe3 	bl	12a8 <__vsnprintf>
/home/frank/TrustSQLite/stm32mp1-openstlinux-5.10-dunfell-mp1-21-11-17/sources/arm-ostl-linux-gnueabi/optee-os-stm32mp-3.12.0-stm32mp-r2-r0/optee-os-stm32mp-3.12.0-stm32mp-r2/lib/libutils/ext/snprintk.c:132
    12e2:	b002      	add	sp, #8
    12e4:	bd10      	pop	{r4, pc}

000012e6 <snprintk>:
snprintk():
/home/frank/TrustSQLite/stm32mp1-openstlinux-5.10-dunfell-mp1-21-11-17/sources/arm-ostl-linux-gnueabi/optee-os-stm32mp-3.12.0-stm32mp-r2-r0/optee-os-stm32mp-3.12.0-stm32mp-r2/lib/libutils/ext/snprintk.c:113
    12e6:	b40c      	push	{r2, r3}
    12e8:	b507      	push	{r0, r1, r2, lr}
    12ea:	ab04      	add	r3, sp, #16
    12ec:	f853 2b04 	ldr.w	r2, [r3], #4
/home/frank/TrustSQLite/stm32mp1-openstlinux-5.10-dunfell-mp1-21-11-17/sources/arm-ostl-linux-gnueabi/optee-os-stm32mp-3.12.0-stm32mp-r2-r0/optee-os-stm32mp-3.12.0-stm32mp-r2/lib/libutils/ext/snprintk.c:117
    12f0:	9301      	str	r3, [sp, #4]
/home/frank/TrustSQLite/stm32mp1-openstlinux-5.10-dunfell-mp1-21-11-17/sources/arm-ostl-linux-gnueabi/optee-os-stm32mp-3.12.0-stm32mp-r2-r0/optee-os-stm32mp-3.12.0-stm32mp-r2/lib/libutils/ext/snprintk.c:118
    12f2:	f7ff fff1 	bl	12d8 <vsnprintk>
/home/frank/TrustSQLite/stm32mp1-openstlinux-5.10-dunfell-mp1-21-11-17/sources/arm-ostl-linux-gnueabi/optee-os-stm32mp-3.12.0-stm32mp-r2-r0/optee-os-stm32mp-3.12.0-stm32mp-r2/lib/libutils/ext/snprintk.c:122
    12f6:	b003      	add	sp, #12
    12f8:	f85d eb04 	ldr.w	lr, [sp], #4
    12fc:	b002      	add	sp, #8
    12fe:	4770      	bx	lr

00001300 <kprintf.constprop.0>:
kprintf():
/home/frank/TrustSQLite/stm32mp1-openstlinux-5.10-dunfell-mp1-21-11-17/sources/arm-ostl-linux-gnueabi/optee-os-stm32mp-3.12.0-stm32mp-r2-r0/optee-os-stm32mp-3.12.0-stm32mp-r2/lib/libutils/ext/snprintk.c:242
    1300:	e92d 4ff0 	stmdb	sp!, {r4, r5, r6, r7, r8, r9, sl, fp, lr}
    1304:	b09f      	sub	sp, #124	; 0x7c
    1306:	4690      	mov	r8, r2
    1308:	461f      	mov	r7, r3
    130a:	f89d 20a0 	ldrb.w	r2, [sp, #160]	; 0xa0
    130e:	900b      	str	r0, [sp, #44]	; 0x2c
    1310:	9213      	str	r2, [sp, #76]	; 0x4c
/home/frank/TrustSQLite/stm32mp1-openstlinux-5.10-dunfell-mp1-21-11-17/sources/arm-ostl-linux-gnueabi/optee-os-stm32mp-3.12.0-stm32mp-r2-r0/optee-os-stm32mp-3.12.0-stm32mp-r2/lib/libutils/ext/snprintk.c:264
    1312:	910d      	str	r1, [sp, #52]	; 0x34
    1314:	b189      	cbz	r1, 133a <kprintf.constprop.0+0x3a>
/home/frank/TrustSQLite/stm32mp1-openstlinux-5.10-dunfell-mp1-21-11-17/sources/arm-ostl-linux-gnueabi/optee-os-stm32mp-3.12.0-stm32mp-r2-r0/optee-os-stm32mp-3.12.0-stm32mp-r2/lib/libutils/ext/snprintk.c:265
    1316:	680b      	ldr	r3, [r1, #0]
/home/frank/TrustSQLite/stm32mp1-openstlinux-5.10-dunfell-mp1-21-11-17/sources/arm-ostl-linux-gnueabi/optee-os-stm32mp-3.12.0-stm32mp-r2-r0/optee-os-stm32mp-3.12.0-stm32mp-r2/lib/libutils/ext/snprintk.c:267
    1318:	9310      	str	r3, [sp, #64]	; 0x40
/home/frank/TrustSQLite/stm32mp1-openstlinux-5.10-dunfell-mp1-21-11-17/sources/arm-ostl-linux-gnueabi/optee-os-stm32mp-3.12.0-stm32mp-r2-r0/optee-os-stm32mp-3.12.0-stm32mp-r2/lib/libutils/ext/snprintk.c:275
    131a:	2300      	movs	r3, #0
    131c:	9311      	str	r3, [sp, #68]	; 0x44
/home/frank/TrustSQLite/stm32mp1-openstlinux-5.10-dunfell-mp1-21-11-17/sources/arm-ostl-linux-gnueabi/optee-os-stm32mp-3.12.0-stm32mp-r2-r0/optee-os-stm32mp-3.12.0-stm32mp-r2/lib/libutils/ext/snprintk.c:273
    131e:	930e      	str	r3, [sp, #56]	; 0x38
/home/frank/TrustSQLite/stm32mp1-openstlinux-5.10-dunfell-mp1-21-11-17/sources/arm-ostl-linux-gnueabi/optee-os-stm32mp-3.12.0-stm32mp-r2-r0/optee-os-stm32mp-3.12.0-stm32mp-r2/lib/libutils/ext/snprintk.c:281
    1320:	9b0b      	ldr	r3, [sp, #44]	; 0x2c
    1322:	781b      	ldrb	r3, [r3, #0]
    1324:	2b25      	cmp	r3, #37	; 0x25
    1326:	d01b      	beq.n	1360 <kprintf.constprop.0+0x60>
    1328:	b94b      	cbnz	r3, 133e <kprintf.constprop.0+0x3e>
/home/frank/TrustSQLite/stm32mp1-openstlinux-5.10-dunfell-mp1-21-11-17/sources/arm-ostl-linux-gnueabi/optee-os-stm32mp-3.12.0-stm32mp-r2-r0/optee-os-stm32mp-3.12.0-stm32mp-r2/lib/libutils/ext/snprintk.c:619
    132a:	9b0d      	ldr	r3, [sp, #52]	; 0x34
    132c:	b10b      	cbz	r3, 1332 <kprintf.constprop.0+0x32>
/home/frank/TrustSQLite/stm32mp1-openstlinux-5.10-dunfell-mp1-21-11-17/sources/arm-ostl-linux-gnueabi/optee-os-stm32mp-3.12.0-stm32mp-r2-r0/optee-os-stm32mp-3.12.0-stm32mp-r2/lib/libutils/ext/snprintk.c:620
    132e:	f8c3 8000 	str.w	r8, [r3]
/home/frank/TrustSQLite/stm32mp1-openstlinux-5.10-dunfell-mp1-21-11-17/sources/arm-ostl-linux-gnueabi/optee-os-stm32mp-3.12.0-stm32mp-r2-r0/optee-os-stm32mp-3.12.0-stm32mp-r2/lib/libutils/ext/snprintk.c:622
    1332:	980e      	ldr	r0, [sp, #56]	; 0x38
    1334:	b01f      	add	sp, #124	; 0x7c
    1336:	e8bd 8ff0 	ldmia.w	sp!, {r4, r5, r6, r7, r8, r9, sl, fp, pc}
/home/frank/TrustSQLite/stm32mp1-openstlinux-5.10-dunfell-mp1-21-11-17/sources/arm-ostl-linux-gnueabi/optee-os-stm32mp-3.12.0-stm32mp-r2-r0/optee-os-stm32mp-3.12.0-stm32mp-r2/lib/libutils/ext/snprintk.c:267
    133a:	9b0d      	ldr	r3, [sp, #52]	; 0x34
    133c:	e7ec      	b.n	1318 <kprintf.constprop.0+0x18>
/home/frank/TrustSQLite/stm32mp1-openstlinux-5.10-dunfell-mp1-21-11-17/sources/arm-ostl-linux-gnueabi/optee-os-stm32mp-3.12.0-stm32mp-r2-r0/optee-os-stm32mp-3.12.0-stm32mp-r2/lib/libutils/ext/snprintk.c:282
    133e:	9a0e      	ldr	r2, [sp, #56]	; 0x38
    1340:	3201      	adds	r2, #1
    1342:	920e      	str	r2, [sp, #56]	; 0x38
/home/frank/TrustSQLite/stm32mp1-openstlinux-5.10-dunfell-mp1-21-11-17/sources/arm-ostl-linux-gnueabi/optee-os-stm32mp-3.12.0-stm32mp-r2-r0/optee-os-stm32mp-3.12.0-stm32mp-r2/lib/libutils/ext/snprintk.c:283
    1344:	f1b8 0f00 	cmp.w	r8, #0
    1348:	d006      	beq.n	1358 <kprintf.constprop.0+0x58>
    134a:	9a0d      	ldr	r2, [sp, #52]	; 0x34
    134c:	b112      	cbz	r2, 1354 <kprintf.constprop.0+0x54>
    134e:	9a10      	ldr	r2, [sp, #64]	; 0x40
    1350:	4590      	cmp	r8, r2
    1352:	d201      	bcs.n	1358 <kprintf.constprop.0+0x58>
    1354:	f808 3b01 	strb.w	r3, [r8], #1
/home/frank/TrustSQLite/stm32mp1-openstlinux-5.10-dunfell-mp1-21-11-17/sources/arm-ostl-linux-gnueabi/optee-os-stm32mp-3.12.0-stm32mp-r2-r0/optee-os-stm32mp-3.12.0-stm32mp-r2/lib/libutils/ext/snprintk.c:281
    1358:	9b0b      	ldr	r3, [sp, #44]	; 0x2c
    135a:	3301      	adds	r3, #1
    135c:	930b      	str	r3, [sp, #44]	; 0x2c
    135e:	e7df      	b.n	1320 <kprintf.constprop.0+0x20>
/home/frank/TrustSQLite/stm32mp1-openstlinux-5.10-dunfell-mp1-21-11-17/sources/arm-ostl-linux-gnueabi/optee-os-stm32mp-3.12.0-stm32mp-r2-r0/optee-os-stm32mp-3.12.0-stm32mp-r2/lib/libutils/ext/snprintk.c:288
    1360:	980b      	ldr	r0, [sp, #44]	; 0x2c
/home/frank/TrustSQLite/stm32mp1-openstlinux-5.10-dunfell-mp1-21-11-17/sources/arm-ostl-linux-gnueabi/optee-os-stm32mp-3.12.0-stm32mp-r2-r0/optee-os-stm32mp-3.12.0-stm32mp-r2/lib/libutils/ext/snprintk.c:294
    1362:	f04f 0900 	mov.w	r9, #0
/home/frank/TrustSQLite/stm32mp1-openstlinux-5.10-dunfell-mp1-21-11-17/sources/arm-ostl-linux-gnueabi/optee-os-stm32mp-3.12.0-stm32mp-r2-r0/optee-os-stm32mp-3.12.0-stm32mp-r2/lib/libutils/ext/snprintk.c:292
    1366:	f8cd 903c 	str.w	r9, [sp, #60]	; 0x3c
/home/frank/TrustSQLite/stm32mp1-openstlinux-5.10-dunfell-mp1-21-11-17/sources/arm-ostl-linux-gnueabi/optee-os-stm32mp-3.12.0-stm32mp-r2-r0/optee-os-stm32mp-3.12.0-stm32mp-r2/lib/libutils/ext/snprintk.c:288
    136a:	463b      	mov	r3, r7
    136c:	3001      	adds	r0, #1
/home/frank/TrustSQLite/stm32mp1-openstlinux-5.10-dunfell-mp1-21-11-17/sources/arm-ostl-linux-gnueabi/optee-os-stm32mp-3.12.0-stm32mp-r2-r0/optee-os-stm32mp-3.12.0-stm32mp-r2/lib/libutils/ext/snprintk.c:293
    136e:	f04f 3bff 	mov.w	fp, #4294967295	; 0xffffffff
/home/frank/TrustSQLite/stm32mp1-openstlinux-5.10-dunfell-mp1-21-11-17/sources/arm-ostl-linux-gnueabi/optee-os-stm32mp-3.12.0-stm32mp-r2-r0/optee-os-stm32mp-3.12.0-stm32mp-r2/lib/libutils/ext/snprintk.c:290
    1372:	464e      	mov	r6, r9
/home/frank/TrustSQLite/stm32mp1-openstlinux-5.10-dunfell-mp1-21-11-17/sources/arm-ostl-linux-gnueabi/optee-os-stm32mp-3.12.0-stm32mp-r2-r0/optee-os-stm32mp-3.12.0-stm32mp-r2/lib/libutils/ext/snprintk.c:296
    1374:	4601      	mov	r1, r0
    1376:	f811 2b01 	ldrb.w	r2, [r1], #1
    137a:	920c      	str	r2, [sp, #48]	; 0x30
    137c:	910b      	str	r1, [sp, #44]	; 0x2c
/home/frank/TrustSQLite/stm32mp1-openstlinux-5.10-dunfell-mp1-21-11-17/sources/arm-ostl-linux-gnueabi/optee-os-stm32mp-3.12.0-stm32mp-r2-r0/optee-os-stm32mp-3.12.0-stm32mp-r2/lib/libutils/ext/snprintk.c:297
    137e:	9a0c      	ldr	r2, [sp, #48]	; 0x30
    1380:	2a39      	cmp	r2, #57	; 0x39
    1382:	dc6f      	bgt.n	1464 <kprintf.constprop.0+0x164>
    1384:	2a1f      	cmp	r2, #31
    1386:	f340 82ae 	ble.w	18e6 <kprintf.constprop.0+0x5e6>
    138a:	9a0c      	ldr	r2, [sp, #48]	; 0x30
    138c:	3a20      	subs	r2, #32
    138e:	2a19      	cmp	r2, #25
    1390:	d86c      	bhi.n	146c <kprintf.constprop.0+0x16c>
    1392:	e8df f002 	tbb	[pc, r2]
    1396:	6b70      	.short	0x6b70
    1398:	6b6b766b 	.word	0x6b6b766b
    139c:	6b6b6b6b 	.word	0x6b6b6b6b
    13a0:	826b0d79 	.word	0x826b0d79
    13a4:	a5a26b85 	.word	0xa5a26b85
    13a8:	a5a5a5a5 	.word	0xa5a5a5a5
    13ac:	a5a5a5a5 	.word	0xa5a5a5a5
/home/frank/TrustSQLite/stm32mp1-openstlinux-5.10-dunfell-mp1-21-11-17/sources/arm-ostl-linux-gnueabi/optee-os-stm32mp-3.12.0-stm32mp-r2-r0/optee-os-stm32mp-3.12.0-stm32mp-r2/lib/libutils/ext/snprintk.c:325
    13b0:	f04f 092b 	mov.w	r9, #43	; 0x2b
/home/frank/TrustSQLite/stm32mp1-openstlinux-5.10-dunfell-mp1-21-11-17/sources/arm-ostl-linux-gnueabi/optee-os-stm32mp-3.12.0-stm32mp-r2-r0/optee-os-stm32mp-3.12.0-stm32mp-r2/lib/libutils/ext/snprintk.c:317
    13b4:	980b      	ldr	r0, [sp, #44]	; 0x2c
    13b6:	e7dd      	b.n	1374 <kprintf.constprop.0+0x74>
    13b8:	463b      	mov	r3, r7
    13ba:	e7fb      	b.n	13b4 <kprintf.constprop.0+0xb4>
    13bc:	2a36      	cmp	r2, #54	; 0x36
    13be:	d855      	bhi.n	146c <kprintf.constprop.0+0x16c>
    13c0:	e8df f012 	tbh	[pc, r2, lsl #1]
    13c4:	005400c4 	.word	0x005400c4
    13c8:	00540054 	.word	0x00540054
    13cc:	00540054 	.word	0x00540054
    13d0:	00540054 	.word	0x00540054
    13d4:	00540054 	.word	0x00540054
    13d8:	01850054 	.word	0x01850054
    13dc:	00540054 	.word	0x00540054
    13e0:	00540054 	.word	0x00540054
    13e4:	02230054 	.word	0x02230054
    13e8:	00540054 	.word	0x00540054
    13ec:	00540255 	.word	0x00540255
    13f0:	00540054 	.word	0x00540054
    13f4:	00540054 	.word	0x00540054
    13f8:	00540054 	.word	0x00540054
    13fc:	00540054 	.word	0x00540054
    1400:	00b80054 	.word	0x00b80054
    1404:	005400c6 	.word	0x005400c6
    1408:	00540054 	.word	0x00540054
    140c:	00c6009f 	.word	0x00c6009f
    1410:	005400a2 	.word	0x005400a2
    1414:	005400a5 	.word	0x005400a5
    1418:	01870168 	.word	0x01870168
    141c:	00ac01b7 	.word	0x00ac01b7
    1420:	02050054 	.word	0x02050054
    1424:	022500b2 	.word	0x022500b2
    1428:	00540054 	.word	0x00540054
    142c:	00540037 	.word	0x00540037
    1430:	00b5      	.short	0x00b5
/home/frank/TrustSQLite/stm32mp1-openstlinux-5.10-dunfell-mp1-21-11-17/sources/arm-ostl-linux-gnueabi/optee-os-stm32mp-3.12.0-stm32mp-r2-r0/optee-os-stm32mp-3.12.0-stm32mp-r2/lib/libutils/ext/snprintk.c:480
    1432:	f8df 2568 	ldr.w	r2, [pc, #1384]	; 199c <kprintf.constprop.0+0x69c>
    1436:	447a      	add	r2, pc
    1438:	3211      	adds	r2, #17
/home/frank/TrustSQLite/stm32mp1-openstlinux-5.10-dunfell-mp1-21-11-17/sources/arm-ostl-linux-gnueabi/optee-os-stm32mp-3.12.0-stm32mp-r2-r0/optee-os-stm32mp-3.12.0-stm32mp-r2/lib/libutils/ext/snprintk.c:481
    143a:	0637      	lsls	r7, r6, #24
/home/frank/TrustSQLite/stm32mp1-openstlinux-5.10-dunfell-mp1-21-11-17/sources/arm-ostl-linux-gnueabi/optee-os-stm32mp-3.12.0-stm32mp-r2-r0/optee-os-stm32mp-3.12.0-stm32mp-r2/lib/libutils/ext/snprintk.c:477
    143c:	9211      	str	r2, [sp, #68]	; 0x44
/home/frank/TrustSQLite/stm32mp1-openstlinux-5.10-dunfell-mp1-21-11-17/sources/arm-ostl-linux-gnueabi/optee-os-stm32mp-3.12.0-stm32mp-r2-r0/optee-os-stm32mp-3.12.0-stm32mp-r2/lib/libutils/ext/snprintk.c:481
    143e:	f140 8219 	bpl.w	1874 <kprintf.constprop.0+0x574>
    1442:	1ddf      	adds	r7, r3, #7
    1444:	f027 0707 	bic.w	r7, r7, #7
    1448:	e8f7 4502 	ldrd	r4, r5, [r7], #8
/home/frank/TrustSQLite/stm32mp1-openstlinux-5.10-dunfell-mp1-21-11-17/sources/arm-ostl-linux-gnueabi/optee-os-stm32mp-3.12.0-stm32mp-r2-r0/optee-os-stm32mp-3.12.0-stm32mp-r2/lib/libutils/ext/snprintk.c:484
    144c:	07f3      	lsls	r3, r6, #31
    144e:	f140 81a9 	bpl.w	17a4 <kprintf.constprop.0+0x4a4>
    1452:	ea54 0305 	orrs.w	r3, r4, r5
/home/frank/TrustSQLite/stm32mp1-openstlinux-5.10-dunfell-mp1-21-11-17/sources/arm-ostl-linux-gnueabi/optee-os-stm32mp-3.12.0-stm32mp-r2-r0/optee-os-stm32mp-3.12.0-stm32mp-r2/lib/libutils/ext/snprintk.c:488
    1456:	f04f 0900 	mov.w	r9, #0
/home/frank/TrustSQLite/stm32mp1-openstlinux-5.10-dunfell-mp1-21-11-17/sources/arm-ostl-linux-gnueabi/optee-os-stm32mp-3.12.0-stm32mp-r2-r0/optee-os-stm32mp-3.12.0-stm32mp-r2/lib/libutils/ext/snprintk.c:485
    145a:	bf18      	it	ne
    145c:	f046 0602 	orrne.w	r6, r6, #2
/home/frank/TrustSQLite/stm32mp1-openstlinux-5.10-dunfell-mp1-21-11-17/sources/arm-ostl-linux-gnueabi/optee-os-stm32mp-3.12.0-stm32mp-r2-r0/optee-os-stm32mp-3.12.0-stm32mp-r2/lib/libutils/ext/snprintk.c:482
    1460:	2302      	movs	r3, #2
    1462:	e089      	b.n	1578 <kprintf.constprop.0+0x278>
/home/frank/TrustSQLite/stm32mp1-openstlinux-5.10-dunfell-mp1-21-11-17/sources/arm-ostl-linux-gnueabi/optee-os-stm32mp-3.12.0-stm32mp-r2-r0/optee-os-stm32mp-3.12.0-stm32mp-r2/lib/libutils/ext/snprintk.c:297
    1464:	9a0c      	ldr	r2, [sp, #48]	; 0x30
    1466:	3a44      	subs	r2, #68	; 0x44
    1468:	2a36      	cmp	r2, #54	; 0x36
    146a:	d9a7      	bls.n	13bc <kprintf.constprop.0+0xbc>
/home/frank/TrustSQLite/stm32mp1-openstlinux-5.10-dunfell-mp1-21-11-17/sources/arm-ostl-linux-gnueabi/optee-os-stm32mp-3.12.0-stm32mp-r2-r0/optee-os-stm32mp-3.12.0-stm32mp-r2/lib/libutils/ext/snprintk.c:551
    146c:	9a0c      	ldr	r2, [sp, #48]	; 0x30
/home/frank/TrustSQLite/stm32mp1-openstlinux-5.10-dunfell-mp1-21-11-17/sources/arm-ostl-linux-gnueabi/optee-os-stm32mp-3.12.0-stm32mp-r2-r0/optee-os-stm32mp-3.12.0-stm32mp-r2/lib/libutils/ext/snprintk.c:554
    146e:	461f      	mov	r7, r3
/home/frank/TrustSQLite/stm32mp1-openstlinux-5.10-dunfell-mp1-21-11-17/sources/arm-ostl-linux-gnueabi/optee-os-stm32mp-3.12.0-stm32mp-r2-r0/optee-os-stm32mp-3.12.0-stm32mp-r2/lib/libutils/ext/snprintk.c:551
    1470:	f88d 2050 	strb.w	r2, [sp, #80]	; 0x50
/home/frank/TrustSQLite/stm32mp1-openstlinux-5.10-dunfell-mp1-21-11-17/sources/arm-ostl-linux-gnueabi/optee-os-stm32mp-3.12.0-stm32mp-r2-r0/optee-os-stm32mp-3.12.0-stm32mp-r2/lib/libutils/ext/snprintk.c:554
    1474:	e063      	b.n	153e <kprintf.constprop.0+0x23e>
/home/frank/TrustSQLite/stm32mp1-openstlinux-5.10-dunfell-mp1-21-11-17/sources/arm-ostl-linux-gnueabi/optee-os-stm32mp-3.12.0-stm32mp-r2-r0/optee-os-stm32mp-3.12.0-stm32mp-r2/lib/libutils/ext/snprintk.c:305
    1476:	f1b9 0f00 	cmp.w	r9, #0
    147a:	bf08      	it	eq
    147c:	f04f 0920 	moveq.w	r9, #32
    1480:	e798      	b.n	13b4 <kprintf.constprop.0+0xb4>
/home/frank/TrustSQLite/stm32mp1-openstlinux-5.10-dunfell-mp1-21-11-17/sources/arm-ostl-linux-gnueabi/optee-os-stm32mp-3.12.0-stm32mp-r2-r0/optee-os-stm32mp-3.12.0-stm32mp-r2/lib/libutils/ext/snprintk.c:308
    1482:	f046 0601 	orr.w	r6, r6, #1
/home/frank/TrustSQLite/stm32mp1-openstlinux-5.10-dunfell-mp1-21-11-17/sources/arm-ostl-linux-gnueabi/optee-os-stm32mp-3.12.0-stm32mp-r2-r0/optee-os-stm32mp-3.12.0-stm32mp-r2/lib/libutils/ext/snprintk.c:309
    1486:	e795      	b.n	13b4 <kprintf.constprop.0+0xb4>
/home/frank/TrustSQLite/stm32mp1-openstlinux-5.10-dunfell-mp1-21-11-17/sources/arm-ostl-linux-gnueabi/optee-os-stm32mp-3.12.0-stm32mp-r2-r0/optee-os-stm32mp-3.12.0-stm32mp-r2/lib/libutils/ext/snprintk.c:317
    1488:	461f      	mov	r7, r3
    148a:	f857 3b04 	ldr.w	r3, [r7], #4
    148e:	930f      	str	r3, [sp, #60]	; 0x3c
    1490:	2b00      	cmp	r3, #0
    1492:	da91      	bge.n	13b8 <kprintf.constprop.0+0xb8>
/home/frank/TrustSQLite/stm32mp1-openstlinux-5.10-dunfell-mp1-21-11-17/sources/arm-ostl-linux-gnueabi/optee-os-stm32mp-3.12.0-stm32mp-r2-r0/optee-os-stm32mp-3.12.0-stm32mp-r2/lib/libutils/ext/snprintk.c:319
    1494:	425b      	negs	r3, r3
    1496:	930f      	str	r3, [sp, #60]	; 0x3c
/home/frank/TrustSQLite/stm32mp1-openstlinux-5.10-dunfell-mp1-21-11-17/sources/arm-ostl-linux-gnueabi/optee-os-stm32mp-3.12.0-stm32mp-r2-r0/optee-os-stm32mp-3.12.0-stm32mp-r2/lib/libutils/ext/snprintk.c:317
    1498:	463b      	mov	r3, r7
/home/frank/TrustSQLite/stm32mp1-openstlinux-5.10-dunfell-mp1-21-11-17/sources/arm-ostl-linux-gnueabi/optee-os-stm32mp-3.12.0-stm32mp-r2-r0/optee-os-stm32mp-3.12.0-stm32mp-r2/lib/libutils/ext/snprintk.c:322
    149a:	f046 0604 	orr.w	r6, r6, #4
/home/frank/TrustSQLite/stm32mp1-openstlinux-5.10-dunfell-mp1-21-11-17/sources/arm-ostl-linux-gnueabi/optee-os-stm32mp-3.12.0-stm32mp-r2-r0/optee-os-stm32mp-3.12.0-stm32mp-r2/lib/libutils/ext/snprintk.c:323
    149e:	e789      	b.n	13b4 <kprintf.constprop.0+0xb4>
/home/frank/TrustSQLite/stm32mp1-openstlinux-5.10-dunfell-mp1-21-11-17/sources/arm-ostl-linux-gnueabi/optee-os-stm32mp-3.12.0-stm32mp-r2-r0/optee-os-stm32mp-3.12.0-stm32mp-r2/lib/libutils/ext/snprintk.c:328
    14a0:	980b      	ldr	r0, [sp, #44]	; 0x2c
    14a2:	f810 2b01 	ldrb.w	r2, [r0], #1
    14a6:	920c      	str	r2, [sp, #48]	; 0x30
    14a8:	2a2a      	cmp	r2, #42	; 0x2a
    14aa:	d113      	bne.n	14d4 <kprintf.constprop.0+0x1d4>
    14ac:	900b      	str	r0, [sp, #44]	; 0x2c
/home/frank/TrustSQLite/stm32mp1-openstlinux-5.10-dunfell-mp1-21-11-17/sources/arm-ostl-linux-gnueabi/optee-os-stm32mp-3.12.0-stm32mp-r2-r0/optee-os-stm32mp-3.12.0-stm32mp-r2/lib/libutils/ext/snprintk.c:329
    14ae:	461f      	mov	r7, r3
/home/frank/TrustSQLite/stm32mp1-openstlinux-5.10-dunfell-mp1-21-11-17/sources/arm-ostl-linux-gnueabi/optee-os-stm32mp-3.12.0-stm32mp-r2-r0/optee-os-stm32mp-3.12.0-stm32mp-r2/lib/libutils/ext/snprintk.c:330
    14b0:	f857 3b04 	ldr.w	r3, [r7], #4
    14b4:	ea43 7be3 	orr.w	fp, r3, r3, asr #31
/home/frank/TrustSQLite/stm32mp1-openstlinux-5.10-dunfell-mp1-21-11-17/sources/arm-ostl-linux-gnueabi/optee-os-stm32mp-3.12.0-stm32mp-r2-r0/optee-os-stm32mp-3.12.0-stm32mp-r2/lib/libutils/ext/snprintk.c:329
    14b8:	463b      	mov	r3, r7
/home/frank/TrustSQLite/stm32mp1-openstlinux-5.10-dunfell-mp1-21-11-17/sources/arm-ostl-linux-gnueabi/optee-os-stm32mp-3.12.0-stm32mp-r2-r0/optee-os-stm32mp-3.12.0-stm32mp-r2/lib/libutils/ext/snprintk.c:331
    14ba:	e77b      	b.n	13b4 <kprintf.constprop.0+0xb4>
/home/frank/TrustSQLite/stm32mp1-openstlinux-5.10-dunfell-mp1-21-11-17/sources/arm-ostl-linux-gnueabi/optee-os-stm32mp-3.12.0-stm32mp-r2-r0/optee-os-stm32mp-3.12.0-stm32mp-r2/lib/libutils/ext/snprintk.c:335
    14bc:	210a      	movs	r1, #10
    14be:	fb01 2b0b 	mla	fp, r1, fp, r2
/home/frank/TrustSQLite/stm32mp1-openstlinux-5.10-dunfell-mp1-21-11-17/sources/arm-ostl-linux-gnueabi/optee-os-stm32mp-3.12.0-stm32mp-r2-r0/optee-os-stm32mp-3.12.0-stm32mp-r2/lib/libutils/ext/snprintk.c:336
    14c2:	f810 2b01 	ldrb.w	r2, [r0], #1
    14c6:	920c      	str	r2, [sp, #48]	; 0x30
/home/frank/TrustSQLite/stm32mp1-openstlinux-5.10-dunfell-mp1-21-11-17/sources/arm-ostl-linux-gnueabi/optee-os-stm32mp-3.12.0-stm32mp-r2-r0/optee-os-stm32mp-3.12.0-stm32mp-r2/lib/libutils/ext/snprintk.c:334
    14c8:	9a0c      	ldr	r2, [sp, #48]	; 0x30
    14ca:	3a30      	subs	r2, #48	; 0x30
    14cc:	2a09      	cmp	r2, #9
    14ce:	d9f5      	bls.n	14bc <kprintf.constprop.0+0x1bc>
/home/frank/TrustSQLite/stm32mp1-openstlinux-5.10-dunfell-mp1-21-11-17/sources/arm-ostl-linux-gnueabi/optee-os-stm32mp-3.12.0-stm32mp-r2-r0/optee-os-stm32mp-3.12.0-stm32mp-r2/lib/libutils/ext/snprintk.c:290
    14d0:	900b      	str	r0, [sp, #44]	; 0x2c
    14d2:	e754      	b.n	137e <kprintf.constprop.0+0x7e>
/home/frank/TrustSQLite/stm32mp1-openstlinux-5.10-dunfell-mp1-21-11-17/sources/arm-ostl-linux-gnueabi/optee-os-stm32mp-3.12.0-stm32mp-r2-r0/optee-os-stm32mp-3.12.0-stm32mp-r2/lib/libutils/ext/snprintk.c:333
    14d4:	f04f 0b00 	mov.w	fp, #0
    14d8:	e7f6      	b.n	14c8 <kprintf.constprop.0+0x1c8>
/home/frank/TrustSQLite/stm32mp1-openstlinux-5.10-dunfell-mp1-21-11-17/sources/arm-ostl-linux-gnueabi/optee-os-stm32mp-3.12.0-stm32mp-r2-r0/optee-os-stm32mp-3.12.0-stm32mp-r2/lib/libutils/ext/snprintk.c:346
    14da:	f446 6680 	orr.w	r6, r6, #1024	; 0x400
/home/frank/TrustSQLite/stm32mp1-openstlinux-5.10-dunfell-mp1-21-11-17/sources/arm-ostl-linux-gnueabi/optee-os-stm32mp-3.12.0-stm32mp-r2-r0/optee-os-stm32mp-3.12.0-stm32mp-r2/lib/libutils/ext/snprintk.c:347
    14de:	e769      	b.n	13b4 <kprintf.constprop.0+0xb4>
/home/frank/TrustSQLite/stm32mp1-openstlinux-5.10-dunfell-mp1-21-11-17/sources/arm-ostl-linux-gnueabi/optee-os-stm32mp-3.12.0-stm32mp-r2-r0/optee-os-stm32mp-3.12.0-stm32mp-r2/lib/libutils/ext/snprintk.c:297
    14e0:	980b      	ldr	r0, [sp, #44]	; 0x2c
    14e2:	2200      	movs	r2, #0
    14e4:	920f      	str	r2, [sp, #60]	; 0x3c
/home/frank/TrustSQLite/stm32mp1-openstlinux-5.10-dunfell-mp1-21-11-17/sources/arm-ostl-linux-gnueabi/optee-os-stm32mp-3.12.0-stm32mp-r2-r0/optee-os-stm32mp-3.12.0-stm32mp-r2/lib/libutils/ext/snprintk.c:352
    14e6:	9a0c      	ldr	r2, [sp, #48]	; 0x30
    14e8:	240a      	movs	r4, #10
    14ea:	990f      	ldr	r1, [sp, #60]	; 0x3c
    14ec:	3a30      	subs	r2, #48	; 0x30
    14ee:	fb04 2201 	mla	r2, r4, r1, r2
    14f2:	920f      	str	r2, [sp, #60]	; 0x3c
/home/frank/TrustSQLite/stm32mp1-openstlinux-5.10-dunfell-mp1-21-11-17/sources/arm-ostl-linux-gnueabi/optee-os-stm32mp-3.12.0-stm32mp-r2-r0/optee-os-stm32mp-3.12.0-stm32mp-r2/lib/libutils/ext/snprintk.c:353
    14f4:	f810 2b01 	ldrb.w	r2, [r0], #1
    14f8:	920c      	str	r2, [sp, #48]	; 0x30
/home/frank/TrustSQLite/stm32mp1-openstlinux-5.10-dunfell-mp1-21-11-17/sources/arm-ostl-linux-gnueabi/optee-os-stm32mp-3.12.0-stm32mp-r2-r0/optee-os-stm32mp-3.12.0-stm32mp-r2/lib/libutils/ext/snprintk.c:354
    14fa:	3a30      	subs	r2, #48	; 0x30
    14fc:	2a09      	cmp	r2, #9
    14fe:	d9f2      	bls.n	14e6 <kprintf.constprop.0+0x1e6>
    1500:	e7e6      	b.n	14d0 <kprintf.constprop.0+0x1d0>
/home/frank/TrustSQLite/stm32mp1-openstlinux-5.10-dunfell-mp1-21-11-17/sources/arm-ostl-linux-gnueabi/optee-os-stm32mp-3.12.0-stm32mp-r2-r0/optee-os-stm32mp-3.12.0-stm32mp-r2/lib/libutils/ext/snprintk.c:358
    1502:	f046 0640 	orr.w	r6, r6, #64	; 0x40
/home/frank/TrustSQLite/stm32mp1-openstlinux-5.10-dunfell-mp1-21-11-17/sources/arm-ostl-linux-gnueabi/optee-os-stm32mp-3.12.0-stm32mp-r2-r0/optee-os-stm32mp-3.12.0-stm32mp-r2/lib/libutils/ext/snprintk.c:359
    1506:	e755      	b.n	13b4 <kprintf.constprop.0+0xb4>
/home/frank/TrustSQLite/stm32mp1-openstlinux-5.10-dunfell-mp1-21-11-17/sources/arm-ostl-linux-gnueabi/optee-os-stm32mp-3.12.0-stm32mp-r2-r0/optee-os-stm32mp-3.12.0-stm32mp-r2/lib/libutils/ext/snprintk.c:361
    1508:	f046 0680 	orr.w	r6, r6, #128	; 0x80
/home/frank/TrustSQLite/stm32mp1-openstlinux-5.10-dunfell-mp1-21-11-17/sources/arm-ostl-linux-gnueabi/optee-os-stm32mp-3.12.0-stm32mp-r2-r0/optee-os-stm32mp-3.12.0-stm32mp-r2/lib/libutils/ext/snprintk.c:362
    150c:	e752      	b.n	13b4 <kprintf.constprop.0+0xb4>
/home/frank/TrustSQLite/stm32mp1-openstlinux-5.10-dunfell-mp1-21-11-17/sources/arm-ostl-linux-gnueabi/optee-os-stm32mp-3.12.0-stm32mp-r2-r0/optee-os-stm32mp-3.12.0-stm32mp-r2/lib/libutils/ext/snprintk.c:364
    150e:	9a0b      	ldr	r2, [sp, #44]	; 0x2c
    1510:	7812      	ldrb	r2, [r2, #0]
    1512:	2a6c      	cmp	r2, #108	; 0x6c
    1514:	d105      	bne.n	1522 <kprintf.constprop.0+0x222>
    1516:	9a0b      	ldr	r2, [sp, #44]	; 0x2c
    1518:	3201      	adds	r2, #1
    151a:	920b      	str	r2, [sp, #44]	; 0x2c
/home/frank/TrustSQLite/stm32mp1-openstlinux-5.10-dunfell-mp1-21-11-17/sources/arm-ostl-linux-gnueabi/optee-os-stm32mp-3.12.0-stm32mp-r2-r0/optee-os-stm32mp-3.12.0-stm32mp-r2/lib/libutils/ext/snprintk.c:372
    151c:	f046 0620 	orr.w	r6, r6, #32
/home/frank/TrustSQLite/stm32mp1-openstlinux-5.10-dunfell-mp1-21-11-17/sources/arm-ostl-linux-gnueabi/optee-os-stm32mp-3.12.0-stm32mp-r2-r0/optee-os-stm32mp-3.12.0-stm32mp-r2/lib/libutils/ext/snprintk.c:373
    1520:	e748      	b.n	13b4 <kprintf.constprop.0+0xb4>
/home/frank/TrustSQLite/stm32mp1-openstlinux-5.10-dunfell-mp1-21-11-17/sources/arm-ostl-linux-gnueabi/optee-os-stm32mp-3.12.0-stm32mp-r2-r0/optee-os-stm32mp-3.12.0-stm32mp-r2/lib/libutils/ext/snprintk.c:368
    1522:	f046 0610 	orr.w	r6, r6, #16
    1526:	e745      	b.n	13b4 <kprintf.constprop.0+0xb4>
/home/frank/TrustSQLite/stm32mp1-openstlinux-5.10-dunfell-mp1-21-11-17/sources/arm-ostl-linux-gnueabi/optee-os-stm32mp-3.12.0-stm32mp-r2-r0/optee-os-stm32mp-3.12.0-stm32mp-r2/lib/libutils/ext/snprintk.c:375
    1528:	f446 7680 	orr.w	r6, r6, #256	; 0x100
/home/frank/TrustSQLite/stm32mp1-openstlinux-5.10-dunfell-mp1-21-11-17/sources/arm-ostl-linux-gnueabi/optee-os-stm32mp-3.12.0-stm32mp-r2-r0/optee-os-stm32mp-3.12.0-stm32mp-r2/lib/libutils/ext/snprintk.c:376
    152c:	e742      	b.n	13b4 <kprintf.constprop.0+0xb4>
/home/frank/TrustSQLite/stm32mp1-openstlinux-5.10-dunfell-mp1-21-11-17/sources/arm-ostl-linux-gnueabi/optee-os-stm32mp-3.12.0-stm32mp-r2-r0/optee-os-stm32mp-3.12.0-stm32mp-r2/lib/libutils/ext/snprintk.c:378
    152e:	f446 7600 	orr.w	r6, r6, #512	; 0x200
/home/frank/TrustSQLite/stm32mp1-openstlinux-5.10-dunfell-mp1-21-11-17/sources/arm-ostl-linux-gnueabi/optee-os-stm32mp-3.12.0-stm32mp-r2-r0/optee-os-stm32mp-3.12.0-stm32mp-r2/lib/libutils/ext/snprintk.c:379
    1532:	e73f      	b.n	13b4 <kprintf.constprop.0+0xb4>
/home/frank/TrustSQLite/stm32mp1-openstlinux-5.10-dunfell-mp1-21-11-17/sources/arm-ostl-linux-gnueabi/optee-os-stm32mp-3.12.0-stm32mp-r2-r0/optee-os-stm32mp-3.12.0-stm32mp-r2/lib/libutils/ext/snprintk.c:381
    1534:	461f      	mov	r7, r3
    1536:	f857 3b04 	ldr.w	r3, [r7], #4
    153a:	f88d 3050 	strb.w	r3, [sp, #80]	; 0x50
/home/frank/TrustSQLite/stm32mp1-openstlinux-5.10-dunfell-mp1-21-11-17/sources/arm-ostl-linux-gnueabi/optee-os-stm32mp-3.12.0-stm32mp-r2-r0/optee-os-stm32mp-3.12.0-stm32mp-r2/lib/libutils/ext/snprintk.c:291
    153e:	2000      	movs	r0, #0
/home/frank/TrustSQLite/stm32mp1-openstlinux-5.10-dunfell-mp1-21-11-17/sources/arm-ostl-linux-gnueabi/optee-os-stm32mp-3.12.0-stm32mp-r2-r0/optee-os-stm32mp-3.12.0-stm32mp-r2/lib/libutils/ext/snprintk.c:552
    1540:	f04f 0b01 	mov.w	fp, #1
/home/frank/TrustSQLite/stm32mp1-openstlinux-5.10-dunfell-mp1-21-11-17/sources/arm-ostl-linux-gnueabi/optee-os-stm32mp-3.12.0-stm32mp-r2-r0/optee-os-stm32mp-3.12.0-stm32mp-r2/lib/libutils/ext/snprintk.c:553
    1544:	4681      	mov	r9, r0
/home/frank/TrustSQLite/stm32mp1-openstlinux-5.10-dunfell-mp1-21-11-17/sources/arm-ostl-linux-gnueabi/optee-os-stm32mp-3.12.0-stm32mp-r2-r0/optee-os-stm32mp-3.12.0-stm32mp-r2/lib/libutils/ext/snprintk.c:550
    1546:	f10d 0a50 	add.w	sl, sp, #80	; 0x50
/home/frank/TrustSQLite/stm32mp1-openstlinux-5.10-dunfell-mp1-21-11-17/sources/arm-ostl-linux-gnueabi/optee-os-stm32mp-3.12.0-stm32mp-r2-r0/optee-os-stm32mp-3.12.0-stm32mp-r2/lib/libutils/ext/snprintk.c:554
    154a:	e03c      	b.n	15c6 <kprintf.constprop.0+0x2c6>
/home/frank/TrustSQLite/stm32mp1-openstlinux-5.10-dunfell-mp1-21-11-17/sources/arm-ostl-linux-gnueabi/optee-os-stm32mp-3.12.0-stm32mp-r2-r0/optee-os-stm32mp-3.12.0-stm32mp-r2/lib/libutils/ext/snprintk.c:386
    154c:	f046 0610 	orr.w	r6, r6, #16
/home/frank/TrustSQLite/stm32mp1-openstlinux-5.10-dunfell-mp1-21-11-17/sources/arm-ostl-linux-gnueabi/optee-os-stm32mp-3.12.0-stm32mp-r2-r0/optee-os-stm32mp-3.12.0-stm32mp-r2/lib/libutils/ext/snprintk.c:390
    1550:	0637      	lsls	r7, r6, #24
    1552:	f140 8087 	bpl.w	1664 <kprintf.constprop.0+0x364>
    1556:	1ddf      	adds	r7, r3, #7
    1558:	f027 0707 	bic.w	r7, r7, #7
    155c:	e8f7 4502 	ldrd	r4, r5, [r7], #8
/home/frank/TrustSQLite/stm32mp1-openstlinux-5.10-dunfell-mp1-21-11-17/sources/arm-ostl-linux-gnueabi/optee-os-stm32mp-3.12.0-stm32mp-r2-r0/optee-os-stm32mp-3.12.0-stm32mp-r2/lib/libutils/ext/snprintk.c:391
    1560:	2c00      	cmp	r4, #0
    1562:	f175 0300 	sbcs.w	r3, r5, #0
    1566:	f280 815c 	bge.w	1822 <kprintf.constprop.0+0x522>
/home/frank/TrustSQLite/stm32mp1-openstlinux-5.10-dunfell-mp1-21-11-17/sources/arm-ostl-linux-gnueabi/optee-os-stm32mp-3.12.0-stm32mp-r2-r0/optee-os-stm32mp-3.12.0-stm32mp-r2/lib/libutils/ext/snprintk.c:392
    156a:	4264      	negs	r4, r4
/home/frank/TrustSQLite/stm32mp1-openstlinux-5.10-dunfell-mp1-21-11-17/sources/arm-ostl-linux-gnueabi/optee-os-stm32mp-3.12.0-stm32mp-r2-r0/optee-os-stm32mp-3.12.0-stm32mp-r2/lib/libutils/ext/snprintk.c:395
    156c:	f04f 0301 	mov.w	r3, #1
/home/frank/TrustSQLite/stm32mp1-openstlinux-5.10-dunfell-mp1-21-11-17/sources/arm-ostl-linux-gnueabi/optee-os-stm32mp-3.12.0-stm32mp-r2-r0/optee-os-stm32mp-3.12.0-stm32mp-r2/lib/libutils/ext/snprintk.c:393
    1570:	f04f 092d 	mov.w	r9, #45	; 0x2d
/home/frank/TrustSQLite/stm32mp1-openstlinux-5.10-dunfell-mp1-21-11-17/sources/arm-ostl-linux-gnueabi/optee-os-stm32mp-3.12.0-stm32mp-r2-r0/optee-os-stm32mp-3.12.0-stm32mp-r2/lib/libutils/ext/snprintk.c:392
    1574:	eb65 0545 	sbc.w	r5, r5, r5, lsl #1
/home/frank/TrustSQLite/stm32mp1-openstlinux-5.10-dunfell-mp1-21-11-17/sources/arm-ostl-linux-gnueabi/optee-os-stm32mp-3.12.0-stm32mp-r2-r0/optee-os-stm32mp-3.12.0-stm32mp-r2/lib/libutils/ext/snprintk.c:494
    1578:	f1bb 3fff 	cmp.w	fp, #4294967295	; 0xffffffff
    157c:	f040 80b7 	bne.w	16ee <kprintf.constprop.0+0x3ee>
/home/frank/TrustSQLite/stm32mp1-openstlinux-5.10-dunfell-mp1-21-11-17/sources/arm-ostl-linux-gnueabi/optee-os-stm32mp-3.12.0-stm32mp-r2-r0/optee-os-stm32mp-3.12.0-stm32mp-r2/lib/libutils/ext/snprintk.c:509
    1580:	2b01      	cmp	r3, #1
    1582:	f000 8151 	beq.w	1828 <kprintf.constprop.0+0x528>
    1586:	2b02      	cmp	r3, #2
    1588:	f000 8111 	beq.w	17ae <kprintf.constprop.0+0x4ae>
/home/frank/TrustSQLite/stm32mp1-openstlinux-5.10-dunfell-mp1-21-11-17/sources/arm-ostl-linux-gnueabi/optee-os-stm32mp-3.12.0-stm32mp-r2-r0/optee-os-stm32mp-3.12.0-stm32mp-r2/lib/libutils/ext/snprintk.c:494
    158c:	f10d 0a75 	add.w	sl, sp, #117	; 0x75
/home/frank/TrustSQLite/stm32mp1-openstlinux-5.10-dunfell-mp1-21-11-17/sources/arm-ostl-linux-gnueabi/optee-os-stm32mp-3.12.0-stm32mp-r2-r0/optee-os-stm32mp-3.12.0-stm32mp-r2/lib/libutils/ext/snprintk.c:512
    1590:	f004 0307 	and.w	r3, r4, #7
    1594:	4652      	mov	r2, sl
/home/frank/TrustSQLite/stm32mp1-openstlinux-5.10-dunfell-mp1-21-11-17/sources/arm-ostl-linux-gnueabi/optee-os-stm32mp-3.12.0-stm32mp-r2-r0/optee-os-stm32mp-3.12.0-stm32mp-r2/lib/libutils/ext/snprintk.c:513
    1596:	08e4      	lsrs	r4, r4, #3
/home/frank/TrustSQLite/stm32mp1-openstlinux-5.10-dunfell-mp1-21-11-17/sources/arm-ostl-linux-gnueabi/optee-os-stm32mp-3.12.0-stm32mp-r2-r0/optee-os-stm32mp-3.12.0-stm32mp-r2/lib/libutils/ext/snprintk.c:512
    1598:	3330      	adds	r3, #48	; 0x30
/home/frank/TrustSQLite/stm32mp1-openstlinux-5.10-dunfell-mp1-21-11-17/sources/arm-ostl-linux-gnueabi/optee-os-stm32mp-3.12.0-stm32mp-r2-r0/optee-os-stm32mp-3.12.0-stm32mp-r2/lib/libutils/ext/snprintk.c:513
    159a:	ea44 7445 	orr.w	r4, r4, r5, lsl #29
    159e:	08ed      	lsrs	r5, r5, #3
/home/frank/TrustSQLite/stm32mp1-openstlinux-5.10-dunfell-mp1-21-11-17/sources/arm-ostl-linux-gnueabi/optee-os-stm32mp-3.12.0-stm32mp-r2-r0/optee-os-stm32mp-3.12.0-stm32mp-r2/lib/libutils/ext/snprintk.c:514
    15a0:	ea54 0105 	orrs.w	r1, r4, r5
/home/frank/TrustSQLite/stm32mp1-openstlinux-5.10-dunfell-mp1-21-11-17/sources/arm-ostl-linux-gnueabi/optee-os-stm32mp-3.12.0-stm32mp-r2-r0/optee-os-stm32mp-3.12.0-stm32mp-r2/lib/libutils/ext/snprintk.c:512
    15a4:	f80a 3d01 	strb.w	r3, [sl, #-1]!
/home/frank/TrustSQLite/stm32mp1-openstlinux-5.10-dunfell-mp1-21-11-17/sources/arm-ostl-linux-gnueabi/optee-os-stm32mp-3.12.0-stm32mp-r2-r0/optee-os-stm32mp-3.12.0-stm32mp-r2/lib/libutils/ext/snprintk.c:514
    15a8:	d1f2      	bne.n	1590 <kprintf.constprop.0+0x290>
/home/frank/TrustSQLite/stm32mp1-openstlinux-5.10-dunfell-mp1-21-11-17/sources/arm-ostl-linux-gnueabi/optee-os-stm32mp-3.12.0-stm32mp-r2-r0/optee-os-stm32mp-3.12.0-stm32mp-r2/lib/libutils/ext/snprintk.c:516
    15aa:	07f5      	lsls	r5, r6, #31
    15ac:	d506      	bpl.n	15bc <kprintf.constprop.0+0x2bc>
    15ae:	2b30      	cmp	r3, #48	; 0x30
    15b0:	d004      	beq.n	15bc <kprintf.constprop.0+0x2bc>
/home/frank/TrustSQLite/stm32mp1-openstlinux-5.10-dunfell-mp1-21-11-17/sources/arm-ostl-linux-gnueabi/optee-os-stm32mp-3.12.0-stm32mp-r2-r0/optee-os-stm32mp-3.12.0-stm32mp-r2/lib/libutils/ext/snprintk.c:517
    15b2:	2330      	movs	r3, #48	; 0x30
    15b4:	f80a 3c01 	strb.w	r3, [sl, #-1]
    15b8:	f1a2 0a02 	sub.w	sl, r2, #2
/home/frank/TrustSQLite/stm32mp1-openstlinux-5.10-dunfell-mp1-21-11-17/sources/arm-ostl-linux-gnueabi/optee-os-stm32mp-3.12.0-stm32mp-r2-r0/optee-os-stm32mp-3.12.0-stm32mp-r2/lib/libutils/ext/snprintk.c:543
    15bc:	f10d 0375 	add.w	r3, sp, #117	; 0x75
    15c0:	4658      	mov	r0, fp
    15c2:	eba3 0b0a 	sub.w	fp, r3, sl
/home/frank/TrustSQLite/stm32mp1-openstlinux-5.10-dunfell-mp1-21-11-17/sources/arm-ostl-linux-gnueabi/optee-os-stm32mp-3.12.0-stm32mp-r2-r0/optee-os-stm32mp-3.12.0-stm32mp-r2/lib/libutils/ext/snprintk.c:571
    15c6:	4558      	cmp	r0, fp
    15c8:	4603      	mov	r3, r0
    15ca:	bfb8      	it	lt
    15cc:	465b      	movlt	r3, fp
/home/frank/TrustSQLite/stm32mp1-openstlinux-5.10-dunfell-mp1-21-11-17/sources/arm-ostl-linux-gnueabi/optee-os-stm32mp-3.12.0-stm32mp-r2-r0/optee-os-stm32mp-3.12.0-stm32mp-r2/lib/libutils/ext/snprintk.c:572
    15ce:	f1b9 0f00 	cmp.w	r9, #0
    15d2:	f000 818d 	beq.w	18f0 <kprintf.constprop.0+0x5f0>
/home/frank/TrustSQLite/stm32mp1-openstlinux-5.10-dunfell-mp1-21-11-17/sources/arm-ostl-linux-gnueabi/optee-os-stm32mp-3.12.0-stm32mp-r2-r0/optee-os-stm32mp-3.12.0-stm32mp-r2/lib/libutils/ext/snprintk.c:573
    15d6:	3301      	adds	r3, #1
/home/frank/TrustSQLite/stm32mp1-openstlinux-5.10-dunfell-mp1-21-11-17/sources/arm-ostl-linux-gnueabi/optee-os-stm32mp-3.12.0-stm32mp-r2-r0/optee-os-stm32mp-3.12.0-stm32mp-r2/lib/libutils/ext/snprintk.c:578
    15d8:	9a0e      	ldr	r2, [sp, #56]	; 0x38
    15da:	990f      	ldr	r1, [sp, #60]	; 0x3c
    15dc:	428b      	cmp	r3, r1
    15de:	bfac      	ite	ge
    15e0:	18d2      	addge	r2, r2, r3
    15e2:	1852      	addlt	r2, r2, r1
    15e4:	920e      	str	r2, [sp, #56]	; 0x38
/home/frank/TrustSQLite/stm32mp1-openstlinux-5.10-dunfell-mp1-21-11-17/sources/arm-ostl-linux-gnueabi/optee-os-stm32mp-3.12.0-stm32mp-r2-r0/optee-os-stm32mp-3.12.0-stm32mp-r2/lib/libutils/ext/snprintk.c:581
    15e6:	f240 4204 	movw	r2, #1028	; 0x404
    15ea:	4032      	ands	r2, r6
    15ec:	d104      	bne.n	15f8 <kprintf.constprop.0+0x2f8>
/home/frank/TrustSQLite/stm32mp1-openstlinux-5.10-dunfell-mp1-21-11-17/sources/arm-ostl-linux-gnueabi/optee-os-stm32mp-3.12.0-stm32mp-r2-r0/optee-os-stm32mp-3.12.0-stm32mp-r2/lib/libutils/ext/snprintk.c:582
    15ee:	1ac9      	subs	r1, r1, r3
/home/frank/TrustSQLite/stm32mp1-openstlinux-5.10-dunfell-mp1-21-11-17/sources/arm-ostl-linux-gnueabi/optee-os-stm32mp-3.12.0-stm32mp-r2-r0/optee-os-stm32mp-3.12.0-stm32mp-r2/lib/libutils/ext/snprintk.c:584
    15f0:	2420      	movs	r4, #32
/home/frank/TrustSQLite/stm32mp1-openstlinux-5.10-dunfell-mp1-21-11-17/sources/arm-ostl-linux-gnueabi/optee-os-stm32mp-3.12.0-stm32mp-r2-r0/optee-os-stm32mp-3.12.0-stm32mp-r2/lib/libutils/ext/snprintk.c:583
    15f2:	2900      	cmp	r1, #0
    15f4:	f300 8180 	bgt.w	18f8 <kprintf.constprop.0+0x5f8>
/home/frank/TrustSQLite/stm32mp1-openstlinux-5.10-dunfell-mp1-21-11-17/sources/arm-ostl-linux-gnueabi/optee-os-stm32mp-3.12.0-stm32mp-r2-r0/optee-os-stm32mp-3.12.0-stm32mp-r2/lib/libutils/ext/snprintk.c:588
    15f8:	f1b9 0f00 	cmp.w	r9, #0
    15fc:	f000 8188 	beq.w	1910 <kprintf.constprop.0+0x610>
/home/frank/TrustSQLite/stm32mp1-openstlinux-5.10-dunfell-mp1-21-11-17/sources/arm-ostl-linux-gnueabi/optee-os-stm32mp-3.12.0-stm32mp-r2-r0/optee-os-stm32mp-3.12.0-stm32mp-r2/lib/libutils/ext/snprintk.c:589
    1600:	f1b8 0f00 	cmp.w	r8, #0
    1604:	d006      	beq.n	1614 <kprintf.constprop.0+0x314>
    1606:	990d      	ldr	r1, [sp, #52]	; 0x34
    1608:	b111      	cbz	r1, 1610 <kprintf.constprop.0+0x310>
    160a:	9910      	ldr	r1, [sp, #64]	; 0x40
    160c:	4541      	cmp	r1, r8
    160e:	d901      	bls.n	1614 <kprintf.constprop.0+0x314>
    1610:	f808 9b01 	strb.w	r9, [r8], #1
/home/frank/TrustSQLite/stm32mp1-openstlinux-5.10-dunfell-mp1-21-11-17/sources/arm-ostl-linux-gnueabi/optee-os-stm32mp-3.12.0-stm32mp-r2-r0/optee-os-stm32mp-3.12.0-stm32mp-r2/lib/libutils/ext/snprintk.c:596
    1614:	f5b2 6f80 	cmp.w	r2, #1024	; 0x400
    1618:	d105      	bne.n	1626 <kprintf.constprop.0+0x326>
/home/frank/TrustSQLite/stm32mp1-openstlinux-5.10-dunfell-mp1-21-11-17/sources/arm-ostl-linux-gnueabi/optee-os-stm32mp-3.12.0-stm32mp-r2-r0/optee-os-stm32mp-3.12.0-stm32mp-r2/lib/libutils/ext/snprintk.c:597
    161a:	9a0f      	ldr	r2, [sp, #60]	; 0x3c
    161c:	1ad1      	subs	r1, r2, r3
/home/frank/TrustSQLite/stm32mp1-openstlinux-5.10-dunfell-mp1-21-11-17/sources/arm-ostl-linux-gnueabi/optee-os-stm32mp-3.12.0-stm32mp-r2-r0/optee-os-stm32mp-3.12.0-stm32mp-r2/lib/libutils/ext/snprintk.c:599
    161e:	2230      	movs	r2, #48	; 0x30
/home/frank/TrustSQLite/stm32mp1-openstlinux-5.10-dunfell-mp1-21-11-17/sources/arm-ostl-linux-gnueabi/optee-os-stm32mp-3.12.0-stm32mp-r2-r0/optee-os-stm32mp-3.12.0-stm32mp-r2/lib/libutils/ext/snprintk.c:598
    1620:	2900      	cmp	r1, #0
    1622:	f300 8194 	bgt.w	194e <kprintf.constprop.0+0x64e>
/home/frank/TrustSQLite/stm32mp1-openstlinux-5.10-dunfell-mp1-21-11-17/sources/arm-ostl-linux-gnueabi/optee-os-stm32mp-3.12.0-stm32mp-r2-r0/optee-os-stm32mp-3.12.0-stm32mp-r2/lib/libutils/ext/snprintk.c:603
    1626:	eba0 000b 	sub.w	r0, r0, fp
/home/frank/TrustSQLite/stm32mp1-openstlinux-5.10-dunfell-mp1-21-11-17/sources/arm-ostl-linux-gnueabi/optee-os-stm32mp-3.12.0-stm32mp-r2-r0/optee-os-stm32mp-3.12.0-stm32mp-r2/lib/libutils/ext/snprintk.c:605
    162a:	2230      	movs	r2, #48	; 0x30
/home/frank/TrustSQLite/stm32mp1-openstlinux-5.10-dunfell-mp1-21-11-17/sources/arm-ostl-linux-gnueabi/optee-os-stm32mp-3.12.0-stm32mp-r2-r0/optee-os-stm32mp-3.12.0-stm32mp-r2/lib/libutils/ext/snprintk.c:604
    162c:	2800      	cmp	r0, #0
    162e:	f300 819a 	bgt.w	1966 <kprintf.constprop.0+0x666>
    1632:	2100      	movs	r1, #0
/home/frank/TrustSQLite/stm32mp1-openstlinux-5.10-dunfell-mp1-21-11-17/sources/arm-ostl-linux-gnueabi/optee-os-stm32mp-3.12.0-stm32mp-r2-r0/optee-os-stm32mp-3.12.0-stm32mp-r2/lib/libutils/ext/snprintk.c:608
    1634:	458b      	cmp	fp, r1
    1636:	f040 81a2 	bne.w	197e <kprintf.constprop.0+0x67e>
/home/frank/TrustSQLite/stm32mp1-openstlinux-5.10-dunfell-mp1-21-11-17/sources/arm-ostl-linux-gnueabi/optee-os-stm32mp-3.12.0-stm32mp-r2-r0/optee-os-stm32mp-3.12.0-stm32mp-r2/lib/libutils/ext/snprintk.c:611
    163a:	0772      	lsls	r2, r6, #29
    163c:	f57f ae70 	bpl.w	1320 <kprintf.constprop.0+0x20>
/home/frank/TrustSQLite/stm32mp1-openstlinux-5.10-dunfell-mp1-21-11-17/sources/arm-ostl-linux-gnueabi/optee-os-stm32mp-3.12.0-stm32mp-r2-r0/optee-os-stm32mp-3.12.0-stm32mp-r2/lib/libutils/ext/snprintk.c:612
    1640:	9a0f      	ldr	r2, [sp, #60]	; 0x3c
    1642:	1ad3      	subs	r3, r2, r3
/home/frank/TrustSQLite/stm32mp1-openstlinux-5.10-dunfell-mp1-21-11-17/sources/arm-ostl-linux-gnueabi/optee-os-stm32mp-3.12.0-stm32mp-r2-r0/optee-os-stm32mp-3.12.0-stm32mp-r2/lib/libutils/ext/snprintk.c:614
    1644:	2220      	movs	r2, #32
/home/frank/TrustSQLite/stm32mp1-openstlinux-5.10-dunfell-mp1-21-11-17/sources/arm-ostl-linux-gnueabi/optee-os-stm32mp-3.12.0-stm32mp-r2-r0/optee-os-stm32mp-3.12.0-stm32mp-r2/lib/libutils/ext/snprintk.c:613
    1646:	2b00      	cmp	r3, #0
    1648:	f77f ae6a 	ble.w	1320 <kprintf.constprop.0+0x20>
/home/frank/TrustSQLite/stm32mp1-openstlinux-5.10-dunfell-mp1-21-11-17/sources/arm-ostl-linux-gnueabi/optee-os-stm32mp-3.12.0-stm32mp-r2-r0/optee-os-stm32mp-3.12.0-stm32mp-r2/lib/libutils/ext/snprintk.c:614
    164c:	f1b8 0f00 	cmp.w	r8, #0
    1650:	d006      	beq.n	1660 <kprintf.constprop.0+0x360>
    1652:	990d      	ldr	r1, [sp, #52]	; 0x34
    1654:	b111      	cbz	r1, 165c <kprintf.constprop.0+0x35c>
    1656:	9910      	ldr	r1, [sp, #64]	; 0x40
    1658:	4541      	cmp	r1, r8
    165a:	d901      	bls.n	1660 <kprintf.constprop.0+0x360>
    165c:	f808 2b01 	strb.w	r2, [r8], #1
    1660:	3b01      	subs	r3, #1
    1662:	e7f0      	b.n	1646 <kprintf.constprop.0+0x346>
/home/frank/TrustSQLite/stm32mp1-openstlinux-5.10-dunfell-mp1-21-11-17/sources/arm-ostl-linux-gnueabi/optee-os-stm32mp-3.12.0-stm32mp-r2-r0/optee-os-stm32mp-3.12.0-stm32mp-r2/lib/libutils/ext/snprintk.c:390
    1664:	05f5      	lsls	r5, r6, #23
    1666:	d504      	bpl.n	1672 <kprintf.constprop.0+0x372>
    1668:	461f      	mov	r7, r3
    166a:	f857 4b04 	ldr.w	r4, [r7], #4
    166e:	17e5      	asrs	r5, r4, #31
    1670:	e776      	b.n	1560 <kprintf.constprop.0+0x260>
    1672:	05b4      	lsls	r4, r6, #22
    1674:	d4f8      	bmi.n	1668 <kprintf.constprop.0+0x368>
    1676:	06b0      	lsls	r0, r6, #26
    1678:	f53f af6d 	bmi.w	1556 <kprintf.constprop.0+0x256>
    167c:	06f1      	lsls	r1, r6, #27
    167e:	f103 0704 	add.w	r7, r3, #4
    1682:	d501      	bpl.n	1688 <kprintf.constprop.0+0x388>
    1684:	681c      	ldr	r4, [r3, #0]
    1686:	e7f2      	b.n	166e <kprintf.constprop.0+0x36e>
    1688:	681c      	ldr	r4, [r3, #0]
    168a:	f016 0f40 	tst.w	r6, #64	; 0x40
    168e:	bf18      	it	ne
    1690:	b224      	sxthne	r4, r4
    1692:	e7ec      	b.n	166e <kprintf.constprop.0+0x36e>
/home/frank/TrustSQLite/stm32mp1-openstlinux-5.10-dunfell-mp1-21-11-17/sources/arm-ostl-linux-gnueabi/optee-os-stm32mp-3.12.0-stm32mp-r2-r0/optee-os-stm32mp-3.12.0-stm32mp-r2/lib/libutils/ext/snprintk.c:398
    1694:	0632      	lsls	r2, r6, #24
    1696:	461f      	mov	r7, r3
    1698:	f857 3b04 	ldr.w	r3, [r7], #4
    169c:	d507      	bpl.n	16ae <kprintf.constprop.0+0x3ae>
/home/frank/TrustSQLite/stm32mp1-openstlinux-5.10-dunfell-mp1-21-11-17/sources/arm-ostl-linux-gnueabi/optee-os-stm32mp-3.12.0-stm32mp-r2-r0/optee-os-stm32mp-3.12.0-stm32mp-r2/lib/libutils/ext/snprintk.c:405
    169e:	9a0e      	ldr	r2, [sp, #56]	; 0x38
    16a0:	ee80 2b90 	vdup.32	d16, r2
    16a4:	efe0 00b0 	vshr.s64	d16, d16, #32
    16a8:	edc3 0b00 	vstr	d16, [r3]
    16ac:	e638      	b.n	1320 <kprintf.constprop.0+0x20>
/home/frank/TrustSQLite/stm32mp1-openstlinux-5.10-dunfell-mp1-21-11-17/sources/arm-ostl-linux-gnueabi/optee-os-stm32mp-3.12.0-stm32mp-r2-r0/optee-os-stm32mp-3.12.0-stm32mp-r2/lib/libutils/ext/snprintk.c:400
    16ae:	05f5      	lsls	r5, r6, #23
    16b0:	d502      	bpl.n	16b8 <kprintf.constprop.0+0x3b8>
/home/frank/TrustSQLite/stm32mp1-openstlinux-5.10-dunfell-mp1-21-11-17/sources/arm-ostl-linux-gnueabi/optee-os-stm32mp-3.12.0-stm32mp-r2-r0/optee-os-stm32mp-3.12.0-stm32mp-r2/lib/libutils/ext/snprintk.c:411
    16b2:	9a0e      	ldr	r2, [sp, #56]	; 0x38
    16b4:	601a      	str	r2, [r3, #0]
    16b6:	e633      	b.n	1320 <kprintf.constprop.0+0x20>
/home/frank/TrustSQLite/stm32mp1-openstlinux-5.10-dunfell-mp1-21-11-17/sources/arm-ostl-linux-gnueabi/optee-os-stm32mp-3.12.0-stm32mp-r2-r0/optee-os-stm32mp-3.12.0-stm32mp-r2/lib/libutils/ext/snprintk.c:402
    16b8:	05b4      	lsls	r4, r6, #22
    16ba:	d4fa      	bmi.n	16b2 <kprintf.constprop.0+0x3b2>
/home/frank/TrustSQLite/stm32mp1-openstlinux-5.10-dunfell-mp1-21-11-17/sources/arm-ostl-linux-gnueabi/optee-os-stm32mp-3.12.0-stm32mp-r2-r0/optee-os-stm32mp-3.12.0-stm32mp-r2/lib/libutils/ext/snprintk.c:404
    16bc:	06b0      	lsls	r0, r6, #26
    16be:	d4ee      	bmi.n	169e <kprintf.constprop.0+0x39e>
/home/frank/TrustSQLite/stm32mp1-openstlinux-5.10-dunfell-mp1-21-11-17/sources/arm-ostl-linux-gnueabi/optee-os-stm32mp-3.12.0-stm32mp-r2-r0/optee-os-stm32mp-3.12.0-stm32mp-r2/lib/libutils/ext/snprintk.c:406
    16c0:	06f1      	lsls	r1, r6, #27
    16c2:	d4f6      	bmi.n	16b2 <kprintf.constprop.0+0x3b2>
/home/frank/TrustSQLite/stm32mp1-openstlinux-5.10-dunfell-mp1-21-11-17/sources/arm-ostl-linux-gnueabi/optee-os-stm32mp-3.12.0-stm32mp-r2-r0/optee-os-stm32mp-3.12.0-stm32mp-r2/lib/libutils/ext/snprintk.c:408
    16c4:	0672      	lsls	r2, r6, #25
    16c6:	d5f4      	bpl.n	16b2 <kprintf.constprop.0+0x3b2>
/home/frank/TrustSQLite/stm32mp1-openstlinux-5.10-dunfell-mp1-21-11-17/sources/arm-ostl-linux-gnueabi/optee-os-stm32mp-3.12.0-stm32mp-r2-r0/optee-os-stm32mp-3.12.0-stm32mp-r2/lib/libutils/ext/snprintk.c:409
    16c8:	9a0e      	ldr	r2, [sp, #56]	; 0x38
    16ca:	801a      	strh	r2, [r3, #0]
    16cc:	e628      	b.n	1320 <kprintf.constprop.0+0x20>
/home/frank/TrustSQLite/stm32mp1-openstlinux-5.10-dunfell-mp1-21-11-17/sources/arm-ostl-linux-gnueabi/optee-os-stm32mp-3.12.0-stm32mp-r2-r0/optee-os-stm32mp-3.12.0-stm32mp-r2/lib/libutils/ext/snprintk.c:414
    16ce:	f046 0610 	orr.w	r6, r6, #16
/home/frank/TrustSQLite/stm32mp1-openstlinux-5.10-dunfell-mp1-21-11-17/sources/arm-ostl-linux-gnueabi/optee-os-stm32mp-3.12.0-stm32mp-r2-r0/optee-os-stm32mp-3.12.0-stm32mp-r2/lib/libutils/ext/snprintk.c:417
    16d2:	0637      	lsls	r7, r6, #24
    16d4:	d518      	bpl.n	1708 <kprintf.constprop.0+0x408>
    16d6:	1ddf      	adds	r7, r3, #7
    16d8:	f027 0707 	bic.w	r7, r7, #7
    16dc:	e8f7 4502 	ldrd	r4, r5, [r7], #8
/home/frank/TrustSQLite/stm32mp1-openstlinux-5.10-dunfell-mp1-21-11-17/sources/arm-ostl-linux-gnueabi/optee-os-stm32mp-3.12.0-stm32mp-r2-r0/optee-os-stm32mp-3.12.0-stm32mp-r2/lib/libutils/ext/snprintk.c:494
    16e0:	f1bb 3fff 	cmp.w	fp, #4294967295	; 0xffffffff
    16e4:	f04f 0900 	mov.w	r9, #0
    16e8:	f43f af50 	beq.w	158c <kprintf.constprop.0+0x28c>
    16ec:	464b      	mov	r3, r9
/home/frank/TrustSQLite/stm32mp1-openstlinux-5.10-dunfell-mp1-21-11-17/sources/arm-ostl-linux-gnueabi/optee-os-stm32mp-3.12.0-stm32mp-r2-r0/optee-os-stm32mp-3.12.0-stm32mp-r2/lib/libutils/ext/snprintk.c:503
    16ee:	ea54 0205 	orrs.w	r2, r4, r5
/home/frank/TrustSQLite/stm32mp1-openstlinux-5.10-dunfell-mp1-21-11-17/sources/arm-ostl-linux-gnueabi/optee-os-stm32mp-3.12.0-stm32mp-r2-r0/optee-os-stm32mp-3.12.0-stm32mp-r2/lib/libutils/ext/snprintk.c:495
    16f2:	f426 6680 	bic.w	r6, r6, #1024	; 0x400
/home/frank/TrustSQLite/stm32mp1-openstlinux-5.10-dunfell-mp1-21-11-17/sources/arm-ostl-linux-gnueabi/optee-os-stm32mp-3.12.0-stm32mp-r2-r0/optee-os-stm32mp-3.12.0-stm32mp-r2/lib/libutils/ext/snprintk.c:503
    16f6:	f47f af43 	bne.w	1580 <kprintf.constprop.0+0x280>
    16fa:	f1bb 0f00 	cmp.w	fp, #0
    16fe:	f47f af3f 	bne.w	1580 <kprintf.constprop.0+0x280>
/home/frank/TrustSQLite/stm32mp1-openstlinux-5.10-dunfell-mp1-21-11-17/sources/arm-ostl-linux-gnueabi/optee-os-stm32mp-3.12.0-stm32mp-r2-r0/optee-os-stm32mp-3.12.0-stm32mp-r2/lib/libutils/ext/snprintk.c:502
    1702:	f10d 0a75 	add.w	sl, sp, #117	; 0x75
    1706:	e759      	b.n	15bc <kprintf.constprop.0+0x2bc>
/home/frank/TrustSQLite/stm32mp1-openstlinux-5.10-dunfell-mp1-21-11-17/sources/arm-ostl-linux-gnueabi/optee-os-stm32mp-3.12.0-stm32mp-r2-r0/optee-os-stm32mp-3.12.0-stm32mp-r2/lib/libutils/ext/snprintk.c:417
    1708:	05f5      	lsls	r5, r6, #23
    170a:	d504      	bpl.n	1716 <kprintf.constprop.0+0x416>
    170c:	461f      	mov	r7, r3
    170e:	f857 4b04 	ldr.w	r4, [r7], #4
    1712:	2500      	movs	r5, #0
    1714:	e7e4      	b.n	16e0 <kprintf.constprop.0+0x3e0>
    1716:	05b4      	lsls	r4, r6, #22
    1718:	d4f8      	bmi.n	170c <kprintf.constprop.0+0x40c>
    171a:	06b0      	lsls	r0, r6, #26
    171c:	d4db      	bmi.n	16d6 <kprintf.constprop.0+0x3d6>
    171e:	06f1      	lsls	r1, r6, #27
    1720:	f103 0704 	add.w	r7, r3, #4
    1724:	d501      	bpl.n	172a <kprintf.constprop.0+0x42a>
    1726:	681c      	ldr	r4, [r3, #0]
    1728:	e7f3      	b.n	1712 <kprintf.constprop.0+0x412>
    172a:	0672      	lsls	r2, r6, #25
    172c:	d5fb      	bpl.n	1726 <kprintf.constprop.0+0x426>
    172e:	881c      	ldrh	r4, [r3, #0]
    1730:	e7ef      	b.n	1712 <kprintf.constprop.0+0x412>
/home/frank/TrustSQLite/stm32mp1-openstlinux-5.10-dunfell-mp1-21-11-17/sources/arm-ostl-linux-gnueabi/optee-os-stm32mp-3.12.0-stm32mp-r2-r0/optee-os-stm32mp-3.12.0-stm32mp-r2/lib/libutils/ext/snprintk.c:421
    1732:	461f      	mov	r7, r3
    1734:	9b13      	ldr	r3, [sp, #76]	; 0x4c
    1736:	f857 4b04 	ldr.w	r4, [r7], #4
    173a:	2b00      	cmp	r3, #0
    173c:	d029      	beq.n	1792 <kprintf.constprop.0+0x492>
    173e:	9b0b      	ldr	r3, [sp, #44]	; 0x2c
    1740:	781b      	ldrb	r3, [r3, #0]
    1742:	2b55      	cmp	r3, #85	; 0x55
    1744:	d125      	bne.n	1792 <kprintf.constprop.0+0x492>
    1746:	9b0b      	ldr	r3, [sp, #44]	; 0x2c
    1748:	785b      	ldrb	r3, [r3, #1]
    174a:	2b6c      	cmp	r3, #108	; 0x6c
    174c:	d121      	bne.n	1792 <kprintf.constprop.0+0x492>
/home/frank/TrustSQLite/stm32mp1-openstlinux-5.10-dunfell-mp1-21-11-17/sources/arm-ostl-linux-gnueabi/optee-os-stm32mp-3.12.0-stm32mp-r2-r0/optee-os-stm32mp-3.12.0-stm32mp-r2/lib/libutils/ext/snprintk.c:426
    174e:	9b0b      	ldr	r3, [sp, #44]	; 0x2c
uuid2str():
/home/frank/TrustSQLite/stm32mp1-openstlinux-5.10-dunfell-mp1-21-11-17/sources/arm-ostl-linux-gnueabi/optee-os-stm32mp-3.12.0-stm32mp-r2-r0/optee-os-stm32mp-3.12.0-stm32mp-r2/lib/libutils/ext/snprintk.c:229
    1750:	f10d 0a50 	add.w	sl, sp, #80	; 0x50
    1754:	4a92      	ldr	r2, [pc, #584]	; (19a0 <kprintf.constprop.0+0x6a0>)
    1756:	2125      	movs	r1, #37	; 0x25
kprintf():
/home/frank/TrustSQLite/stm32mp1-openstlinux-5.10-dunfell-mp1-21-11-17/sources/arm-ostl-linux-gnueabi/optee-os-stm32mp-3.12.0-stm32mp-r2-r0/optee-os-stm32mp-3.12.0-stm32mp-r2/lib/libutils/ext/snprintk.c:426
    1758:	3302      	adds	r3, #2
uuid2str():
/home/frank/TrustSQLite/stm32mp1-openstlinux-5.10-dunfell-mp1-21-11-17/sources/arm-ostl-linux-gnueabi/optee-os-stm32mp-3.12.0-stm32mp-r2-r0/optee-os-stm32mp-3.12.0-stm32mp-r2/lib/libutils/ext/snprintk.c:229
    175a:	4650      	mov	r0, sl
kprintf():
/home/frank/TrustSQLite/stm32mp1-openstlinux-5.10-dunfell-mp1-21-11-17/sources/arm-ostl-linux-gnueabi/optee-os-stm32mp-3.12.0-stm32mp-r2-r0/optee-os-stm32mp-3.12.0-stm32mp-r2/lib/libutils/ext/snprintk.c:426
    175c:	930b      	str	r3, [sp, #44]	; 0x2c
uuid2str():
/home/frank/TrustSQLite/stm32mp1-openstlinux-5.10-dunfell-mp1-21-11-17/sources/arm-ostl-linux-gnueabi/optee-os-stm32mp-3.12.0-stm32mp-r2-r0/optee-os-stm32mp-3.12.0-stm32mp-r2/lib/libutils/ext/snprintk.c:229
    175e:	7be3      	ldrb	r3, [r4, #15]
    1760:	447a      	add	r2, pc
    1762:	9309      	str	r3, [sp, #36]	; 0x24
    1764:	7ba3      	ldrb	r3, [r4, #14]
    1766:	9308      	str	r3, [sp, #32]
    1768:	7b63      	ldrb	r3, [r4, #13]
    176a:	9307      	str	r3, [sp, #28]
    176c:	7b23      	ldrb	r3, [r4, #12]
    176e:	9306      	str	r3, [sp, #24]
    1770:	7ae3      	ldrb	r3, [r4, #11]
    1772:	9305      	str	r3, [sp, #20]
    1774:	7aa3      	ldrb	r3, [r4, #10]
    1776:	9304      	str	r3, [sp, #16]
    1778:	7a63      	ldrb	r3, [r4, #9]
    177a:	9303      	str	r3, [sp, #12]
    177c:	7a23      	ldrb	r3, [r4, #8]
    177e:	9302      	str	r3, [sp, #8]
    1780:	88e3      	ldrh	r3, [r4, #6]
    1782:	9301      	str	r3, [sp, #4]
    1784:	88a3      	ldrh	r3, [r4, #4]
    1786:	9300      	str	r3, [sp, #0]
    1788:	6823      	ldr	r3, [r4, #0]
    178a:	f7ff fdac 	bl	12e6 <snprintk>
kprintf():
/home/frank/TrustSQLite/stm32mp1-openstlinux-5.10-dunfell-mp1-21-11-17/sources/arm-ostl-linux-gnueabi/optee-os-stm32mp-3.12.0-stm32mp-r2-r0/optee-os-stm32mp-3.12.0-stm32mp-r2/lib/libutils/ext/snprintk.c:466
    178e:	4683      	mov	fp, r0
    1790:	e034      	b.n	17fc <kprintf.constprop.0+0x4fc>
/home/frank/TrustSQLite/stm32mp1-openstlinux-5.10-dunfell-mp1-21-11-17/sources/arm-ostl-linux-gnueabi/optee-os-stm32mp-3.12.0-stm32mp-r2-r0/optee-os-stm32mp-3.12.0-stm32mp-r2/lib/libutils/ext/snprintk.c:443
    1792:	4b84      	ldr	r3, [pc, #528]	; (19a4 <kprintf.constprop.0+0x6a4>)
/home/frank/TrustSQLite/stm32mp1-openstlinux-5.10-dunfell-mp1-21-11-17/sources/arm-ostl-linux-gnueabi/optee-os-stm32mp-3.12.0-stm32mp-r2-r0/optee-os-stm32mp-3.12.0-stm32mp-r2/lib/libutils/ext/snprintk.c:441
    1794:	2500      	movs	r5, #0
/home/frank/TrustSQLite/stm32mp1-openstlinux-5.10-dunfell-mp1-21-11-17/sources/arm-ostl-linux-gnueabi/optee-os-stm32mp-3.12.0-stm32mp-r2-r0/optee-os-stm32mp-3.12.0-stm32mp-r2/lib/libutils/ext/snprintk.c:444
    1796:	f046 0602 	orr.w	r6, r6, #2
/home/frank/TrustSQLite/stm32mp1-openstlinux-5.10-dunfell-mp1-21-11-17/sources/arm-ostl-linux-gnueabi/optee-os-stm32mp-3.12.0-stm32mp-r2-r0/optee-os-stm32mp-3.12.0-stm32mp-r2/lib/libutils/ext/snprintk.c:443
    179a:	447b      	add	r3, pc
    179c:	3311      	adds	r3, #17
    179e:	9311      	str	r3, [sp, #68]	; 0x44
/home/frank/TrustSQLite/stm32mp1-openstlinux-5.10-dunfell-mp1-21-11-17/sources/arm-ostl-linux-gnueabi/optee-os-stm32mp-3.12.0-stm32mp-r2-r0/optee-os-stm32mp-3.12.0-stm32mp-r2/lib/libutils/ext/snprintk.c:445
    17a0:	2378      	movs	r3, #120	; 0x78
    17a2:	930c      	str	r3, [sp, #48]	; 0x30
/home/frank/TrustSQLite/stm32mp1-openstlinux-5.10-dunfell-mp1-21-11-17/sources/arm-ostl-linux-gnueabi/optee-os-stm32mp-3.12.0-stm32mp-r2-r0/optee-os-stm32mp-3.12.0-stm32mp-r2/lib/libutils/ext/snprintk.c:494
    17a4:	f1bb 3fff 	cmp.w	fp, #4294967295	; 0xffffffff
    17a8:	f04f 0900 	mov.w	r9, #0
    17ac:	d178      	bne.n	18a0 <kprintf.constprop.0+0x5a0>
    17ae:	f10d 0a75 	add.w	sl, sp, #117	; 0x75
/home/frank/TrustSQLite/stm32mp1-openstlinux-5.10-dunfell-mp1-21-11-17/sources/arm-ostl-linux-gnueabi/optee-os-stm32mp-3.12.0-stm32mp-r2-r0/optee-os-stm32mp-3.12.0-stm32mp-r2/lib/libutils/ext/snprintk.c:531
    17b2:	9a11      	ldr	r2, [sp, #68]	; 0x44
    17b4:	f004 030f 	and.w	r3, r4, #15
/home/frank/TrustSQLite/stm32mp1-openstlinux-5.10-dunfell-mp1-21-11-17/sources/arm-ostl-linux-gnueabi/optee-os-stm32mp-3.12.0-stm32mp-r2-r0/optee-os-stm32mp-3.12.0-stm32mp-r2/lib/libutils/ext/snprintk.c:532
    17b8:	0924      	lsrs	r4, r4, #4
/home/frank/TrustSQLite/stm32mp1-openstlinux-5.10-dunfell-mp1-21-11-17/sources/arm-ostl-linux-gnueabi/optee-os-stm32mp-3.12.0-stm32mp-r2-r0/optee-os-stm32mp-3.12.0-stm32mp-r2/lib/libutils/ext/snprintk.c:531
    17ba:	5cd3      	ldrb	r3, [r2, r3]
/home/frank/TrustSQLite/stm32mp1-openstlinux-5.10-dunfell-mp1-21-11-17/sources/arm-ostl-linux-gnueabi/optee-os-stm32mp-3.12.0-stm32mp-r2-r0/optee-os-stm32mp-3.12.0-stm32mp-r2/lib/libutils/ext/snprintk.c:532
    17bc:	ea44 7405 	orr.w	r4, r4, r5, lsl #28
    17c0:	092d      	lsrs	r5, r5, #4
/home/frank/TrustSQLite/stm32mp1-openstlinux-5.10-dunfell-mp1-21-11-17/sources/arm-ostl-linux-gnueabi/optee-os-stm32mp-3.12.0-stm32mp-r2-r0/optee-os-stm32mp-3.12.0-stm32mp-r2/lib/libutils/ext/snprintk.c:531
    17c2:	f80a 3d01 	strb.w	r3, [sl, #-1]!
/home/frank/TrustSQLite/stm32mp1-openstlinux-5.10-dunfell-mp1-21-11-17/sources/arm-ostl-linux-gnueabi/optee-os-stm32mp-3.12.0-stm32mp-r2-r0/optee-os-stm32mp-3.12.0-stm32mp-r2/lib/libutils/ext/snprintk.c:533
    17c6:	ea54 0305 	orrs.w	r3, r4, r5
    17ca:	d1f2      	bne.n	17b2 <kprintf.constprop.0+0x4b2>
    17cc:	e6f6      	b.n	15bc <kprintf.constprop.0+0x2bc>
/home/frank/TrustSQLite/stm32mp1-openstlinux-5.10-dunfell-mp1-21-11-17/sources/arm-ostl-linux-gnueabi/optee-os-stm32mp-3.12.0-stm32mp-r2-r0/optee-os-stm32mp-3.12.0-stm32mp-r2/lib/libutils/ext/snprintk.c:448
    17ce:	461f      	mov	r7, r3
    17d0:	f857 ab04 	ldr.w	sl, [r7], #4
    17d4:	f1ba 0f00 	cmp.w	sl, #0
    17d8:	d102      	bne.n	17e0 <kprintf.constprop.0+0x4e0>
/home/frank/TrustSQLite/stm32mp1-openstlinux-5.10-dunfell-mp1-21-11-17/sources/arm-ostl-linux-gnueabi/optee-os-stm32mp-3.12.0-stm32mp-r2-r0/optee-os-stm32mp-3.12.0-stm32mp-r2/lib/libutils/ext/snprintk.c:450
    17da:	f8df a1cc 	ldr.w	sl, [pc, #460]	; 19a8 <kprintf.constprop.0+0x6a8>
    17de:	44fa      	add	sl, pc
/home/frank/TrustSQLite/stm32mp1-openstlinux-5.10-dunfell-mp1-21-11-17/sources/arm-ostl-linux-gnueabi/optee-os-stm32mp-3.12.0-stm32mp-r2-r0/optee-os-stm32mp-3.12.0-stm32mp-r2/lib/libutils/ext/snprintk.c:451
    17e0:	f1bb 3fff 	cmp.w	fp, #4294967295	; 0xffffffff
    17e4:	d00d      	beq.n	1802 <kprintf.constprop.0+0x502>
/home/frank/TrustSQLite/stm32mp1-openstlinux-5.10-dunfell-mp1-21-11-17/sources/arm-ostl-linux-gnueabi/optee-os-stm32mp-3.12.0-stm32mp-r2-r0/optee-os-stm32mp-3.12.0-stm32mp-r2/lib/libutils/ext/snprintk.c:457
    17e6:	465a      	mov	r2, fp
    17e8:	2100      	movs	r1, #0
    17ea:	4650      	mov	r0, sl
    17ec:	f008 f87b 	bl	98e6 <memchr>
/home/frank/TrustSQLite/stm32mp1-openstlinux-5.10-dunfell-mp1-21-11-17/sources/arm-ostl-linux-gnueabi/optee-os-stm32mp-3.12.0-stm32mp-r2-r0/optee-os-stm32mp-3.12.0-stm32mp-r2/lib/libutils/ext/snprintk.c:459
    17f0:	b128      	cbz	r0, 17fe <kprintf.constprop.0+0x4fe>
/home/frank/TrustSQLite/stm32mp1-openstlinux-5.10-dunfell-mp1-21-11-17/sources/arm-ostl-linux-gnueabi/optee-os-stm32mp-3.12.0-stm32mp-r2-r0/optee-os-stm32mp-3.12.0-stm32mp-r2/lib/libutils/ext/snprintk.c:460
    17f2:	eba0 000a 	sub.w	r0, r0, sl
    17f6:	4583      	cmp	fp, r0
    17f8:	bfa8      	it	ge
    17fa:	4683      	movge	fp, r0
/home/frank/TrustSQLite/stm32mp1-openstlinux-5.10-dunfell-mp1-21-11-17/sources/arm-ostl-linux-gnueabi/optee-os-stm32mp-3.12.0-stm32mp-r2-r0/optee-os-stm32mp-3.12.0-stm32mp-r2/lib/libutils/ext/snprintk.c:291
    17fc:	2000      	movs	r0, #0
/home/frank/TrustSQLite/stm32mp1-openstlinux-5.10-dunfell-mp1-21-11-17/sources/arm-ostl-linux-gnueabi/optee-os-stm32mp-3.12.0-stm32mp-r2-r0/optee-os-stm32mp-3.12.0-stm32mp-r2/lib/libutils/ext/snprintk.c:467
    17fe:	4681      	mov	r9, r0
    1800:	e6e1      	b.n	15c6 <kprintf.constprop.0+0x2c6>
/home/frank/TrustSQLite/stm32mp1-openstlinux-5.10-dunfell-mp1-21-11-17/sources/arm-ostl-linux-gnueabi/optee-os-stm32mp-3.12.0-stm32mp-r2-r0/optee-os-stm32mp-3.12.0-stm32mp-r2/lib/libutils/ext/snprintk.c:466
    1802:	4650      	mov	r0, sl
    1804:	f008 f83b 	bl	987e <strlen>
    1808:	e7c1      	b.n	178e <kprintf.constprop.0+0x48e>
/home/frank/TrustSQLite/stm32mp1-openstlinux-5.10-dunfell-mp1-21-11-17/sources/arm-ostl-linux-gnueabi/optee-os-stm32mp-3.12.0-stm32mp-r2-r0/optee-os-stm32mp-3.12.0-stm32mp-r2/lib/libutils/ext/snprintk.c:470
    180a:	f046 0610 	orr.w	r6, r6, #16
/home/frank/TrustSQLite/stm32mp1-openstlinux-5.10-dunfell-mp1-21-11-17/sources/arm-ostl-linux-gnueabi/optee-os-stm32mp-3.12.0-stm32mp-r2-r0/optee-os-stm32mp-3.12.0-stm32mp-r2/lib/libutils/ext/snprintk.c:473
    180e:	f016 0280 	ands.w	r2, r6, #128	; 0x80
    1812:	d00d      	beq.n	1830 <kprintf.constprop.0+0x530>
    1814:	1ddf      	adds	r7, r3, #7
    1816:	f027 0707 	bic.w	r7, r7, #7
    181a:	e8f7 4502 	ldrd	r4, r5, [r7], #8
/home/frank/TrustSQLite/stm32mp1-openstlinux-5.10-dunfell-mp1-21-11-17/sources/arm-ostl-linux-gnueabi/optee-os-stm32mp-3.12.0-stm32mp-r2-r0/optee-os-stm32mp-3.12.0-stm32mp-r2/lib/libutils/ext/snprintk.c:488
    181e:	f04f 0900 	mov.w	r9, #0
/home/frank/TrustSQLite/stm32mp1-openstlinux-5.10-dunfell-mp1-21-11-17/sources/arm-ostl-linux-gnueabi/optee-os-stm32mp-3.12.0-stm32mp-r2-r0/optee-os-stm32mp-3.12.0-stm32mp-r2/lib/libutils/ext/snprintk.c:494
    1822:	f1bb 3fff 	cmp.w	fp, #4294967295	; 0xffffffff
    1826:	d13d      	bne.n	18a4 <kprintf.constprop.0+0x5a4>
    1828:	f10d 0375 	add.w	r3, sp, #117	; 0x75
    182c:	9312      	str	r3, [sp, #72]	; 0x48
    182e:	e04f      	b.n	18d0 <kprintf.constprop.0+0x5d0>
/home/frank/TrustSQLite/stm32mp1-openstlinux-5.10-dunfell-mp1-21-11-17/sources/arm-ostl-linux-gnueabi/optee-os-stm32mp-3.12.0-stm32mp-r2-r0/optee-os-stm32mp-3.12.0-stm32mp-r2/lib/libutils/ext/snprintk.c:473
    1830:	f416 7980 	ands.w	r9, r6, #256	; 0x100
    1834:	d004      	beq.n	1840 <kprintf.constprop.0+0x540>
    1836:	461f      	mov	r7, r3
    1838:	f857 4b04 	ldr.w	r4, [r7], #4
    183c:	2500      	movs	r5, #0
    183e:	e7ee      	b.n	181e <kprintf.constprop.0+0x51e>
    1840:	f416 7200 	ands.w	r2, r6, #512	; 0x200
    1844:	d004      	beq.n	1850 <kprintf.constprop.0+0x550>
    1846:	461f      	mov	r7, r3
    1848:	f857 4b04 	ldr.w	r4, [r7], #4
    184c:	2500      	movs	r5, #0
    184e:	e7e8      	b.n	1822 <kprintf.constprop.0+0x522>
    1850:	f016 0920 	ands.w	r9, r6, #32
    1854:	d1de      	bne.n	1814 <kprintf.constprop.0+0x514>
    1856:	f016 0210 	ands.w	r2, r6, #16
    185a:	f103 0704 	add.w	r7, r3, #4
    185e:	d001      	beq.n	1864 <kprintf.constprop.0+0x564>
    1860:	681c      	ldr	r4, [r3, #0]
    1862:	e7f3      	b.n	184c <kprintf.constprop.0+0x54c>
    1864:	f016 0940 	ands.w	r9, r6, #64	; 0x40
    1868:	d0fa      	beq.n	1860 <kprintf.constprop.0+0x560>
    186a:	881c      	ldrh	r4, [r3, #0]
    186c:	e7e6      	b.n	183c <kprintf.constprop.0+0x53c>
/home/frank/TrustSQLite/stm32mp1-openstlinux-5.10-dunfell-mp1-21-11-17/sources/arm-ostl-linux-gnueabi/optee-os-stm32mp-3.12.0-stm32mp-r2-r0/optee-os-stm32mp-3.12.0-stm32mp-r2/lib/libutils/ext/snprintk.c:477
    186e:	4a4f      	ldr	r2, [pc, #316]	; (19ac <kprintf.constprop.0+0x6ac>)
    1870:	447a      	add	r2, pc
    1872:	e5e2      	b.n	143a <kprintf.constprop.0+0x13a>
/home/frank/TrustSQLite/stm32mp1-openstlinux-5.10-dunfell-mp1-21-11-17/sources/arm-ostl-linux-gnueabi/optee-os-stm32mp-3.12.0-stm32mp-r2-r0/optee-os-stm32mp-3.12.0-stm32mp-r2/lib/libutils/ext/snprintk.c:481
    1874:	05f5      	lsls	r5, r6, #23
    1876:	d504      	bpl.n	1882 <kprintf.constprop.0+0x582>
    1878:	461f      	mov	r7, r3
    187a:	f857 4b04 	ldr.w	r4, [r7], #4
    187e:	2500      	movs	r5, #0
    1880:	e5e4      	b.n	144c <kprintf.constprop.0+0x14c>
    1882:	05b4      	lsls	r4, r6, #22
    1884:	d4f8      	bmi.n	1878 <kprintf.constprop.0+0x578>
    1886:	06b0      	lsls	r0, r6, #26
    1888:	f53f addb 	bmi.w	1442 <kprintf.constprop.0+0x142>
    188c:	06f1      	lsls	r1, r6, #27
    188e:	f103 0704 	add.w	r7, r3, #4
    1892:	d501      	bpl.n	1898 <kprintf.constprop.0+0x598>
    1894:	681c      	ldr	r4, [r3, #0]
    1896:	e7f2      	b.n	187e <kprintf.constprop.0+0x57e>
    1898:	0672      	lsls	r2, r6, #25
    189a:	d5fb      	bpl.n	1894 <kprintf.constprop.0+0x594>
    189c:	881c      	ldrh	r4, [r3, #0]
    189e:	e7ee      	b.n	187e <kprintf.constprop.0+0x57e>
/home/frank/TrustSQLite/stm32mp1-openstlinux-5.10-dunfell-mp1-21-11-17/sources/arm-ostl-linux-gnueabi/optee-os-stm32mp-3.12.0-stm32mp-r2-r0/optee-os-stm32mp-3.12.0-stm32mp-r2/lib/libutils/ext/snprintk.c:494
    18a0:	2302      	movs	r3, #2
    18a2:	e724      	b.n	16ee <kprintf.constprop.0+0x3ee>
    18a4:	2301      	movs	r3, #1
    18a6:	e722      	b.n	16ee <kprintf.constprop.0+0x3ee>
/home/frank/TrustSQLite/stm32mp1-openstlinux-5.10-dunfell-mp1-21-11-17/sources/arm-ostl-linux-gnueabi/optee-os-stm32mp-3.12.0-stm32mp-r2-r0/optee-os-stm32mp-3.12.0-stm32mp-r2/lib/libutils/ext/snprintk.c:523
    18a8:	4620      	mov	r0, r4
    18aa:	4629      	mov	r1, r5
    18ac:	220a      	movs	r2, #10
    18ae:	2300      	movs	r3, #0
    18b0:	f000 e896 	blx	19e0 <__aeabi_uldivmod>
    18b4:	9b12      	ldr	r3, [sp, #72]	; 0x48
    18b6:	3230      	adds	r2, #48	; 0x30
/home/frank/TrustSQLite/stm32mp1-openstlinux-5.10-dunfell-mp1-21-11-17/sources/arm-ostl-linux-gnueabi/optee-os-stm32mp-3.12.0-stm32mp-r2-r0/optee-os-stm32mp-3.12.0-stm32mp-r2/lib/libutils/ext/snprintk.c:524
    18b8:	4620      	mov	r0, r4
    18ba:	4629      	mov	r1, r5
/home/frank/TrustSQLite/stm32mp1-openstlinux-5.10-dunfell-mp1-21-11-17/sources/arm-ostl-linux-gnueabi/optee-os-stm32mp-3.12.0-stm32mp-r2-r0/optee-os-stm32mp-3.12.0-stm32mp-r2/lib/libutils/ext/snprintk.c:523
    18bc:	f803 2c01 	strb.w	r2, [r3, #-1]
/home/frank/TrustSQLite/stm32mp1-openstlinux-5.10-dunfell-mp1-21-11-17/sources/arm-ostl-linux-gnueabi/optee-os-stm32mp-3.12.0-stm32mp-r2-r0/optee-os-stm32mp-3.12.0-stm32mp-r2/lib/libutils/ext/snprintk.c:524
    18c0:	220a      	movs	r2, #10
    18c2:	2300      	movs	r3, #0
    18c4:	f000 e88c 	blx	19e0 <__aeabi_uldivmod>
    18c8:	f8cd a048 	str.w	sl, [sp, #72]	; 0x48
    18cc:	4604      	mov	r4, r0
    18ce:	460d      	mov	r5, r1
/home/frank/TrustSQLite/stm32mp1-openstlinux-5.10-dunfell-mp1-21-11-17/sources/arm-ostl-linux-gnueabi/optee-os-stm32mp-3.12.0-stm32mp-r2-r0/optee-os-stm32mp-3.12.0-stm32mp-r2/lib/libutils/ext/snprintk.c:522
    18d0:	9b12      	ldr	r3, [sp, #72]	; 0x48
    18d2:	2d00      	cmp	r5, #0
    18d4:	bf08      	it	eq
    18d6:	2c0a      	cmpeq	r4, #10
    18d8:	f103 3aff 	add.w	sl, r3, #4294967295	; 0xffffffff
    18dc:	d2e4      	bcs.n	18a8 <kprintf.constprop.0+0x5a8>
/home/frank/TrustSQLite/stm32mp1-openstlinux-5.10-dunfell-mp1-21-11-17/sources/arm-ostl-linux-gnueabi/optee-os-stm32mp-3.12.0-stm32mp-r2-r0/optee-os-stm32mp-3.12.0-stm32mp-r2/lib/libutils/ext/snprintk.c:526
    18de:	3430      	adds	r4, #48	; 0x30
    18e0:	f803 4c01 	strb.w	r4, [r3, #-1]
/home/frank/TrustSQLite/stm32mp1-openstlinux-5.10-dunfell-mp1-21-11-17/sources/arm-ostl-linux-gnueabi/optee-os-stm32mp-3.12.0-stm32mp-r2-r0/optee-os-stm32mp-3.12.0-stm32mp-r2/lib/libutils/ext/snprintk.c:527
    18e4:	e66a      	b.n	15bc <kprintf.constprop.0+0x2bc>
/home/frank/TrustSQLite/stm32mp1-openstlinux-5.10-dunfell-mp1-21-11-17/sources/arm-ostl-linux-gnueabi/optee-os-stm32mp-3.12.0-stm32mp-r2-r0/optee-os-stm32mp-3.12.0-stm32mp-r2/lib/libutils/ext/snprintk.c:547
    18e6:	9a0c      	ldr	r2, [sp, #48]	; 0x30
    18e8:	2a00      	cmp	r2, #0
    18ea:	f47f adbf 	bne.w	146c <kprintf.constprop.0+0x16c>
    18ee:	e51c      	b.n	132a <kprintf.constprop.0+0x2a>
/home/frank/TrustSQLite/stm32mp1-openstlinux-5.10-dunfell-mp1-21-11-17/sources/arm-ostl-linux-gnueabi/optee-os-stm32mp-3.12.0-stm32mp-r2-r0/optee-os-stm32mp-3.12.0-stm32mp-r2/lib/libutils/ext/snprintk.c:574
    18f0:	07b4      	lsls	r4, r6, #30
/home/frank/TrustSQLite/stm32mp1-openstlinux-5.10-dunfell-mp1-21-11-17/sources/arm-ostl-linux-gnueabi/optee-os-stm32mp-3.12.0-stm32mp-r2-r0/optee-os-stm32mp-3.12.0-stm32mp-r2/lib/libutils/ext/snprintk.c:575
    18f2:	bf48      	it	mi
    18f4:	3302      	addmi	r3, #2
    18f6:	e66f      	b.n	15d8 <kprintf.constprop.0+0x2d8>
/home/frank/TrustSQLite/stm32mp1-openstlinux-5.10-dunfell-mp1-21-11-17/sources/arm-ostl-linux-gnueabi/optee-os-stm32mp-3.12.0-stm32mp-r2-r0/optee-os-stm32mp-3.12.0-stm32mp-r2/lib/libutils/ext/snprintk.c:584
    18f8:	f1b8 0f00 	cmp.w	r8, #0
    18fc:	d006      	beq.n	190c <kprintf.constprop.0+0x60c>
    18fe:	9d0d      	ldr	r5, [sp, #52]	; 0x34
    1900:	b115      	cbz	r5, 1908 <kprintf.constprop.0+0x608>
    1902:	9d10      	ldr	r5, [sp, #64]	; 0x40
    1904:	4545      	cmp	r5, r8
    1906:	d901      	bls.n	190c <kprintf.constprop.0+0x60c>
    1908:	f808 4b01 	strb.w	r4, [r8], #1
    190c:	3901      	subs	r1, #1
    190e:	e670      	b.n	15f2 <kprintf.constprop.0+0x2f2>
/home/frank/TrustSQLite/stm32mp1-openstlinux-5.10-dunfell-mp1-21-11-17/sources/arm-ostl-linux-gnueabi/optee-os-stm32mp-3.12.0-stm32mp-r2-r0/optee-os-stm32mp-3.12.0-stm32mp-r2/lib/libutils/ext/snprintk.c:590
    1910:	07b1      	lsls	r1, r6, #30
    1912:	f57f ae7f 	bpl.w	1614 <kprintf.constprop.0+0x314>
/home/frank/TrustSQLite/stm32mp1-openstlinux-5.10-dunfell-mp1-21-11-17/sources/arm-ostl-linux-gnueabi/optee-os-stm32mp-3.12.0-stm32mp-r2-r0/optee-os-stm32mp-3.12.0-stm32mp-r2/lib/libutils/ext/snprintk.c:591
    1916:	f1b8 0f00 	cmp.w	r8, #0
    191a:	f43f ae7b 	beq.w	1614 <kprintf.constprop.0+0x314>
    191e:	990d      	ldr	r1, [sp, #52]	; 0x34
    1920:	b119      	cbz	r1, 192a <kprintf.constprop.0+0x62a>
    1922:	9910      	ldr	r1, [sp, #64]	; 0x40
    1924:	4541      	cmp	r1, r8
    1926:	f67f ae75 	bls.w	1614 <kprintf.constprop.0+0x314>
    192a:	2130      	movs	r1, #48	; 0x30
    192c:	f888 1000 	strb.w	r1, [r8]
/home/frank/TrustSQLite/stm32mp1-openstlinux-5.10-dunfell-mp1-21-11-17/sources/arm-ostl-linux-gnueabi/optee-os-stm32mp-3.12.0-stm32mp-r2-r0/optee-os-stm32mp-3.12.0-stm32mp-r2/lib/libutils/ext/snprintk.c:592
    1930:	990d      	ldr	r1, [sp, #52]	; 0x34
    1932:	b121      	cbz	r1, 193e <kprintf.constprop.0+0x63e>
    1934:	9c10      	ldr	r4, [sp, #64]	; 0x40
/home/frank/TrustSQLite/stm32mp1-openstlinux-5.10-dunfell-mp1-21-11-17/sources/arm-ostl-linux-gnueabi/optee-os-stm32mp-3.12.0-stm32mp-r2-r0/optee-os-stm32mp-3.12.0-stm32mp-r2/lib/libutils/ext/snprintk.c:591
    1936:	f108 0101 	add.w	r1, r8, #1
/home/frank/TrustSQLite/stm32mp1-openstlinux-5.10-dunfell-mp1-21-11-17/sources/arm-ostl-linux-gnueabi/optee-os-stm32mp-3.12.0-stm32mp-r2-r0/optee-os-stm32mp-3.12.0-stm32mp-r2/lib/libutils/ext/snprintk.c:592
    193a:	428c      	cmp	r4, r1
    193c:	d905      	bls.n	194a <kprintf.constprop.0+0x64a>
    193e:	990c      	ldr	r1, [sp, #48]	; 0x30
    1940:	f108 0802 	add.w	r8, r8, #2
    1944:	f808 1c01 	strb.w	r1, [r8, #-1]
    1948:	e664      	b.n	1614 <kprintf.constprop.0+0x314>
    194a:	4688      	mov	r8, r1
    194c:	e662      	b.n	1614 <kprintf.constprop.0+0x314>
/home/frank/TrustSQLite/stm32mp1-openstlinux-5.10-dunfell-mp1-21-11-17/sources/arm-ostl-linux-gnueabi/optee-os-stm32mp-3.12.0-stm32mp-r2-r0/optee-os-stm32mp-3.12.0-stm32mp-r2/lib/libutils/ext/snprintk.c:599
    194e:	f1b8 0f00 	cmp.w	r8, #0
    1952:	d006      	beq.n	1962 <kprintf.constprop.0+0x662>
    1954:	9c0d      	ldr	r4, [sp, #52]	; 0x34
    1956:	b114      	cbz	r4, 195e <kprintf.constprop.0+0x65e>
    1958:	9c10      	ldr	r4, [sp, #64]	; 0x40
    195a:	4544      	cmp	r4, r8
    195c:	d901      	bls.n	1962 <kprintf.constprop.0+0x662>
    195e:	f808 2b01 	strb.w	r2, [r8], #1
    1962:	3901      	subs	r1, #1
    1964:	e65c      	b.n	1620 <kprintf.constprop.0+0x320>
/home/frank/TrustSQLite/stm32mp1-openstlinux-5.10-dunfell-mp1-21-11-17/sources/arm-ostl-linux-gnueabi/optee-os-stm32mp-3.12.0-stm32mp-r2-r0/optee-os-stm32mp-3.12.0-stm32mp-r2/lib/libutils/ext/snprintk.c:605
    1966:	f1b8 0f00 	cmp.w	r8, #0
    196a:	d006      	beq.n	197a <kprintf.constprop.0+0x67a>
    196c:	990d      	ldr	r1, [sp, #52]	; 0x34
    196e:	b111      	cbz	r1, 1976 <kprintf.constprop.0+0x676>
    1970:	9910      	ldr	r1, [sp, #64]	; 0x40
    1972:	4541      	cmp	r1, r8
    1974:	d901      	bls.n	197a <kprintf.constprop.0+0x67a>
    1976:	f808 2b01 	strb.w	r2, [r8], #1
    197a:	3801      	subs	r0, #1
    197c:	e656      	b.n	162c <kprintf.constprop.0+0x32c>
/home/frank/TrustSQLite/stm32mp1-openstlinux-5.10-dunfell-mp1-21-11-17/sources/arm-ostl-linux-gnueabi/optee-os-stm32mp-3.12.0-stm32mp-r2-r0/optee-os-stm32mp-3.12.0-stm32mp-r2/lib/libutils/ext/snprintk.c:609
    197e:	f1b8 0f00 	cmp.w	r8, #0
    1982:	d008      	beq.n	1996 <kprintf.constprop.0+0x696>
    1984:	9a0d      	ldr	r2, [sp, #52]	; 0x34
    1986:	b112      	cbz	r2, 198e <kprintf.constprop.0+0x68e>
    1988:	9a10      	ldr	r2, [sp, #64]	; 0x40
    198a:	4542      	cmp	r2, r8
    198c:	d903      	bls.n	1996 <kprintf.constprop.0+0x696>
    198e:	f81a 2001 	ldrb.w	r2, [sl, r1]
    1992:	f808 2b01 	strb.w	r2, [r8], #1
/home/frank/TrustSQLite/stm32mp1-openstlinux-5.10-dunfell-mp1-21-11-17/sources/arm-ostl-linux-gnueabi/optee-os-stm32mp-3.12.0-stm32mp-r2-r0/optee-os-stm32mp-3.12.0-stm32mp-r2/lib/libutils/ext/snprintk.c:608
    1996:	3101      	adds	r1, #1
    1998:	e64c      	b.n	1634 <kprintf.constprop.0+0x334>
    199a:	bf00      	nop
    199c:	00009047 	.word	0x00009047
    19a0:	00008cec 	.word	0x00008cec
    19a4:	00008ce3 	.word	0x00008ce3
    19a8:	00008c67 	.word	0x00008c67
    19ac:	00008c0d 	.word	0x00008c0d

000019b0 <__vsprintf>:
__vsprintf():
/home/frank/TrustSQLite/stm32mp1-openstlinux-5.10-dunfell-mp1-21-11-17/sources/arm-ostl-linux-gnueabi/optee-os-stm32mp-3.12.0-stm32mp-r2-r0/optee-os-stm32mp-3.12.0-stm32mp-r2/lib/libutils/ext/snprintk.c:155
    19b0:	b513      	push	{r0, r1, r4, lr}
    19b2:	4604      	mov	r4, r0
    19b4:	4608      	mov	r0, r1
/home/frank/TrustSQLite/stm32mp1-openstlinux-5.10-dunfell-mp1-21-11-17/sources/arm-ostl-linux-gnueabi/optee-os-stm32mp-3.12.0-stm32mp-r2-r0/optee-os-stm32mp-3.12.0-stm32mp-r2/lib/libutils/ext/snprintk.c:156
    19b6:	2100      	movs	r1, #0
    19b8:	9100      	str	r1, [sp, #0]
/home/frank/TrustSQLite/stm32mp1-openstlinux-5.10-dunfell-mp1-21-11-17/sources/arm-ostl-linux-gnueabi/optee-os-stm32mp-3.12.0-stm32mp-r2-r0/optee-os-stm32mp-3.12.0-stm32mp-r2/lib/libutils/ext/snprintk.c:155
    19ba:	4613      	mov	r3, r2
/home/frank/TrustSQLite/stm32mp1-openstlinux-5.10-dunfell-mp1-21-11-17/sources/arm-ostl-linux-gnueabi/optee-os-stm32mp-3.12.0-stm32mp-r2-r0/optee-os-stm32mp-3.12.0-stm32mp-r2/lib/libutils/ext/snprintk.c:156
    19bc:	4622      	mov	r2, r4
    19be:	f7ff fc9f 	bl	1300 <kprintf.constprop.0>
/home/frank/TrustSQLite/stm32mp1-openstlinux-5.10-dunfell-mp1-21-11-17/sources/arm-ostl-linux-gnueabi/optee-os-stm32mp-3.12.0-stm32mp-r2-r0/optee-os-stm32mp-3.12.0-stm32mp-r2/lib/libutils/ext/snprintk.c:157
    19c2:	b002      	add	sp, #8
    19c4:	bd10      	pop	{r4, pc}
    19c6:	bf00      	nop

000019c8 <__aeabi_ldivmod>:
__aeabi_ldivmod():
/home/frank/TrustSQLite/stm32mp1-openstlinux-5.10-dunfell-mp1-21-11-17/sources/arm-ostl-linux-gnueabi/optee-os-stm32mp-3.12.0-stm32mp-r2-r0/optee-os-stm32mp-3.12.0-stm32mp-r2/lib/libutils/isoc/arch/arm/arm32_aeabi_ldivmod_a32.S:12
    19c8:	e92d5000 	push	{ip, lr}
/home/frank/TrustSQLite/stm32mp1-openstlinux-5.10-dunfell-mp1-21-11-17/sources/arm-ostl-linux-gnueabi/optee-os-stm32mp-3.12.0-stm32mp-r2-r0/optee-os-stm32mp-3.12.0-stm32mp-r2/lib/libutils/isoc/arch/arm/arm32_aeabi_ldivmod_a32.S:14
    19cc:	e92d000f 	push	{r0, r1, r2, r3}
/home/frank/TrustSQLite/stm32mp1-openstlinux-5.10-dunfell-mp1-21-11-17/sources/arm-ostl-linux-gnueabi/optee-os-stm32mp-3.12.0-stm32mp-r2-r0/optee-os-stm32mp-3.12.0-stm32mp-r2/lib/libutils/isoc/arch/arm/arm32_aeabi_ldivmod_a32.S:16
    19d0:	e1a0000d 	mov	r0, sp
/home/frank/TrustSQLite/stm32mp1-openstlinux-5.10-dunfell-mp1-21-11-17/sources/arm-ostl-linux-gnueabi/optee-os-stm32mp-3.12.0-stm32mp-r2-r0/optee-os-stm32mp-3.12.0-stm32mp-r2/lib/libutils/isoc/arch/arm/arm32_aeabi_ldivmod_a32.S:17
    19d4:	fb001fe8 	blx	997e <__l_divmod>
/home/frank/TrustSQLite/stm32mp1-openstlinux-5.10-dunfell-mp1-21-11-17/sources/arm-ostl-linux-gnueabi/optee-os-stm32mp-3.12.0-stm32mp-r2-r0/optee-os-stm32mp-3.12.0-stm32mp-r2/lib/libutils/isoc/arch/arm/arm32_aeabi_ldivmod_a32.S:18
    19d8:	e8bd000f 	pop	{r0, r1, r2, r3}
/home/frank/TrustSQLite/stm32mp1-openstlinux-5.10-dunfell-mp1-21-11-17/sources/arm-ostl-linux-gnueabi/optee-os-stm32mp-3.12.0-stm32mp-r2-r0/optee-os-stm32mp-3.12.0-stm32mp-r2/lib/libutils/isoc/arch/arm/arm32_aeabi_ldivmod_a32.S:19
    19dc:	e8bd9000 	pop	{ip, pc}

000019e0 <__aeabi_uldivmod>:
__aeabi_uldivmod():
/home/frank/TrustSQLite/stm32mp1-openstlinux-5.10-dunfell-mp1-21-11-17/sources/arm-ostl-linux-gnueabi/optee-os-stm32mp-3.12.0-stm32mp-r2-r0/optee-os-stm32mp-3.12.0-stm32mp-r2/lib/libutils/isoc/arch/arm/arm32_aeabi_ldivmod_a32.S:27
    19e0:	e92d5000 	push	{ip, lr}
/home/frank/TrustSQLite/stm32mp1-openstlinux-5.10-dunfell-mp1-21-11-17/sources/arm-ostl-linux-gnueabi/optee-os-stm32mp-3.12.0-stm32mp-r2-r0/optee-os-stm32mp-3.12.0-stm32mp-r2/lib/libutils/isoc/arch/arm/arm32_aeabi_ldivmod_a32.S:29
    19e4:	e92d000f 	push	{r0, r1, r2, r3}
/home/frank/TrustSQLite/stm32mp1-openstlinux-5.10-dunfell-mp1-21-11-17/sources/arm-ostl-linux-gnueabi/optee-os-stm32mp-3.12.0-stm32mp-r2-r0/optee-os-stm32mp-3.12.0-stm32mp-r2/lib/libutils/isoc/arch/arm/arm32_aeabi_ldivmod_a32.S:31
    19e8:	e1a0000d 	mov	r0, sp
/home/frank/TrustSQLite/stm32mp1-openstlinux-5.10-dunfell-mp1-21-11-17/sources/arm-ostl-linux-gnueabi/optee-os-stm32mp-3.12.0-stm32mp-r2-r0/optee-os-stm32mp-3.12.0-stm32mp-r2/lib/libutils/isoc/arch/arm/arm32_aeabi_ldivmod_a32.S:32
    19ec:	fb001fc3 	blx	9902 <__ul_divmod>
/home/frank/TrustSQLite/stm32mp1-openstlinux-5.10-dunfell-mp1-21-11-17/sources/arm-ostl-linux-gnueabi/optee-os-stm32mp-3.12.0-stm32mp-r2-r0/optee-os-stm32mp-3.12.0-stm32mp-r2/lib/libutils/isoc/arch/arm/arm32_aeabi_ldivmod_a32.S:33
