
9aaaf200-2450-11e4-abe2-0002a5d5c51b.elf:     file format elf32-littlearm
9aaaf200-2450-11e4-abe2-0002a5d5c51b.elf
architecture: armv7, flags 0x00000150:
HAS_SYMS, DYNAMIC, D_PAGED
start address 0x0000049c

Program Header:
    LOAD off    0x00001000 vaddr 0x00000000 paddr 0x00000000 align 2**12
         filesz 0x0000a230 memsz 0x0000a230 flags r-x
    LOAD off    0x0000c000 vaddr 0x0000b000 paddr 0x0000b000 align 2**12
         filesz 0x000002e0 memsz 0x0000b330 flags rw-
 DYNAMIC off    0x0000c000 vaddr 0x0000b000 paddr 0x0000b000 align 2**2
         filesz 0x00000088 memsz 0x00000088 flags rw-
   STACK off    0x00000000 vaddr 0x00000000 paddr 0x00000000 align 2**4
         filesz 0x00000000 memsz 0x00000000 flags rwx

Dynamic Section:
  HASH                 0x0000a204
  GNU_HASH             0x0000a148
  STRTAB               0x0000a1d4
  SYMTAB               0x0000a174
  STRSZ                0x0000002e
  SYMENT               0x00000010
  DEBUG                0x00000000
  REL                  0x0000b0d0
  RELSZ                0x00000130
  RELENT               0x00000008
  FLAGS_1              0x08000000
  RELCOUNT             0x00000017
private flags = 5000400: [Version5 EABI] [hard-float ABI]

Sections:
Idx Name          Size      VMA       LMA       File off  Algn
  0 .ta_head      00000020  00000000  00000000  00001000  2**3
                  CONTENTS, ALLOC, LOAD, READONLY, DATA
  1 .text         00008ef8  00000020  00000020  00001020  2**3
                  CONTENTS, ALLOC, LOAD, READONLY, CODE
  2 .rodata       0000122e  00008f18  00008f18  00009f18  2**2
                  CONTENTS, ALLOC, LOAD, READONLY, DATA
  3 .gnu.hash     0000002c  0000a148  0000a148  0000b148  2**2
                  CONTENTS, ALLOC, LOAD, READONLY, DATA
  4 .dynsym       00000060  0000a174  0000a174  0000b174  2**2
                  CONTENTS, ALLOC, LOAD, READONLY, DATA
  5 .dynstr       0000002e  0000a1d4  0000a1d4  0000b1d4  2**0
                  CONTENTS, ALLOC, LOAD, READONLY, DATA
  6 .hash         0000002c  0000a204  0000a204  0000b204  2**2
                  CONTENTS, ALLOC, LOAD, READONLY, DATA
  7 .dynamic      00000088  0000b000  0000b000  0000c000  2**2
                  CONTENTS, ALLOC, LOAD, DATA
  8 .got          00000048  0000b088  0000b088  0000c088  2**2
                  CONTENTS, ALLOC, LOAD, DATA
  9 .rel.got      00000078  0000b188  0000b188  0000c188  2**2
                  CONTENTS, ALLOC, LOAD, READONLY, DATA
 10 .data         000000e0  0000b200  0000b200  0000c200  2**2
                  CONTENTS, ALLOC, LOAD, DATA
 11 .bss          0000b050  0000b2e0  0000b2e0  0000c2e0  2**2
                  ALLOC
 12 .debug_info   00016e69  00000000  00000000  0000c2e0  2**0
                  CONTENTS, READONLY, DEBUGGING, OCTETS
 13 .debug_abbrev 00003d39  00000000  00000000  00023149  2**0
                  CONTENTS, READONLY, DEBUGGING, OCTETS
 14 .debug_loc    0001636f  00000000  00000000  00026e82  2**0
                  CONTENTS, READONLY, DEBUGGING, OCTETS
 15 .debug_aranges 00000660  00000000  00000000  0003d1f8  2**3
                  CONTENTS, READONLY, DEBUGGING, OCTETS
 16 .debug_ranges 00000fe8  00000000  00000000  0003d858  2**3
                  CONTENTS, READONLY, DEBUGGING, OCTETS
 17 .debug_macro  000188bc  00000000  00000000  0003e840  2**0
                  CONTENTS, READONLY, DEBUGGING, OCTETS
 18 .debug_line   00011939  00000000  00000000  000570fc  2**0
                  CONTENTS, READONLY, DEBUGGING, OCTETS
 19 .debug_str    00018b46  00000000  00000000  00068a35  2**0
                  CONTENTS, READONLY, DEBUGGING, OCTETS
 20 .comment      00000011  00000000  00000000  0008157b  2**0
                  CONTENTS, READONLY
 21 .ARM.attributes 00000033  00000000  00000000  0008158c  2**0
                  CONTENTS, READONLY
 22 .debug_frame  0000231c  00000000  00000000  000815c0  2**2
                  CONTENTS, READONLY, DEBUGGING, OCTETS
 23 .rel.dyn      000000b8  0000b0d0  0000b0d0  0000c0d0  2**2
                  CONTENTS, ALLOC, LOAD, READONLY, DATA
SYMBOL TABLE:
00000000 l    d  .ta_head	00000000 .ta_head
00000020 l    d  .text	00000000 .text
00008f18 l    d  .rodata	00000000 .rodata
0000a148 l    d  .gnu.hash	00000000 .gnu.hash
0000a174 l    d  .dynsym	00000000 .dynsym
0000a1d4 l    d  .dynstr	00000000 .dynstr
0000a204 l    d  .hash	00000000 .hash
0000b000 l    d  .dynamic	00000000 .dynamic
0000b088 l    d  .got	00000000 .got
0000b188 l    d  .rel.got	00000000 .rel.got
0000b200 l    d  .data	00000000 .data
0000b2e0 l    d  .bss	00000000 .bss
00000000 l    d  .debug_info	00000000 .debug_info
00000000 l    d  .debug_abbrev	00000000 .debug_abbrev
00000000 l    d  .debug_loc	00000000 .debug_loc
00000000 l    d  .debug_aranges	00000000 .debug_aranges
00000000 l    d  .debug_ranges	00000000 .debug_ranges
00000000 l    d  .debug_macro	00000000 .debug_macro
00000000 l    d  .debug_line	00000000 .debug_line
00000000 l    d  .debug_str	00000000 .debug_str
00000000 l    d  .comment	00000000 .comment
00000000 l    d  .ARM.attributes	00000000 .ARM.attributes
00000000 l    d  .debug_frame	00000000 .debug_frame
0000b0d0 l    d  .rel.dyn	00000000 .rel.dyn
00000000 l    df *ABS*	00000000 user_ta_header.c
00008f1c l     O .rodata	00000004 __compound_literal.5
00008f20 l     O .rodata	00000004 __compound_literal.4
00008f24 l     O .rodata	00000004 __compound_literal.3
00008f28 l     O .rodata	00000001 __compound_literal.2
00008f29 l     O .rodata	00000001 __compound_literal.1
00008f2a l     O .rodata	00000001 __compound_literal.0
00000000 l    df *ABS*	00000000 my_test_ta.c
000093cf l     O .rodata	00000014 __func__.6412
000093e3 l     O .rodata	00000015 __func__.6416
000093f8 l     O .rodata	00000019 __func__.6423
00009411 l     O .rodata	0000001a __func__.6427
0000942b l     O .rodata	00000009 __func__.6457
00009434 l     O .rodata	00000012 __func__.6451
00009446 l     O .rodata	0000000c __func__.6469
00000000 l    df *ABS*	00000000 ./ta_entry_a32.o
00000000 l    df *ABS*	00000000 memcpy.c
00000000 l    df *ABS*	00000000 trace.c
0000958c l     O .rodata	00000005 lvl_strs.5721
00000000 l    df *ABS*	00000000 snprintk.c
00000738 l     F .text	000006b0 kprintf.constprop.0
000095c9 l     O .rodata	00000011 HEXDIGITS
000095da l     O .rodata	00000011 hexdigits
00000000 l    df *ABS*	00000000 arm32_aeabi_ldivmod_a32.o
00000000 l    df *ABS*	00000000 trace_ext.c
00000000 l    df *ABS*	00000000 tee_api.c
00000ecc l     F .text	0000005e update_out_param
00000f9c l     F .text	00000128 copy_param
000095fc l     O .rodata	0000000b __func__.7158
0000b2e0 l     O .bss	00000004 tee_api_instance_data
00000000 l    df *ABS*	00000000 tee_api_objects.c
00000000 l    df *ABS*	00000000 tee_api_operations.c
00001b18 l     F .text	0000015c tee_buffer_update
00000000 l    df *ABS*	00000000 tee_api_panic.c
0000362c l     F .text	00000020 check_access
00003650 l     F .text	0000000a check_res.isra.0
00000000 l    df *ABS*	00000000 tee_system_pta.c
00003704 l     F .text	00000050 invoke_system_pta
00008f34 l     O .rodata	00000010 uuid.6381
00008f44 l     O .rodata	0000000a __func__.6401
0000b2e4 l     O .bss	00000004 sess.6380
00000000 l    df *ABS*	00000000 utee_syscalls_a32.o
00000000 l    df *ABS*	00000000 user_ta_entry.c
00003eb0 l     F .text	0000006a _get_fn_array
00003f1a l     F .text	00000032 _fini_iterate_phdr_cb
00003f4c l     F .text	0000001c ta_header_get_session
00003f68 l     F .text	0000005c to_utee_params
00003fc4 l     F .text	0000003a from_utee_params
00003ffe l     F .text	00000062 _init_iterate_phdr_cb
00004060 l     F .text	00000020 ta_header_save_params.part.0
00004148 l     F .text	0000006c ta_header_remove_session
0000964a l     O .rodata	00000016 __func__.7196
0000b2e8 l     O .bss	00000004 _num_mod_init
0000b2ec l     O .bss	00000001 init_done
0000b270 l     O .data	00000008 ta_sessions
0000b278 l     O .data	00000008 __phdr_info_head
00000000 l    df *ABS*	00000000 abort.c
00000000 l    df *ABS*	00000000 tee_api_arith_mpi.c
00004374 l     F .text	00000020 api_panic
00004394 l     F .text	00000020 mpi_panic
000043b4 l     F .text	00000050 get_mpi
00004404 l     F .text	00000040 copy_mpi_to_bigint
00004444 l     F .text	000000a4 bigint_binary
000044e8 l     F .text	00000010 mpi_is_odd
000044f8 l     F .text	00000016 rng_read
0000450e l     F .text	0000045e mpi_egcd
0000b320 l     O .bss	00003000 data.7200
00004ba0 l     F .text	00000104 bigint_binary_mod
0000971e l     O .rodata	00000008 __func__.7234
00009726 l     O .rodata	0000000e __func__.7331
00009734 l     O .rodata	00000009 __func__.7477
0000973d l     O .rodata	00000012 __func__.7201
0000974f l     O .rodata	0000000f __func__.7240
0000975e l     O .rodata	0000001f __func__.7258
0000977d l     O .rodata	00000019 __func__.7265
00009796 l     O .rodata	00000012 __func__.7343
000097a8 l     O .rodata	00000015 __func__.7296
000097bd l     O .rodata	0000000e __func__.7371
000097cb l     O .rodata	0000000e __func__.7400
000097d9 l     O .rodata	0000000e __func__.7408
000097e7 l     O .rodata	00000011 __func__.7437
000097f8 l     O .rodata	00000018 __func__.7454
00009810 l     O .rodata	0000001d __func__.7534
0000982d l     O .rodata	00000019 __func__.7587
00009846 l     O .rodata	00000015 __func__.7602
00000000 l    df *ABS*	00000000 tcb.c
000098f1 l     O .rodata	00000010 __func__.6127
00009901 l     O .rodata	00000010 __func__.6154
0000e320 l     O .bss	00000004 _tls_size
0000e324 l     O .bss	00000004 _tcb
00000000 l    df *ABS*	00000000 assert.c
00000000 l    df *ABS*	00000000 bignum.c
000057c0 l     F .text	0000003a mpi_get_digit
000057fa l     F .text	00000056 mpi_sub_hlp
00005850 l     F .text	00000524 mpi_mul_hlp
00005d74 l     F .text	00000052 mpi_bigendian_to_host.part.0
000070bc l     F .text	00000050 mpi_check_small_factors
000077d6 l     F .text	00000192 mpi_miller_rabin
00008f50 l     O .rodata	000002a0 small_prime
000091f0 l     O .rodata	00000024 gcd_pairs
00000000 l    df *ABS*	00000000 platform_util.c
0000b280 l     O .data	00000004 memset_func
00000000 l    df *ABS*	00000000 bget_malloc.c
000081f4 l     F .text	00000030 raw_malloc_return_hook.constprop.0
0000a053 l     O .rodata	00000005 __func__.5902
0000a058 l     O .rodata	00000006 __func__.5922
0000a05e l     O .rodata	00000005 __func__.5942
0000a063 l     O .rodata	00000006 __func__.5933
0000a069 l     O .rodata	00000006 __func__.5951
0000a06f l     O .rodata	00000007 __func__.5961
0000a076 l     O .rodata	00000014 __func__.6134
0000a08a l     O .rodata	0000000e __func__.6079
0000a098 l     O .rodata	00000013 __func__.6023
0000b284 l     O .data	0000005c malloc_ctx
00000000 l    df *ABS*	00000000 mempool.c
0000a125 l     O .rodata	00000013 __func__.5775
0000a138 l     O .rodata	0000000e __func__.5784
00000000 l    df *ABS*	00000000 memset.c
00000000 l    df *ABS*	00000000 memchr.c
00000000 l    df *ABS*	00000000 strlen.c
00000000 l    df *ABS*	00000000 arm32_aeabi_ldivmod.c
00000000 l    df *ABS*	00000000 snprintf.c
00000000 l    df *ABS*	00000000 memmove.c
00000000 l    df *ABS*	00000000 consttime_memcmp.c
00000000 l    df *ABS*	00000000 
0000b000 l     O *ABS*	00000000 _DYNAMIC
0000b088 l     O *ABS*	00000000 _GLOBAL_OFFSET_TABLE_
00008ed8 l     F .text	00000010 ___utee_check_access_rights_from_thumb
00008ee8 l     F .text	00000010 ___utee_panic_from_thumb
00008ef8 l     F .text	00000010 ___utee_log_from_thumb
00008f08 l     F .text	00000010 ___utee_cache_operation_from_thumb
00000ea8 g     F .text	00000022 putchar
000015e0 g     F .text	00000078 TEE_PopulateTransientObject
0000541e g     F .text	00000004 TEE_BigIntConvertToFMM
000050f4 g     F .text	00000008 TEE_BigIntSquareMod
00004ca4 g     F .text	00000110 TEE_BigIntShiftRight
00005e3c g     F .text	00000098 mbedtls_mpi_grow
00008d2e g     F .text	00000100 __l_divmod
00002780 g     F .text	00000030 TEE_DigestUpdate
00001328 g     F .text	00000004 TEE_Realloc
000025d4 g     F .text	000000f8 TEE_SetOperationKey2
000036f2 g     F .text	00000012 __utee_check_inout_annotation
00000e4a g     F .text	0000003a printf
00001658 g     F .text	00000022 TEE_InitRefAttribute
00003804 g     F .text	00000014 _utee_log
00001158 g     F .text	000000b4 TEE_InvokeTACommand
00003e9c g     F .text	00000014 utee_tzvfs_fchown
0000365a g     F .text	0000002e __utee_check_outbuf_annotation
00005dd2 g     F .text	00000026 mbedtls_mpi_init_mempool
00003aa0 g     F .text	00000014 _utee_cryp_random_number_generate
00003ca0 g     F .text	00000014 utee_sqlite_exec
0000636c g     F .text	0000006e mbedtls_mpi_write_binary
00003dbc g     F .text	00000018 utee_tzvfs_mremap
00002df0 g     F .text	00000120 TEE_AEEncryptFinal
00000710 g     F .text	0000000e vsnprintk
000068a4 g     F .text	0000002e mbedtls_mpi_sub_int
00003dfc g     F .text	00000014 utee_tzvfs_utimes
00008e5a g     F .text	00000034 memmove
00008e2e g     F .text	0000001e snprintf
00004b7a g     F .text	00000026 TEE_BigIntCmpS32
0000167a g     F .text	00000022 TEE_InitValueAttribute
00005ed4 g     F .text	000000b4 mbedtls_mpi_shrink
00004e00 g     F .text	00000020 TEE_BigIntAdd
00003a00 g     F .text	00000014 _utee_cryp_obj_restrict_usage
00008f2c g     O .rodata	00000004 ta_heap_size
00003c8c g     F .text	00000014 utee_tpm_get_version
000015b0 g     F .text	00000030 TEE_ResetTransientObject
00003b28 g     F .text	00000018 _utee_asymm_operate
000069bc g     F .text	00000128 mbedtls_mpi_read_string
00003e10 g     F .text	00000014 utee_tzvfs_lseek
00002834 g     F .text	00000056 TEE_CipherInit
00004e40 g     F .text	00000074 TEE_BigIntNeg
00003bc4 g     F .text	00000014 _utee_storage_free_enum
00000020 g       .text	00000000 __text_start
00001934 g     F .text	0000002c TEE_StartPersistentObjectEnumerator
0000647c g     F .text	00000078 mbedtls_mpi_shift_r
00008b10 g     F .text	00000054 malloc_buffer_overlaps_heap
00003968 g     F .text	00000014 _utee_hash_init
000050bc g     F .text	0000001c TEE_BigIntSubMod
00007cd4 g     F .text	00000210 mbedtls_mpi_gen_prime
0000613a g     F .text	00000022 mbedtls_mpi_get_bit
00006288 g     F .text	00000076 mbedtls_mpi_read_binary
00002c48 g     F .text	00000070 TEE_AEInit
000006c4 g     F .text	00000018 trace_printf
00007134 g     F .text	000000c8 mbedtls_mpi_montmul
00003d18 g     F .text	00000014 utee_tzvfs_fstat
00003c78 g     F .text	00000014 _utee_cache_operation
000004a0 g     F .text	000000b6 memcpy
00005422 g     F .text	00000066 TEE_BigIntConvertFromFMM
00003e24 g     F .text	00000014 utee_tzvfs_fsync
0000364c g     F .text	00000004 TEE_Panic
00003e60 g     F .text	00000014 utee_tzvfs_time
00000e18 g     F .text	00000018 __aeabi_uldivmod
000026cc g     F .text	000000b4 TEE_CopyOperation
00000e84 g     F .text	00000024 puts
00005488 g     F .text	000000c0 TEE_BigIntComputeFMM
0000882c g     F .text	0000001c malloc_get_stats
000012c8 g     F .text	00000016 TEE_GetREETime
000018d8 g     F .text	00000034 TEE_AllocatePersistentObjectEnumerator
0000b204 g     O .data	0000006c ta_props
00003010 g     F .text	000000c0 TEE_AsymmetricEncrypt
00003688 g     F .text	00000018 __utee_check_instring_annotation
00008848 g     F .text	00000030 malloc
00008c68 g     F .text	0000000a __ta_entry_c
00001734 g     F .text	00000054 TEE_GenerateKey
00008e4c g     F .text	0000000e vsnprintf
0000b200 g     O .data	00000004 trace_level
00004b44 g     F .text	00000036 TEE_BigIntCmp
00008f18 g     O .rodata	00000004 ta_num_props
00003da4 g     F .text	00000018 utee_tzvfs_mmap
00008694 g     F .text	00000084 bgetr
00003b58 g     F .text	00000018 _utee_storage_obj_open
00008c38 g     F .text	00000030 mempool_free
0000288a g     F .text	000000ee TEE_CipherUpdate
0000397c g     F .text	00000014 _utee_hash_update
00004a40 g     F .text	00000058 TEE_BigIntConvertToOctetString
00002428 g     F .text	000000d4 TEE_GetOperationInfoMultiple
000061e2 g     F .text	00000036 mbedtls_mpi_bitlen
00004db4 g     F .text	0000002a TEE_BigIntGetBit
00008f30 g     O .rodata	00000003 trace_ext_prefix
00003c00 g     F .text	00000014 _utee_storage_next_enum
0000842c g     F .text	00000060 bgetz
00001218 g     F .text	0000000c TEE_GetInstanceData
00001246 g     F .text	0000001e TEE_Wait
000068d2 g     F .text	000000ce mbedtls_mpi_mul_mpi
00001336 g     F .text	00000006 TEE_CacheFlush
00000588 g     F .text	0000013c trace_vprintf
00000048 g     F .text	00000028 TA_DestroyEntryPoint
00005dc6 g     F .text	0000000c mbedtls_mpi_init
00003b88 g     F .text	00000014 _utee_storage_obj_del
000061ae g     F .text	00000034 mbedtls_mpi_lsb
00005788 g     F .text	00000028 _assert_log
00003940 g     F .text	00000014 _utee_cryp_state_copy
0000541a g     F .text	00000004 TEE_BigIntFMMContextSizeInU32
0000378e g     F .text	0000004e tee_unmap
00002be0 g     F .text	00000068 TEE_MACCompareFinal
0000189e g     F .text	0000003a TEE_RenamePersistentObject
000027b0 g     F .text	00000084 TEE_DigestDoFinal
0000496c g     F .text	00000044 _TEE_MathAPI_Init
00005548 g     F .text	00000180 __utee_tcb_init
000067e4 g     F .text	00000048 mbedtls_mpi_add_mpi
0000435c g     F .text	00000018 abort
000036cc g     F .text	00000012 __utee_check_out_annotation
0000e32c g     O .bss	00008000 ta_heap
000050fc g     F .text	000000c0 TEE_BigIntInvMod
00004080 g     F .text	000000b8 __utee_call_elf_init_fn
000000bc g     F .text	00000028 TA_CloseSessionEntryPoint
00003870 g     F .text	00000014 _utee_close_ta_session
000030d0 g     F .text	000000c0 TEE_AsymmetricDecrypt
00001788 g     F .text	00000054 TEE_OpenPersistentObject
0000682c g     F .text	0000004a mbedtls_mpi_sub_mpi
00008e8e g     F .text	00000048 consttime_memcmp
000037f0 g     F .text	00000014 _utee_return
00003818 g     F .text	00000014 __utee_panic
000056c8 g     F .text	00000018 __tls_get_addr
000000e4 g     F .text	000003b8 TA_InvokeCommandEntryPoint
00004138 g     F .text	00000010 __utee_call_elf_fini_fn
00008950 g     F .text	00000014 free_wipe
00008ba8 g     F .text	0000006c mempool_alloc
000037dc g     F .text	00000014 _utee_panic
00008c14 g     F .text	00000024 mempool_calloc
00003c64 g     F .text	00000014 _utee_cryp_obj_generate_key
00003c3c g     F .text	00000014 _utee_storage_obj_trunc
00001704 g     F .text	00000030 TEE_CopyObjectAttributes
000038c4 g     F .text	00000014 _utee_unmask_cancellation
00008878 g     F .text	00000050 calloc
000012de g     F .text	0000004a TEE_Malloc
00000f92 g     F .text	0000000a TEE_CheckMemoryAccessRights
00008cb2 g     F .text	0000007c __ul_divmod
0000382c g     F .text	00000018 _utee_get_property
00006102 g     F .text	00000038 mbedtls_mpi_lset
00003d2c g     F .text	00000014 utee_tzvfs_fcntl
000019d0 g     F .text	00000054 TEE_ReadObjectData
00001418 g     F .text	00000078 TEE_GetObjectBufferAttribute
00000070 g     F .text	0000004c TA_OpenSessionEntryPoint
00001c74 g     F .text	00000026 TEE_FreeOperation
000056e0 g     F .text	000000a8 dl_iterate_phdr
00016330 g       .bss	00000000 __ftrace_buf_end
0000b31c g     O .bss	00000004 ta_param_types
00006e5a g     F .text	0000002e mbedtls_mpi_div_int
00001344 g     F .text	0000003e __utee_from_attr
00007c66 g     F .text	00000064 mbedtls_mpi_is_prime_ext
000053dc g     F .text	00000030 TEE_BigIntIsProbablePrime
000069a0 g     F .text	0000001c mbedtls_mpi_mul_int
00001864 g     F .text	00000024 TEE_CloseAndDeletePersistentObject1
0000721e g     F .text	0000044a mbedtls_mpi_exp_mod
00006010 g     F .text	00000068 mbedtls_mpi_safe_cond_assign
000065e0 g     F .text	000000a8 mbedtls_mpi_lt_mpi_ct
00002f10 g     F .text	00000100 TEE_AEDecryptFinal
000049b0 g     F .text	00000038 TEE_BigIntInit
000036a0 g     F .text	0000002c __utee_check_outstring_annotation
00001224 g     F .text	00000004 TEE_MemMove
000081e0 g     F .text	00000014 mbedtls_platform_zeroize
000049e8 g     F .text	00000058 TEE_BigIntConvertFromOctetString
00003b10 g     F .text	00000018 _utee_authenc_dec_final
000064f4 g     F .text	00000062 mbedtls_mpi_cmp_abs
00003c14 g     F .text	00000014 _utee_storage_obj_read
00002ac0 g     F .text	00000056 TEE_MACInit
00003190 g     F .text	000000bc TEE_AsymmetricSignDigest
00008c86 g     F .text	0000001c memchr
00000f5a g     F .text	0000001c TEE_UnmaskCancellation
00001382 g     F .text	0000002a TEE_GetObjectInfo
00007ee4 g     F .text	000002fc mbedtls_mpi_self_test
00003c50 g     F .text	00000014 _utee_storage_obj_seek
00002cfe g     F .text	000000f2 TEE_AEUpdate
00001580 g     F .text	00000030 TEE_FreeTransientObject
000038b0 g     F .text	00000014 _utee_check_access_rights
00006688 g     F .text	0000002e mbedtls_mpi_cmp_int
00003e38 g     F .text	00000014 utee_tzvfs_getenv
00003bd8 g     F .text	00000014 _utee_storage_reset_enum
000033d6 g     F .text	00000018 rand
000036de g     F .text	00000014 __utee_check_attr_in_annotation
00003ae0 g     F .text	00000018 _utee_authenc_update_payload
000023f8 g     F .text	00000030 TEE_GetOperationInfo
00005050 g     F .text	00000050 TEE_BigIntMod
00006eec g     F .text	0000006e mbedtls_mpi_mod_int
00006224 g     F .text	00000064 mbedtls_mpi_read_binary_le
00004f62 g     F .text	000000ee TEE_BigIntDiv
00003a28 g     F .text	00000014 _utee_cryp_obj_alloc
00016330 g       .bss	00000000 __ftrace_buf_start
00005f88 g     F .text	0000005a mbedtls_mpi_copy
000033ee g     F .text	0000023e TEE_IsAlgorithmSupported
00008818 g     F .text	00000014 malloc_reset_stats
00000de8 g     F .text	00000016 __vsprintf
00003914 g     F .text	00000014 _utee_set_ta_time
00003884 g     F .text	00000018 _utee_invoke_ta_command
000013cc g     F .text	00000020 TEE_RestrictObjectUsage1
000088c8 g     F .text	00000034 realloc
00005fe2 g     F .text	0000002e mbedtls_mpi_swap
00003d54 g     F .text	00000014 utee_tzvfs_write
00008b64 g     F .text	00000044 mempool_alloc_pool
00004eb4 g     F .text	000000a8 TEE_BigIntMul
000024fc g     F .text	00000040 TEE_ResetOperation
000063da g     F .text	000000a2 mbedtls_mpi_shift_l
00006556 g     F .text	0000008a mbedtls_mpi_cmp_mpi
0000122c g     F .text	00000004 TEE_MemFill
00008964 g     F .text	000000cc malloc_add_pool
00002b16 g     F .text	0000004e TEE_MACUpdate
00000574 g     F .text	00000014 trace_get_level
000066b6 g     F .text	000000b2 mbedtls_mpi_add_abs
000013ec g     F .text	0000002c TEE_RestrictObjectUsage
00005412 g     F .text	00000008 TEE_BigIntFMMSizeInU32
0000540c g     F .text	00000004 TEE_BigIntInitFMM
0000152c g     F .text	00000014 TEE_CloseObject
000039a8 g     F .text	00000014 _utee_cipher_init
000041b4 g     F .text	000001a8 __utee_entry
00008f18 g       .text	00000000 __text_end
000051bc g     F .text	0000007c TEE_BigIntRelativePrime
00006e88 g     F .text	00000064 mbedtls_mpi_mod_mpi
000039ec g     F .text	00000014 _utee_cryp_obj_get_info
00008718 g     F .text	0000009c bpool
00003928 g     F .text	00000018 _utee_cryp_state_alloc
00000f3e g     F .text	0000001c TEE_GetCancellationFlag
00007668 g     F .text	00000108 mbedtls_mpi_gcd
000012a0 g     F .text	00000028 TEE_SetTAPersistentTime
000062fe g     F .text	0000006e mbedtls_mpi_write_binary_le
00008c76 g     F .text	00000010 memset
00001264 g     F .text	0000003c TEE_GetTAPersistentTime
000006dc g     F .text	00000002 dhex_dump
000017dc g     F .text	00000088 TEE_CreatePersistentObject
00000f76 g     F .text	0000001c TEE_MaskCancellation
00003de8 g     F .text	00000014 utee_tzvfs_strcspn
00002cb8 g     F .text	00000046 TEE_AEUpdateAAD
00001a64 g     F .text	00000038 TEE_TruncateObjectData
00003a14 g     F .text	00000014 _utee_cryp_obj_get_attr
000013ac g     F .text	00000020 TEE_GetObjectInfo1
000039d4 g     F .text	00000018 _utee_cipher_final
00000558 g     F .text	0000001c trace_set_level
00001490 g     F .text	0000009c TEE_GetObjectValueAttribute
0000253c g     F .text	00000098 TEE_SetOperationKey
00003e4c g     F .text	00000014 utee_tzvfs_getpid
00003954 g     F .text	00000014 _utee_cryp_state_free
00003858 g     F .text	00000018 _utee_open_ta_session
00004ae8 g     F .text	0000005c TEE_BigIntConvertToS32
00004e20 g     F .text	00000020 TEE_BigIntSub
00008c72 g     F .text	00000004 tahead_get_trace_level
00003bec g     F .text	00000014 _utee_storage_start_enum
00001a9c g     F .text	0000007c TEE_SeekObjectData
00003754 g     F .text	0000003a tee_map_zi
000071fc g     F .text	00000022 mbedtls_mpi_montred
000088fc g     F .text	00000040 memalign
00002978 g     F .text	00000148 TEE_CipherDoFinal
00003d68 g     F .text	00000014 utee_tzvfs_geteuid
00003dd4 g     F .text	00000014 utee_tzvfs_munmap
00004a98 g     F .text	00000050 TEE_BigIntConvertFromS32
00006876 g     F .text	0000002e mbedtls_mpi_add_int
00003af8 g     F .text	00000018 _utee_authenc_enc_final
00008a30 g     F .text	000000e0 malloc_buffer_is_within_alloced
00003a3c g     F .text	00000014 _utee_cryp_obj_close
00005410 g     F .text	00000002 TEE_BigIntInitFMMContext
000038d8 g     F .text	00000014 _utee_mask_cancellation
00003b9c g     F .text	00000014 _utee_storage_obj_rename
00001920 g     F .text	00000014 TEE_ResetPersistentObjectEnumerator
00001a24 g     F .text	00000040 TEE_WriteObjectData
00004f5c g     F .text	00000006 TEE_BigIntSquare
00003c28 g     F .text	00000014 _utee_storage_obj_write
00000020 g     F .text	00000028 TA_CreateEntryPoint
0000049c g     F .text	00000004 __ta_entry
00003acc g     F .text	00000014 _utee_authenc_update_aad
0000710c g     F .text	00000028 mbedtls_mpi_montg_init
0000071e g     F .text	0000001a snprintk
00004dde g     F .text	00000022 TEE_BigIntGetBitCount
00003a78 g     F .text	00000014 _utee_cryp_obj_copy
000050d8 g     F .text	0000001c TEE_BigIntMulMod
00003e74 g     F .text	00000014 utee_tzvfs_sleep
00007968 g     F .text	000002fe mbedtls_mpi_inv_mod
000032f4 g     F .text	000000d0 TEE_DeriveKey
0000b2fc g     O .bss	00000020 ta_params
00006ae4 g     F .text	00000376 mbedtls_mpi_div_mpi
00006218 g     F .text	0000000c mbedtls_mpi_size
00008224 g     F .text	00000208 bget
00001540 g     F .text	00000040 TEE_AllocateTransientObject
000038ec g     F .text	00000014 _utee_wait
0000615c g     F .text	00000052 mbedtls_mpi_set_bit
0000132c g     F .text	00000004 TEE_Free
00007cca g     F .text	0000000a mbedtls_mpi_is_prime
0000133c g     F .text	00000006 TEE_CacheInvalidate
000057b0 g     F .text	00000010 _assert_break
000050a0 g     F .text	0000001c TEE_BigIntAddMod
00003900 g     F .text	00000014 _utee_get_time
00001c9a g     F .text	0000075e TEE_AllocateOperation
00003a64 g     F .text	00000014 _utee_cryp_obj_populate
000033c4 g     F .text	00000012 TEE_GenerateRandom
00001228 g     F .text	00000004 TEE_MemCompare
000039bc g     F .text	00000018 _utee_cipher_update
000006e0 g     F .text	00000030 __vsnprintf
0000b2f0 g     O .bss	0000000c __elf_phdr_info
0000190c g     F .text	00000014 TEE_FreePersistentObjectEnumerator
000010c4 g     F .text	00000094 TEE_OpenTASession
00000e30 g     F .text	00000014 trace_ext_puts
00003cb4 g     F .text	00000014 utee_tzvfs_open
00000e44 g     F .text	00000006 trace_ext_get_thread_id
00001888 g     F .text	00000016 TEE_CloseAndDeletePersistentObject
00003a8c g     F .text	00000014 _utee_cryp_derive_key
00005df8 g     F .text	00000044 mbedtls_mpi_free
00003cc8 g     F .text	00000014 utee_tzvfs_close
00003a50 g     F .text	00000014 _utee_cryp_obj_reset
00001330 g     F .text	00000006 TEE_CacheClean
00003844 g     F .text	00000014 _utee_get_property_name_to_index
00003d40 g     F .text	00000014 utee_tzvfs_read
00006078 g     F .text	0000008a mbedtls_mpi_safe_cond_swap
00003ab4 g     F .text	00000018 _utee_authenc_init
0000169c g     F .text	00000068 TEE_CopyObjectAttributes1
00008ca2 g     F .text	00000010 strlen
00005238 g     F .text	000001a4 TEE_BigIntComputeExtendedGcd
00003bb0 g     F .text	00000014 _utee_storage_alloc_enum
00003cf0 g     F .text	00000014 utee_tzvfs_lstat
00001230 g     F .text	00000016 TEE_GetSystemTime
00003b40 g     F .text	00000018 _utee_asymm_verify
00000000 g     O .ta_head	00000020 ta_head
0000848c g     F .text	00000208 brel
00003e88 g     F .text	00000014 utee_tzvfs_gettimeofday
00006768 g     F .text	0000007c mbedtls_mpi_sub_abs
00007770 g     F .text	00000066 mbedtls_mpi_fill_random
00003d90 g     F .text	00000014 utee_tzvfs_access
00003cdc g     F .text	00000014 utee_tzvfs_getcwd
0000120c g     F .text	0000000c TEE_SetInstanceData
0000389c g     F .text	00000014 _utee_get_cancellation_flag
00000e00 g     F .text	00000018 __aeabi_ldivmod
00006f5a g     F .text	00000162 mbedtls_mpi_write_string
00001960 g     F .text	00000070 TEE_GetNextPersistentObject
00000f2a g     F .text	00000014 TEE_CloseTASession
0000324c g     F .text	000000a8 TEE_AsymmetricVerifyDigest
00003b70 g     F .text	00000018 _utee_storage_obj_create
00003d04 g     F .text	00000014 utee_tzvfs_stat
00003d7c g     F .text	00000014 utee_tzvfs_unlink
0000893c g     F .text	00000014 free
000087b4 g     F .text	00000064 bstats
00002b64 g     F .text	0000007c TEE_MACComputeFinal
0000e328 g     O .bss	00000004 mbedtls_mpi_mempool
00003990 g     F .text	00000018 _utee_hash_final



Disassembly of section .text:

00000020 <TA_CreateEntryPoint>:
TA_CreateEntryPoint():
/home/frank/TrustSQLite/stm32mp1-openstlinux-5.10-dunfell-mp1-21-11-17/SDK/my_test/ta/my_test_ta.c:46
      20:	4b07      	ldr	r3, [pc, #28]	; (40 <TA_CreateEntryPoint+0x20>)
/home/frank/TrustSQLite/stm32mp1-openstlinux-5.10-dunfell-mp1-21-11-17/SDK/my_test/ta/my_test_ta.c:45
      22:	b507      	push	{r0, r1, r2, lr}
/home/frank/TrustSQLite/stm32mp1-openstlinux-5.10-dunfell-mp1-21-11-17/SDK/my_test/ta/my_test_ta.c:46
      24:	2203      	movs	r2, #3
      26:	4807      	ldr	r0, [pc, #28]	; (44 <TA_CreateEntryPoint+0x24>)
      28:	212e      	movs	r1, #46	; 0x2e
      2a:	447b      	add	r3, pc
      2c:	9300      	str	r3, [sp, #0]
      2e:	2301      	movs	r3, #1
      30:	4478      	add	r0, pc
      32:	f000 fb47 	bl	6c4 <trace_printf>
/home/frank/TrustSQLite/stm32mp1-openstlinux-5.10-dunfell-mp1-21-11-17/SDK/my_test/ta/my_test_ta.c:49
      36:	2000      	movs	r0, #0
      38:	b003      	add	sp, #12
      3a:	f85d fb04 	ldr.w	pc, [sp], #4
      3e:	bf00      	nop
      40:	00009213 	.word	0x00009213
      44:	0000939b 	.word	0x0000939b

00000048 <TA_DestroyEntryPoint>:
TA_DestroyEntryPoint():
/home/frank/TrustSQLite/stm32mp1-openstlinux-5.10-dunfell-mp1-21-11-17/SDK/my_test/ta/my_test_ta.c:56
      48:	b507      	push	{r0, r1, r2, lr}
/home/frank/TrustSQLite/stm32mp1-openstlinux-5.10-dunfell-mp1-21-11-17/SDK/my_test/ta/my_test_ta.c:57
      4a:	2203      	movs	r2, #3
      4c:	4b06      	ldr	r3, [pc, #24]	; (68 <TA_DestroyEntryPoint+0x20>)
      4e:	2139      	movs	r1, #57	; 0x39
      50:	4806      	ldr	r0, [pc, #24]	; (6c <TA_DestroyEntryPoint+0x24>)
      52:	447b      	add	r3, pc
      54:	4478      	add	r0, pc
      56:	9300      	str	r3, [sp, #0]
      58:	3014      	adds	r0, #20
      5a:	2301      	movs	r3, #1
      5c:	f000 fb32 	bl	6c4 <trace_printf>
/home/frank/TrustSQLite/stm32mp1-openstlinux-5.10-dunfell-mp1-21-11-17/SDK/my_test/ta/my_test_ta.c:58
      60:	b003      	add	sp, #12
      62:	f85d fb04 	ldr.w	pc, [sp], #4
      66:	bf00      	nop
      68:	000091eb 	.word	0x000091eb
      6c:	00009377 	.word	0x00009377

00000070 <TA_OpenSessionEntryPoint>:
TA_OpenSessionEntryPoint():
/home/frank/TrustSQLite/stm32mp1-openstlinux-5.10-dunfell-mp1-21-11-17/SDK/my_test/ta/my_test_ta.c:69
      70:	b537      	push	{r0, r1, r2, r4, r5, lr}
      72:	4604      	mov	r4, r0
/home/frank/TrustSQLite/stm32mp1-openstlinux-5.10-dunfell-mp1-21-11-17/SDK/my_test/ta/my_test_ta.c:75
      74:	4d0e      	ldr	r5, [pc, #56]	; (b0 <TA_OpenSessionEntryPoint+0x40>)
      76:	2203      	movs	r2, #3
      78:	4b0e      	ldr	r3, [pc, #56]	; (b4 <TA_OpenSessionEntryPoint+0x44>)
      7a:	214b      	movs	r1, #75	; 0x4b
      7c:	447d      	add	r5, pc
      7e:	447b      	add	r3, pc
      80:	3529      	adds	r5, #41	; 0x29
      82:	9300      	str	r3, [sp, #0]
      84:	4628      	mov	r0, r5
      86:	2301      	movs	r3, #1
      88:	f000 fb1c 	bl	6c4 <trace_printf>
/home/frank/TrustSQLite/stm32mp1-openstlinux-5.10-dunfell-mp1-21-11-17/SDK/my_test/ta/my_test_ta.c:77
      8c:	b95c      	cbnz	r4, a6 <TA_OpenSessionEntryPoint+0x36>
/home/frank/TrustSQLite/stm32mp1-openstlinux-5.10-dunfell-mp1-21-11-17/SDK/my_test/ta/my_test_ta.c:88
      8e:	4b0a      	ldr	r3, [pc, #40]	; (b8 <TA_OpenSessionEntryPoint+0x48>)
      90:	2202      	movs	r2, #2
      92:	2158      	movs	r1, #88	; 0x58
      94:	4628      	mov	r0, r5
      96:	447b      	add	r3, pc
      98:	9300      	str	r3, [sp, #0]
      9a:	2301      	movs	r3, #1
      9c:	f000 fb12 	bl	6c4 <trace_printf>
/home/frank/TrustSQLite/stm32mp1-openstlinux-5.10-dunfell-mp1-21-11-17/SDK/my_test/ta/my_test_ta.c:92
      a0:	4620      	mov	r0, r4
      a2:	b003      	add	sp, #12
      a4:	bd30      	pop	{r4, r5, pc}
/home/frank/TrustSQLite/stm32mp1-openstlinux-5.10-dunfell-mp1-21-11-17/SDK/my_test/ta/my_test_ta.c:78
      a6:	4c01      	ldr	r4, [pc, #4]	; (ac <TA_OpenSessionEntryPoint+0x3c>)
      a8:	e7fa      	b.n	a0 <TA_OpenSessionEntryPoint+0x30>
      aa:	bf00      	nop
      ac:	ffff0006 	.word	0xffff0006
      b0:	0000934f 	.word	0x0000934f
      b4:	000091bf 	.word	0x000091bf
      b8:	0000917a 	.word	0x0000917a

000000bc <TA_CloseSessionEntryPoint>:
TA_CloseSessionEntryPoint():
/home/frank/TrustSQLite/stm32mp1-openstlinux-5.10-dunfell-mp1-21-11-17/SDK/my_test/ta/my_test_ta.c:99
      bc:	b507      	push	{r0, r1, r2, lr}
/home/frank/TrustSQLite/stm32mp1-openstlinux-5.10-dunfell-mp1-21-11-17/SDK/my_test/ta/my_test_ta.c:101
      be:	2202      	movs	r2, #2
      c0:	4b06      	ldr	r3, [pc, #24]	; (dc <TA_CloseSessionEntryPoint+0x20>)
      c2:	2165      	movs	r1, #101	; 0x65
      c4:	4806      	ldr	r0, [pc, #24]	; (e0 <TA_CloseSessionEntryPoint+0x24>)
      c6:	447b      	add	r3, pc
      c8:	4478      	add	r0, pc
      ca:	9300      	str	r3, [sp, #0]
      cc:	3042      	adds	r0, #66	; 0x42
      ce:	2301      	movs	r3, #1
      d0:	f000 faf8 	bl	6c4 <trace_printf>
/home/frank/TrustSQLite/stm32mp1-openstlinux-5.10-dunfell-mp1-21-11-17/SDK/my_test/ta/my_test_ta.c:102
      d4:	b003      	add	sp, #12
      d6:	f85d fb04 	ldr.w	pc, [sp], #4
      da:	bf00      	nop
      dc:	0000915c 	.word	0x0000915c
      e0:	00009303 	.word	0x00009303

000000e4 <TA_InvokeCommandEntryPoint>:
TA_InvokeCommandEntryPoint():
/home/frank/TrustSQLite/stm32mp1-openstlinux-5.10-dunfell-mp1-21-11-17/SDK/my_test/ta/my_test_ta.c:332
      e4:	2905      	cmp	r1, #5
/home/frank/TrustSQLite/stm32mp1-openstlinux-5.10-dunfell-mp1-21-11-17/SDK/my_test/ta/my_test_ta.c:329
      e6:	e92d 4ff0 	stmdb	sp!, {r4, r5, r6, r7, r8, r9, sl, fp, lr}
      ea:	4614      	mov	r4, r2
      ec:	b0ad      	sub	sp, #180	; 0xb4
      ee:	461d      	mov	r5, r3
/home/frank/TrustSQLite/stm32mp1-openstlinux-5.10-dunfell-mp1-21-11-17/SDK/my_test/ta/my_test_ta.c:332
      f0:	d003      	beq.n	fa <TA_InvokeCommandEntryPoint+0x16>
      f2:	2906      	cmp	r1, #6
      f4:	d074      	beq.n	1e0 <TA_InvokeCommandEntryPoint+0xfc>
get_hash():
/home/frank/TrustSQLite/stm32mp1-openstlinux-5.10-dunfell-mp1-21-11-17/SDK/my_test/ta/my_test_ta.c:195
      f6:	4cc0      	ldr	r4, [pc, #768]	; (3f8 <TA_InvokeCommandEntryPoint+0x314>)
      f8:	e06e      	b.n	1d8 <TA_InvokeCommandEntryPoint+0xf4>
/home/frank/TrustSQLite/stm32mp1-openstlinux-5.10-dunfell-mp1-21-11-17/SDK/my_test/ta/my_test_ta.c:192
      fa:	4bc1      	ldr	r3, [pc, #772]	; (400 <TA_InvokeCommandEntryPoint+0x31c>)
      fc:	21c0      	movs	r1, #192	; 0xc0
      fe:	48c1      	ldr	r0, [pc, #772]	; (404 <TA_InvokeCommandEntryPoint+0x320>)
     100:	447b      	add	r3, pc
     102:	9300      	str	r3, [sp, #0]
     104:	2301      	movs	r3, #1
     106:	4478      	add	r0, pc
     108:	461a      	mov	r2, r3
     10a:	305c      	adds	r0, #92	; 0x5c
     10c:	f000 fada 	bl	6c4 <trace_printf>
/home/frank/TrustSQLite/stm32mp1-openstlinux-5.10-dunfell-mp1-21-11-17/SDK/my_test/ta/my_test_ta.c:194
     110:	2c73      	cmp	r4, #115	; 0x73
     112:	d1f0      	bne.n	f6 <TA_InvokeCommandEntryPoint+0x12>
/home/frank/TrustSQLite/stm32mp1-openstlinux-5.10-dunfell-mp1-21-11-17/SDK/my_test/ta/my_test_ta.c:197
     114:	68ee      	ldr	r6, [r5, #12]
/home/frank/TrustSQLite/stm32mp1-openstlinux-5.10-dunfell-mp1-21-11-17/SDK/my_test/ta/my_test_ta.c:198
     116:	2100      	movs	r1, #0
/home/frank/TrustSQLite/stm32mp1-openstlinux-5.10-dunfell-mp1-21-11-17/SDK/my_test/ta/my_test_ta.c:202
     118:	f8df 82ec 	ldr.w	r8, [pc, #748]	; 408 <TA_InvokeCommandEntryPoint+0x324>
/home/frank/TrustSQLite/stm32mp1-openstlinux-5.10-dunfell-mp1-21-11-17/SDK/my_test/ta/my_test_ta.c:198
     11c:	4630      	mov	r0, r6
/home/frank/TrustSQLite/stm32mp1-openstlinux-5.10-dunfell-mp1-21-11-17/SDK/my_test/ta/my_test_ta.c:202
     11e:	44f8      	add	r8, pc
/home/frank/TrustSQLite/stm32mp1-openstlinux-5.10-dunfell-mp1-21-11-17/SDK/my_test/ta/my_test_ta.c:198
     120:	f001 f8dd 	bl	12de <TEE_Malloc>
/home/frank/TrustSQLite/stm32mp1-openstlinux-5.10-dunfell-mp1-21-11-17/SDK/my_test/ta/my_test_ta.c:199
     124:	68a9      	ldr	r1, [r5, #8]
     126:	4632      	mov	r2, r6
/home/frank/TrustSQLite/stm32mp1-openstlinux-5.10-dunfell-mp1-21-11-17/SDK/my_test/ta/my_test_ta.c:198
     128:	4604      	mov	r4, r0
/home/frank/TrustSQLite/stm32mp1-openstlinux-5.10-dunfell-mp1-21-11-17/SDK/my_test/ta/my_test_ta.c:199
     12a:	f001 f87b 	bl	1224 <TEE_MemMove>
/home/frank/TrustSQLite/stm32mp1-openstlinux-5.10-dunfell-mp1-21-11-17/SDK/my_test/ta/my_test_ta.c:200
     12e:	48b7      	ldr	r0, [pc, #732]	; (40c <TA_InvokeCommandEntryPoint+0x328>)
     130:	1e65      	subs	r5, r4, #1
     132:	f104 071f 	add.w	r7, r4, #31
     136:	4478      	add	r0, pc
     138:	f000 fe87 	bl	e4a <printf>
/home/frank/TrustSQLite/stm32mp1-openstlinux-5.10-dunfell-mp1-21-11-17/SDK/my_test/ta/my_test_ta.c:202
     13c:	f815 1f01 	ldrb.w	r1, [r5, #1]!
     140:	4640      	mov	r0, r8
     142:	f000 fe82 	bl	e4a <printf>
/home/frank/TrustSQLite/stm32mp1-openstlinux-5.10-dunfell-mp1-21-11-17/SDK/my_test/ta/my_test_ta.c:201
     146:	42af      	cmp	r7, r5
     148:	d1f8      	bne.n	13c <TA_InvokeCommandEntryPoint+0x58>
/home/frank/TrustSQLite/stm32mp1-openstlinux-5.10-dunfell-mp1-21-11-17/SDK/my_test/ta/my_test_ta.c:204
     14a:	200a      	movs	r0, #10
     14c:	f000 feac 	bl	ea8 <putchar>
create_raw_object():
/home/frank/TrustSQLite/stm32mp1-openstlinux-5.10-dunfell-mp1-21-11-17/SDK/my_test/ta/my_test_ta.c:161
     150:	49af      	ldr	r1, [pc, #700]	; (410 <TA_InvokeCommandEntryPoint+0x32c>)
     152:	ab1c      	add	r3, sp, #112	; 0x70
     154:	9303      	str	r3, [sp, #12]
     156:	2300      	movs	r3, #0
     158:	9302      	str	r3, [sp, #8]
     15a:	2208      	movs	r2, #8
     15c:	9301      	str	r3, [sp, #4]
     15e:	2001      	movs	r0, #1
     160:	9300      	str	r3, [sp, #0]
     162:	f240 4307 	movw	r3, #1031	; 0x407
     166:	4479      	add	r1, pc
     168:	f001 fb38 	bl	17dc <TEE_CreatePersistentObject>
/home/frank/TrustSQLite/stm32mp1-openstlinux-5.10-dunfell-mp1-21-11-17/SDK/my_test/ta/my_test_ta.c:167
     16c:	b1b8      	cbz	r0, 19e <TA_InvokeCommandEntryPoint+0xba>
/home/frank/TrustSQLite/stm32mp1-openstlinux-5.10-dunfell-mp1-21-11-17/SDK/my_test/ta/my_test_ta.c:168
     16e:	4ba9      	ldr	r3, [pc, #676]	; (414 <TA_InvokeCommandEntryPoint+0x330>)
     170:	21a8      	movs	r1, #168	; 0xa8
     172:	9001      	str	r0, [sp, #4]
     174:	48a8      	ldr	r0, [pc, #672]	; (418 <TA_InvokeCommandEntryPoint+0x334>)
     176:	447b      	add	r3, pc
     178:	4478      	add	r0, pc
     17a:	9300      	str	r3, [sp, #0]
     17c:	2301      	movs	r3, #1
     17e:	461a      	mov	r2, r3
     180:	3065      	adds	r0, #101	; 0x65
     182:	f000 fa9f 	bl	6c4 <trace_printf>
get_hash():
/home/frank/TrustSQLite/stm32mp1-openstlinux-5.10-dunfell-mp1-21-11-17/SDK/my_test/ta/my_test_ta.c:209
     186:	4ba5      	ldr	r3, [pc, #660]	; (41c <TA_InvokeCommandEntryPoint+0x338>)
     188:	21d1      	movs	r1, #209	; 0xd1
     18a:	48a5      	ldr	r0, [pc, #660]	; (420 <TA_InvokeCommandEntryPoint+0x33c>)
     18c:	447b      	add	r3, pc
     18e:	9300      	str	r3, [sp, #0]
     190:	2301      	movs	r3, #1
     192:	4478      	add	r0, pc
     194:	461a      	mov	r2, r3
     196:	305c      	adds	r0, #92	; 0x5c
     198:	f000 fa94 	bl	6c4 <trace_printf>
     19c:	e018      	b.n	1d0 <TA_InvokeCommandEntryPoint+0xec>
create_raw_object():
/home/frank/TrustSQLite/stm32mp1-openstlinux-5.10-dunfell-mp1-21-11-17/SDK/my_test/ta/my_test_ta.c:173
     19e:	981c      	ldr	r0, [sp, #112]	; 0x70
     1a0:	4632      	mov	r2, r6
     1a2:	4621      	mov	r1, r4
     1a4:	f001 fc3e 	bl	1a24 <TEE_WriteObjectData>
/home/frank/TrustSQLite/stm32mp1-openstlinux-5.10-dunfell-mp1-21-11-17/SDK/my_test/ta/my_test_ta.c:174
     1a8:	b178      	cbz	r0, 1ca <TA_InvokeCommandEntryPoint+0xe6>
/home/frank/TrustSQLite/stm32mp1-openstlinux-5.10-dunfell-mp1-21-11-17/SDK/my_test/ta/my_test_ta.c:175
     1aa:	4b9e      	ldr	r3, [pc, #632]	; (424 <TA_InvokeCommandEntryPoint+0x340>)
     1ac:	21af      	movs	r1, #175	; 0xaf
     1ae:	9001      	str	r0, [sp, #4]
     1b0:	489d      	ldr	r0, [pc, #628]	; (428 <TA_InvokeCommandEntryPoint+0x344>)
     1b2:	447b      	add	r3, pc
     1b4:	9300      	str	r3, [sp, #0]
     1b6:	2301      	movs	r3, #1
     1b8:	4478      	add	r0, pc
     1ba:	461a      	mov	r2, r3
     1bc:	3065      	adds	r0, #101	; 0x65
     1be:	f000 fa81 	bl	6c4 <trace_printf>
/home/frank/TrustSQLite/stm32mp1-openstlinux-5.10-dunfell-mp1-21-11-17/SDK/my_test/ta/my_test_ta.c:176
     1c2:	981c      	ldr	r0, [sp, #112]	; 0x70
     1c4:	f001 fb4e 	bl	1864 <TEE_CloseAndDeletePersistentObject1>
     1c8:	e7dd      	b.n	186 <TA_InvokeCommandEntryPoint+0xa2>
/home/frank/TrustSQLite/stm32mp1-openstlinux-5.10-dunfell-mp1-21-11-17/SDK/my_test/ta/my_test_ta.c:178
     1ca:	981c      	ldr	r0, [sp, #112]	; 0x70
     1cc:	f001 f9ae 	bl	152c <TEE_CloseObject>
get_hash():
/home/frank/TrustSQLite/stm32mp1-openstlinux-5.10-dunfell-mp1-21-11-17/SDK/my_test/ta/my_test_ta.c:213
     1d0:	4620      	mov	r0, r4
/home/frank/TrustSQLite/stm32mp1-openstlinux-5.10-dunfell-mp1-21-11-17/SDK/my_test/ta/my_test_ta.c:214
     1d2:	2400      	movs	r4, #0
/home/frank/TrustSQLite/stm32mp1-openstlinux-5.10-dunfell-mp1-21-11-17/SDK/my_test/ta/my_test_ta.c:213
     1d4:	f001 f8aa 	bl	132c <TEE_Free>
TA_InvokeCommandEntryPoint():
/home/frank/TrustSQLite/stm32mp1-openstlinux-5.10-dunfell-mp1-21-11-17/SDK/my_test/ta/my_test_ta.c:340
     1d8:	4620      	mov	r0, r4
     1da:	b02d      	add	sp, #180	; 0xb4
     1dc:	e8bd 8ff0 	ldmia.w	sp!, {r4, r5, r6, r7, r8, r9, sl, fp, pc}
verify_hash():
/home/frank/TrustSQLite/stm32mp1-openstlinux-5.10-dunfell-mp1-21-11-17/SDK/my_test/ta/my_test_ta.c:223
     1e0:	4e92      	ldr	r6, [pc, #584]	; (42c <TA_InvokeCommandEntryPoint+0x348>)
     1e2:	2203      	movs	r2, #3
     1e4:	4b92      	ldr	r3, [pc, #584]	; (430 <TA_InvokeCommandEntryPoint+0x34c>)
     1e6:	21df      	movs	r1, #223	; 0xdf
     1e8:	447e      	add	r6, pc
/home/frank/TrustSQLite/stm32mp1-openstlinux-5.10-dunfell-mp1-21-11-17/SDK/my_test/ta/my_test_ta.c:224
     1ea:	2720      	movs	r7, #32
/home/frank/TrustSQLite/stm32mp1-openstlinux-5.10-dunfell-mp1-21-11-17/SDK/my_test/ta/my_test_ta.c:223
     1ec:	447b      	add	r3, pc
     1ee:	3677      	adds	r6, #119	; 0x77
     1f0:	9300      	str	r3, [sp, #0]
     1f2:	4630      	mov	r0, r6
     1f4:	2301      	movs	r3, #1
     1f6:	f000 fa65 	bl	6c4 <trace_printf>
/home/frank/TrustSQLite/stm32mp1-openstlinux-5.10-dunfell-mp1-21-11-17/SDK/my_test/ta/my_test_ta.c:224
     1fa:	9709      	str	r7, [sp, #36]	; 0x24
/home/frank/TrustSQLite/stm32mp1-openstlinux-5.10-dunfell-mp1-21-11-17/SDK/my_test/ta/my_test_ta.c:226
     1fc:	f240 7337 	movw	r3, #1847	; 0x737
     200:	429c      	cmp	r4, r3
     202:	f47f af78 	bne.w	f6 <TA_InvokeCommandEntryPoint+0x12>
/home/frank/TrustSQLite/stm32mp1-openstlinux-5.10-dunfell-mp1-21-11-17/SDK/my_test/ta/my_test_ta.c:235
     206:	2100      	movs	r1, #0
     208:	4638      	mov	r0, r7
     20a:	f001 f868 	bl	12de <TEE_Malloc>
/home/frank/TrustSQLite/stm32mp1-openstlinux-5.10-dunfell-mp1-21-11-17/SDK/my_test/ta/my_test_ta.c:236
     20e:	4989      	ldr	r1, [pc, #548]	; (434 <TA_InvokeCommandEntryPoint+0x350>)
     210:	ab0a      	add	r3, sp, #40	; 0x28
/home/frank/TrustSQLite/stm32mp1-openstlinux-5.10-dunfell-mp1-21-11-17/SDK/my_test/ta/my_test_ta.c:235
     212:	9005      	str	r0, [sp, #20]
/home/frank/TrustSQLite/stm32mp1-openstlinux-5.10-dunfell-mp1-21-11-17/SDK/my_test/ta/my_test_ta.c:236
     214:	2208      	movs	r2, #8
     216:	9300      	str	r3, [sp, #0]
     218:	2001      	movs	r0, #1
     21a:	4479      	add	r1, pc
     21c:	2311      	movs	r3, #17
     21e:	f001 fab3 	bl	1788 <TEE_OpenPersistentObject>
/home/frank/TrustSQLite/stm32mp1-openstlinux-5.10-dunfell-mp1-21-11-17/SDK/my_test/ta/my_test_ta.c:241
     222:	4604      	mov	r4, r0
     224:	b150      	cbz	r0, 23c <TA_InvokeCommandEntryPoint+0x158>
/home/frank/TrustSQLite/stm32mp1-openstlinux-5.10-dunfell-mp1-21-11-17/SDK/my_test/ta/my_test_ta.c:242
     226:	4b84      	ldr	r3, [pc, #528]	; (438 <TA_InvokeCommandEntryPoint+0x354>)
     228:	21f2      	movs	r1, #242	; 0xf2
     22a:	9001      	str	r0, [sp, #4]
     22c:	447b      	add	r3, pc
     22e:	9300      	str	r3, [sp, #0]
     230:	2301      	movs	r3, #1
     232:	461a      	mov	r2, r3
/home/frank/TrustSQLite/stm32mp1-openstlinux-5.10-dunfell-mp1-21-11-17/SDK/my_test/ta/my_test_ta.c:248
     234:	4630      	mov	r0, r6
     236:	f000 fa45 	bl	6c4 <trace_printf>
/home/frank/TrustSQLite/stm32mp1-openstlinux-5.10-dunfell-mp1-21-11-17/SDK/my_test/ta/my_test_ta.c:249
     23a:	e7cd      	b.n	1d8 <TA_InvokeCommandEntryPoint+0xf4>
/home/frank/TrustSQLite/stm32mp1-openstlinux-5.10-dunfell-mp1-21-11-17/SDK/my_test/ta/my_test_ta.c:246
     23c:	980a      	ldr	r0, [sp, #40]	; 0x28
     23e:	a90d      	add	r1, sp, #52	; 0x34
     240:	f001 f8b4 	bl	13ac <TEE_GetObjectInfo1>
/home/frank/TrustSQLite/stm32mp1-openstlinux-5.10-dunfell-mp1-21-11-17/SDK/my_test/ta/my_test_ta.c:247
     244:	4604      	mov	r4, r0
     246:	b138      	cbz	r0, 258 <TA_InvokeCommandEntryPoint+0x174>
/home/frank/TrustSQLite/stm32mp1-openstlinux-5.10-dunfell-mp1-21-11-17/SDK/my_test/ta/my_test_ta.c:248
     248:	4b7c      	ldr	r3, [pc, #496]	; (43c <TA_InvokeCommandEntryPoint+0x358>)
     24a:	21f8      	movs	r1, #248	; 0xf8
     24c:	9001      	str	r0, [sp, #4]
     24e:	447b      	add	r3, pc
     250:	9300      	str	r3, [sp, #0]
     252:	2301      	movs	r3, #1
     254:	461a      	mov	r2, r3
     256:	e7ed      	b.n	234 <TA_InvokeCommandEntryPoint+0x150>
/home/frank/TrustSQLite/stm32mp1-openstlinux-5.10-dunfell-mp1-21-11-17/SDK/my_test/ta/my_test_ta.c:252
     258:	9a11      	ldr	r2, [sp, #68]	; 0x44
     25a:	2a20      	cmp	r2, #32
     25c:	f200 8119 	bhi.w	492 <TA_InvokeCommandEntryPoint+0x3ae>
/home/frank/TrustSQLite/stm32mp1-openstlinux-5.10-dunfell-mp1-21-11-17/SDK/my_test/ta/my_test_ta.c:257
     260:	9905      	ldr	r1, [sp, #20]
     262:	ab0b      	add	r3, sp, #44	; 0x2c
     264:	980a      	ldr	r0, [sp, #40]	; 0x28
     266:	f001 fbb3 	bl	19d0 <TEE_ReadObjectData>
/home/frank/TrustSQLite/stm32mp1-openstlinux-5.10-dunfell-mp1-21-11-17/SDK/my_test/ta/my_test_ta.c:259
     26a:	4604      	mov	r4, r0
     26c:	b918      	cbnz	r0, 276 <TA_InvokeCommandEntryPoint+0x192>
     26e:	9a11      	ldr	r2, [sp, #68]	; 0x44
     270:	9b0b      	ldr	r3, [sp, #44]	; 0x2c
     272:	429a      	cmp	r2, r3
     274:	d00c      	beq.n	290 <TA_InvokeCommandEntryPoint+0x1ac>
/home/frank/TrustSQLite/stm32mp1-openstlinux-5.10-dunfell-mp1-21-11-17/SDK/my_test/ta/my_test_ta.c:260
     276:	4b72      	ldr	r3, [pc, #456]	; (440 <TA_InvokeCommandEntryPoint+0x35c>)
     278:	f44f 7182 	mov.w	r1, #260	; 0x104
     27c:	4871      	ldr	r0, [pc, #452]	; (444 <TA_InvokeCommandEntryPoint+0x360>)
     27e:	447b      	add	r3, pc
     280:	9300      	str	r3, [sp, #0]
     282:	2301      	movs	r3, #1
     284:	4478      	add	r0, pc
     286:	461a      	mov	r2, r3
     288:	3077      	adds	r0, #119	; 0x77
     28a:	f000 fa1b 	bl	6c4 <trace_printf>
/home/frank/TrustSQLite/stm32mp1-openstlinux-5.10-dunfell-mp1-21-11-17/SDK/my_test/ta/my_test_ta.c:261
     28e:	e7a3      	b.n	1d8 <TA_InvokeCommandEntryPoint+0xf4>
/home/frank/TrustSQLite/stm32mp1-openstlinux-5.10-dunfell-mp1-21-11-17/SDK/my_test/ta/my_test_ta.c:275
     290:	4601      	mov	r1, r0
/home/frank/TrustSQLite/stm32mp1-openstlinux-5.10-dunfell-mp1-21-11-17/SDK/my_test/ta/my_test_ta.c:281
     292:	ae14      	add	r6, sp, #80	; 0x50
/home/frank/TrustSQLite/stm32mp1-openstlinux-5.10-dunfell-mp1-21-11-17/SDK/my_test/ta/my_test_ta.c:275
     294:	6868      	ldr	r0, [r5, #4]
     296:	f001 f822 	bl	12de <TEE_Malloc>
/home/frank/TrustSQLite/stm32mp1-openstlinux-5.10-dunfell-mp1-21-11-17/SDK/my_test/ta/my_test_ta.c:276
     29a:	e9d5 1200 	ldrd	r1, r2, [r5]
/home/frank/TrustSQLite/stm32mp1-openstlinux-5.10-dunfell-mp1-21-11-17/SDK/my_test/ta/my_test_ta.c:275
     29e:	4681      	mov	r9, r0
/home/frank/TrustSQLite/stm32mp1-openstlinux-5.10-dunfell-mp1-21-11-17/SDK/my_test/ta/my_test_ta.c:276
     2a0:	f000 ffc0 	bl	1224 <TEE_MemMove>
/home/frank/TrustSQLite/stm32mp1-openstlinux-5.10-dunfell-mp1-21-11-17/SDK/my_test/ta/my_test_ta.c:278
     2a4:	6968      	ldr	r0, [r5, #20]
     2a6:	4621      	mov	r1, r4
/home/frank/TrustSQLite/stm32mp1-openstlinux-5.10-dunfell-mp1-21-11-17/SDK/my_test/ta/my_test_ta.c:277
     2a8:	f8d5 8008 	ldr.w	r8, [r5, #8]
/home/frank/TrustSQLite/stm32mp1-openstlinux-5.10-dunfell-mp1-21-11-17/SDK/my_test/ta/my_test_ta.c:278
     2ac:	f001 f817 	bl	12de <TEE_Malloc>
/home/frank/TrustSQLite/stm32mp1-openstlinux-5.10-dunfell-mp1-21-11-17/SDK/my_test/ta/my_test_ta.c:279
     2b0:	696a      	ldr	r2, [r5, #20]
/home/frank/TrustSQLite/stm32mp1-openstlinux-5.10-dunfell-mp1-21-11-17/SDK/my_test/ta/my_test_ta.c:278
     2b2:	4682      	mov	sl, r0
/home/frank/TrustSQLite/stm32mp1-openstlinux-5.10-dunfell-mp1-21-11-17/SDK/my_test/ta/my_test_ta.c:279
     2b4:	6929      	ldr	r1, [r5, #16]
     2b6:	f000 ffb5 	bl	1224 <TEE_MemMove>
/home/frank/TrustSQLite/stm32mp1-openstlinux-5.10-dunfell-mp1-21-11-17/SDK/my_test/ta/my_test_ta.c:281
     2ba:	463a      	mov	r2, r7
     2bc:	4621      	mov	r1, r4
     2be:	4630      	mov	r0, r6
     2c0:	f008 fcd9 	bl	8c76 <memset>
/home/frank/TrustSQLite/stm32mp1-openstlinux-5.10-dunfell-mp1-21-11-17/SDK/my_test/ta/my_test_ta.c:282
     2c4:	eb09 1148 	add.w	r1, r9, r8, lsl #5
     2c8:	463a      	mov	r2, r7
     2ca:	4630      	mov	r0, r6
/home/frank/TrustSQLite/stm32mp1-openstlinux-5.10-dunfell-mp1-21-11-17/SDK/my_test/ta/my_test_ta.c:285
     2cc:	f108 38ff 	add.w	r8, r8, #4294967295	; 0xffffffff
/home/frank/TrustSQLite/stm32mp1-openstlinux-5.10-dunfell-mp1-21-11-17/SDK/my_test/ta/my_test_ta.c:282
     2d0:	f000 f8e6 	bl	4a0 <memcpy>
g_CryptoTaHash_sha():
/home/frank/TrustSQLite/stm32mp1-openstlinux-5.10-dunfell-mp1-21-11-17/SDK/my_test/ta/my_test_ta.c:127
     2d4:	4b5c      	ldr	r3, [pc, #368]	; (448 <TA_InvokeCommandEntryPoint+0x364>)
     2d6:	447b      	add	r3, pc
     2d8:	9306      	str	r3, [sp, #24]
/home/frank/TrustSQLite/stm32mp1-openstlinux-5.10-dunfell-mp1-21-11-17/SDK/my_test/ta/my_test_ta.c:117
     2da:	4b5c      	ldr	r3, [pc, #368]	; (44c <TA_InvokeCommandEntryPoint+0x368>)
     2dc:	447b      	add	r3, pc
     2de:	9307      	str	r3, [sp, #28]
verify_hash():
/home/frank/TrustSQLite/stm32mp1-openstlinux-5.10-dunfell-mp1-21-11-17/SDK/my_test/ta/my_test_ta.c:285
     2e0:	f1b8 0f00 	cmp.w	r8, #0
     2e4:	dc49      	bgt.n	37a <TA_InvokeCommandEntryPoint+0x296>
/home/frank/TrustSQLite/stm32mp1-openstlinux-5.10-dunfell-mp1-21-11-17/SDK/my_test/ta/my_test_ta.c:305
     2e6:	485a      	ldr	r0, [pc, #360]	; (450 <TA_InvokeCommandEntryPoint+0x36c>)
/home/frank/TrustSQLite/stm32mp1-openstlinux-5.10-dunfell-mp1-21-11-17/SDK/my_test/ta/my_test_ta.c:307
     2e8:	f8df 8168 	ldr.w	r8, [pc, #360]	; 454 <TA_InvokeCommandEntryPoint+0x370>
/home/frank/TrustSQLite/stm32mp1-openstlinux-5.10-dunfell-mp1-21-11-17/SDK/my_test/ta/my_test_ta.c:305
     2ec:	4478      	add	r0, pc
/home/frank/TrustSQLite/stm32mp1-openstlinux-5.10-dunfell-mp1-21-11-17/SDK/my_test/ta/my_test_ta.c:307
     2ee:	44f8      	add	r8, pc
/home/frank/TrustSQLite/stm32mp1-openstlinux-5.10-dunfell-mp1-21-11-17/SDK/my_test/ta/my_test_ta.c:305
     2f0:	f000 fdab 	bl	e4a <printf>
/home/frank/TrustSQLite/stm32mp1-openstlinux-5.10-dunfell-mp1-21-11-17/SDK/my_test/ta/my_test_ta.c:306
     2f4:	9b05      	ldr	r3, [sp, #20]
     2f6:	1e5f      	subs	r7, r3, #1
     2f8:	f103 0b1f 	add.w	fp, r3, #31
/home/frank/TrustSQLite/stm32mp1-openstlinux-5.10-dunfell-mp1-21-11-17/SDK/my_test/ta/my_test_ta.c:305
     2fc:	463b      	mov	r3, r7
/home/frank/TrustSQLite/stm32mp1-openstlinux-5.10-dunfell-mp1-21-11-17/SDK/my_test/ta/my_test_ta.c:307
     2fe:	f813 1f01 	ldrb.w	r1, [r3, #1]!
     302:	4640      	mov	r0, r8
     304:	9305      	str	r3, [sp, #20]
     306:	9306      	str	r3, [sp, #24]
     308:	f000 fd9f 	bl	e4a <printf>
/home/frank/TrustSQLite/stm32mp1-openstlinux-5.10-dunfell-mp1-21-11-17/SDK/my_test/ta/my_test_ta.c:306
     30c:	9b05      	ldr	r3, [sp, #20]
     30e:	455b      	cmp	r3, fp
     310:	d1f5      	bne.n	2fe <TA_InvokeCommandEntryPoint+0x21a>
/home/frank/TrustSQLite/stm32mp1-openstlinux-5.10-dunfell-mp1-21-11-17/SDK/my_test/ta/my_test_ta.c:309
     312:	4851      	ldr	r0, [pc, #324]	; (458 <TA_InvokeCommandEntryPoint+0x374>)
     314:	4478      	add	r0, pc
     316:	f000 fd98 	bl	e4a <printf>
     31a:	4632      	mov	r2, r6
/home/frank/TrustSQLite/stm32mp1-openstlinux-5.10-dunfell-mp1-21-11-17/SDK/my_test/ta/my_test_ta.c:310
     31c:	2300      	movs	r3, #0
/home/frank/TrustSQLite/stm32mp1-openstlinux-5.10-dunfell-mp1-21-11-17/SDK/my_test/ta/my_test_ta.c:311
     31e:	f812 1b01 	ldrb.w	r1, [r2], #1
     322:	4640      	mov	r0, r8
     324:	9306      	str	r3, [sp, #24]
     326:	9205      	str	r2, [sp, #20]
     328:	9207      	str	r2, [sp, #28]
     32a:	f000 fd8e 	bl	e4a <printf>
/home/frank/TrustSQLite/stm32mp1-openstlinux-5.10-dunfell-mp1-21-11-17/SDK/my_test/ta/my_test_ta.c:310
     32e:	9b06      	ldr	r3, [sp, #24]
     330:	9a05      	ldr	r2, [sp, #20]
     332:	3301      	adds	r3, #1
     334:	2b20      	cmp	r3, #32
     336:	d1f2      	bne.n	31e <TA_InvokeCommandEntryPoint+0x23a>
compHash():
/home/frank/TrustSQLite/stm32mp1-openstlinux-5.10-dunfell-mp1-21-11-17/SDK/my_test/ta/my_test_ta.c:137
     338:	f816 3b01 	ldrb.w	r3, [r6], #1
     33c:	f817 2f01 	ldrb.w	r2, [r7, #1]!
     340:	429a      	cmp	r2, r3
     342:	f040 80a3 	bne.w	48c <TA_InvokeCommandEntryPoint+0x3a8>
/home/frank/TrustSQLite/stm32mp1-openstlinux-5.10-dunfell-mp1-21-11-17/SDK/my_test/ta/my_test_ta.c:136
     346:	45bb      	cmp	fp, r7
     348:	d1f6      	bne.n	338 <TA_InvokeCommandEntryPoint+0x254>
/home/frank/TrustSQLite/stm32mp1-openstlinux-5.10-dunfell-mp1-21-11-17/SDK/my_test/ta/my_test_ta.c:141
     34a:	2300      	movs	r3, #0
verify_hash():
/home/frank/TrustSQLite/stm32mp1-openstlinux-5.10-dunfell-mp1-21-11-17/SDK/my_test/ta/my_test_ta.c:313
     34c:	60ab      	str	r3, [r5, #8]
/home/frank/TrustSQLite/stm32mp1-openstlinux-5.10-dunfell-mp1-21-11-17/SDK/my_test/ta/my_test_ta.c:315
     34e:	2203      	movs	r2, #3
     350:	4b42      	ldr	r3, [pc, #264]	; (45c <TA_InvokeCommandEntryPoint+0x378>)
     352:	f240 113b 	movw	r1, #315	; 0x13b
     356:	4842      	ldr	r0, [pc, #264]	; (460 <TA_InvokeCommandEntryPoint+0x37c>)
     358:	447b      	add	r3, pc
     35a:	4478      	add	r0, pc
     35c:	9300      	str	r3, [sp, #0]
     35e:	3077      	adds	r0, #119	; 0x77
     360:	2301      	movs	r3, #1
     362:	f000 f9af 	bl	6c4 <trace_printf>
/home/frank/TrustSQLite/stm32mp1-openstlinux-5.10-dunfell-mp1-21-11-17/SDK/my_test/ta/my_test_ta.c:316
     366:	4648      	mov	r0, r9
     368:	f000 ffe0 	bl	132c <TEE_Free>
/home/frank/TrustSQLite/stm32mp1-openstlinux-5.10-dunfell-mp1-21-11-17/SDK/my_test/ta/my_test_ta.c:317
     36c:	4650      	mov	r0, sl
     36e:	f000 ffdd 	bl	132c <TEE_Free>
/home/frank/TrustSQLite/stm32mp1-openstlinux-5.10-dunfell-mp1-21-11-17/SDK/my_test/ta/my_test_ta.c:318
     372:	980a      	ldr	r0, [sp, #40]	; 0x28
     374:	f001 f8da 	bl	152c <TEE_CloseObject>
/home/frank/TrustSQLite/stm32mp1-openstlinux-5.10-dunfell-mp1-21-11-17/SDK/my_test/ta/my_test_ta.c:319
     378:	e72e      	b.n	1d8 <TA_InvokeCommandEntryPoint+0xf4>
/home/frank/TrustSQLite/stm32mp1-openstlinux-5.10-dunfell-mp1-21-11-17/SDK/my_test/ta/my_test_ta.c:287
     37a:	f10d 0b70 	add.w	fp, sp, #112	; 0x70
     37e:	2240      	movs	r2, #64	; 0x40
     380:	2100      	movs	r1, #0
     382:	4658      	mov	r0, fp
     384:	f008 fc77 	bl	8c76 <memset>
/home/frank/TrustSQLite/stm32mp1-openstlinux-5.10-dunfell-mp1-21-11-17/SDK/my_test/ta/my_test_ta.c:289
     388:	f85a 3028 	ldr.w	r3, [sl, r8, lsl #2]
     38c:	eb09 1e48 	add.w	lr, r9, r8, lsl #5
     390:	2b01      	cmp	r3, #1
     392:	d121      	bne.n	3d8 <TA_InvokeCommandEntryPoint+0x2f4>
/home/frank/TrustSQLite/stm32mp1-openstlinux-5.10-dunfell-mp1-21-11-17/SDK/my_test/ta/my_test_ta.c:291
     394:	2220      	movs	r2, #32
     396:	4671      	mov	r1, lr
     398:	4658      	mov	r0, fp
/home/frank/TrustSQLite/stm32mp1-openstlinux-5.10-dunfell-mp1-21-11-17/SDK/my_test/ta/my_test_ta.c:292
     39a:	af24      	add	r7, sp, #144	; 0x90
/home/frank/TrustSQLite/stm32mp1-openstlinux-5.10-dunfell-mp1-21-11-17/SDK/my_test/ta/my_test_ta.c:291
     39c:	f000 f880 	bl	4a0 <memcpy>
/home/frank/TrustSQLite/stm32mp1-openstlinux-5.10-dunfell-mp1-21-11-17/SDK/my_test/ta/my_test_ta.c:292
     3a0:	46b4      	mov	ip, r6
     3a2:	e8bc 000f 	ldmia.w	ip!, {r0, r1, r2, r3}
     3a6:	c70f      	stmia	r7!, {r0, r1, r2, r3}
     3a8:	e89c 000f 	ldmia.w	ip, {r0, r1, r2, r3}
     3ac:	e887 000f 	stmia.w	r7, {r0, r1, r2, r3}
/home/frank/TrustSQLite/stm32mp1-openstlinux-5.10-dunfell-mp1-21-11-17/SDK/my_test/ta/my_test_ta.c:300
     3b0:	2220      	movs	r2, #32
     3b2:	2100      	movs	r1, #0
     3b4:	4630      	mov	r0, r6
     3b6:	f008 fc5e 	bl	8c76 <memset>
g_CryptoTaHash_sha():
/home/frank/TrustSQLite/stm32mp1-openstlinux-5.10-dunfell-mp1-21-11-17/SDK/my_test/ta/my_test_ta.c:114
     3ba:	4910      	ldr	r1, [pc, #64]	; (3fc <TA_InvokeCommandEntryPoint+0x318>)
     3bc:	2300      	movs	r3, #0
     3be:	2205      	movs	r2, #5
     3c0:	a80c      	add	r0, sp, #48	; 0x30
     3c2:	f001 fc6a 	bl	1c9a <TEE_AllocateOperation>
/home/frank/TrustSQLite/stm32mp1-openstlinux-5.10-dunfell-mp1-21-11-17/SDK/my_test/ta/my_test_ta.c:115
     3c6:	4607      	mov	r7, r0
     3c8:	2800      	cmp	r0, #0
     3ca:	d04b      	beq.n	464 <TA_InvokeCommandEntryPoint+0x380>
/home/frank/TrustSQLite/stm32mp1-openstlinux-5.10-dunfell-mp1-21-11-17/SDK/my_test/ta/my_test_ta.c:117
     3cc:	9807      	ldr	r0, [sp, #28]
/home/frank/TrustSQLite/stm32mp1-openstlinux-5.10-dunfell-mp1-21-11-17/SDK/my_test/ta/my_test_ta.c:127
     3ce:	f000 fd59 	bl	e84 <puts>
verify_hash():
/home/frank/TrustSQLite/stm32mp1-openstlinux-5.10-dunfell-mp1-21-11-17/SDK/my_test/ta/my_test_ta.c:285
     3d2:	f108 38ff 	add.w	r8, r8, #4294967295	; 0xffffffff
     3d6:	e783      	b.n	2e0 <TA_InvokeCommandEntryPoint+0x1fc>
/home/frank/TrustSQLite/stm32mp1-openstlinux-5.10-dunfell-mp1-21-11-17/SDK/my_test/ta/my_test_ta.c:296
     3d8:	46b4      	mov	ip, r6
     3da:	465f      	mov	r7, fp
     3dc:	e8bc 000f 	ldmia.w	ip!, {r0, r1, r2, r3}
     3e0:	c70f      	stmia	r7!, {r0, r1, r2, r3}
     3e2:	e89c 000f 	ldmia.w	ip, {r0, r1, r2, r3}
     3e6:	e887 000f 	stmia.w	r7, {r0, r1, r2, r3}
/home/frank/TrustSQLite/stm32mp1-openstlinux-5.10-dunfell-mp1-21-11-17/SDK/my_test/ta/my_test_ta.c:297
     3ea:	2220      	movs	r2, #32
     3ec:	4671      	mov	r1, lr
     3ee:	a824      	add	r0, sp, #144	; 0x90
     3f0:	f000 f856 	bl	4a0 <memcpy>
     3f4:	e7dc      	b.n	3b0 <TA_InvokeCommandEntryPoint+0x2cc>
     3f6:	bf00      	nop
     3f8:	ffff0006 	.word	0xffff0006
     3fc:	50000004 	.word	0x50000004
     400:	00009134 	.word	0x00009134
     404:	000092c5 	.word	0x000092c5
     408:	000094a2 	.word	0x000094a2
     40c:	00009117 	.word	0x00009117
     410:	000090f1 	.word	0x000090f1
     414:	000090ea 	.word	0x000090ea
     418:	00009253 	.word	0x00009253
     41c:	00009227 	.word	0x00009227
     420:	00009239 	.word	0x00009239
     424:	000090d7 	.word	0x000090d7
     428:	00009213 	.word	0x00009213
     42c:	000091e3 	.word	0x000091e3
     430:	000090bf 	.word	0x000090bf
     434:	0000903d 	.word	0x0000903d
     438:	0000909b 	.word	0x0000909b
     43c:	000090a6 	.word	0x000090a6
     440:	000090a5 	.word	0x000090a5
     444:	00009147 	.word	0x00009147
     448:	0000908a 	.word	0x0000908a
     44c:	00009061 	.word	0x00009061
     450:	00009094 	.word	0x00009094
     454:	000092d2 	.word	0x000092d2
     458:	00009073 	.word	0x00009073
     45c:	0000903d 	.word	0x0000903d
     460:	00009071 	.word	0x00009071
g_CryptoTaHash_sha():
/home/frank/TrustSQLite/stm32mp1-openstlinux-5.10-dunfell-mp1-21-11-17/SDK/my_test/ta/my_test_ta.c:121
     464:	980c      	ldr	r0, [sp, #48]	; 0x30
     466:	2240      	movs	r2, #64	; 0x40
     468:	4659      	mov	r1, fp
     46a:	f002 f989 	bl	2780 <TEE_DigestUpdate>
/home/frank/TrustSQLite/stm32mp1-openstlinux-5.10-dunfell-mp1-21-11-17/SDK/my_test/ta/my_test_ta.c:124
     46e:	980c      	ldr	r0, [sp, #48]	; 0x30
     470:	ab09      	add	r3, sp, #36	; 0x24
     472:	9300      	str	r3, [sp, #0]
     474:	463a      	mov	r2, r7
     476:	4633      	mov	r3, r6
     478:	4639      	mov	r1, r7
     47a:	f002 f999 	bl	27b0 <TEE_DigestDoFinal>
/home/frank/TrustSQLite/stm32mp1-openstlinux-5.10-dunfell-mp1-21-11-17/SDK/my_test/ta/my_test_ta.c:125
     47e:	b108      	cbz	r0, 484 <TA_InvokeCommandEntryPoint+0x3a0>
/home/frank/TrustSQLite/stm32mp1-openstlinux-5.10-dunfell-mp1-21-11-17/SDK/my_test/ta/my_test_ta.c:127
     480:	9806      	ldr	r0, [sp, #24]
     482:	e7a4      	b.n	3ce <TA_InvokeCommandEntryPoint+0x2ea>
/home/frank/TrustSQLite/stm32mp1-openstlinux-5.10-dunfell-mp1-21-11-17/SDK/my_test/ta/my_test_ta.c:131
     484:	980c      	ldr	r0, [sp, #48]	; 0x30
     486:	f001 fbf5 	bl	1c74 <TEE_FreeOperation>
     48a:	e7a2      	b.n	3d2 <TA_InvokeCommandEntryPoint+0x2ee>
compHash():
/home/frank/TrustSQLite/stm32mp1-openstlinux-5.10-dunfell-mp1-21-11-17/SDK/my_test/ta/my_test_ta.c:138
     48c:	f04f 33ff 	mov.w	r3, #4294967295	; 0xffffffff
     490:	e75c      	b.n	34c <TA_InvokeCommandEntryPoint+0x268>
verify_hash():
/home/frank/TrustSQLite/stm32mp1-openstlinux-5.10-dunfell-mp1-21-11-17/SDK/my_test/ta/my_test_ta.c:254
     492:	4c01      	ldr	r4, [pc, #4]	; (498 <TA_InvokeCommandEntryPoint+0x3b4>)
TA_InvokeCommandEntryPoint():
/home/frank/TrustSQLite/stm32mp1-openstlinux-5.10-dunfell-mp1-21-11-17/SDK/my_test/ta/my_test_ta.c:336
     494:	e6a0      	b.n	1d8 <TA_InvokeCommandEntryPoint+0xf4>
     496:	bf00      	nop
     498:	ffff0010 	.word	0xffff0010

0000049c <__ta_entry>:
__ta_entry():
/home/frank/TrustSQLite/stm32mp1-openstlinux-5.10-dunfell-mp1-21-11-17/SDK/sysroots/cortexa7t2hf-neon-vfpv4-ostl-linux-gnueabi/usr/include/optee/export-user_ta/src/ta_entry_a32.S:20
     49c:	fa0021f1 	blx	8c68 <__ta_entry_c>

000004a0 <memcpy>:
memcpy():
/home/frank/TrustSQLite/stm32mp1-openstlinux-5.10-dunfell-mp1-21-11-17/sources/arm-ostl-linux-gnueabi/optee-os-stm32mp-3.12.0-stm32mp-r2-r0/optee-os-stm32mp-3.12.0-stm32mp-r2/lib/libutils/isoc/newlib/memcpy.c:106
     4a0:	2a0f      	cmp	r2, #15
/home/frank/TrustSQLite/stm32mp1-openstlinux-5.10-dunfell-mp1-21-11-17/sources/arm-ostl-linux-gnueabi/optee-os-stm32mp-3.12.0-stm32mp-r2-r0/optee-os-stm32mp-3.12.0-stm32mp-r2/lib/libutils/isoc/newlib/memcpy.c:87
     4a2:	b4f0      	push	{r4, r5, r6, r7}
/home/frank/TrustSQLite/stm32mp1-openstlinux-5.10-dunfell-mp1-21-11-17/sources/arm-ostl-linux-gnueabi/optee-os-stm32mp-3.12.0-stm32mp-r2-r0/optee-os-stm32mp-3.12.0-stm32mp-r2/lib/libutils/isoc/newlib/memcpy.c:106
     4a4:	d945      	bls.n	532 <memcpy+0x92>
/home/frank/TrustSQLite/stm32mp1-openstlinux-5.10-dunfell-mp1-21-11-17/sources/arm-ostl-linux-gnueabi/optee-os-stm32mp-3.12.0-stm32mp-r2-r0/optee-os-stm32mp-3.12.0-stm32mp-r2/lib/libutils/isoc/newlib/memcpy.c:106 (discriminator 1)
     4a6:	ea40 0301 	orr.w	r3, r0, r1
     4aa:	079b      	lsls	r3, r3, #30
     4ac:	d150      	bne.n	550 <memcpy+0xb0>
     4ae:	f1a2 0410 	sub.w	r4, r2, #16
     4b2:	f101 0620 	add.w	r6, r1, #32
     4b6:	f024 050f 	bic.w	r5, r4, #15
     4ba:	f101 0310 	add.w	r3, r1, #16
     4be:	0927      	lsrs	r7, r4, #4
     4c0:	f100 0410 	add.w	r4, r0, #16
     4c4:	442e      	add	r6, r5
/home/frank/TrustSQLite/stm32mp1-openstlinux-5.10-dunfell-mp1-21-11-17/sources/arm-ostl-linux-gnueabi/optee-os-stm32mp-3.12.0-stm32mp-r2-r0/optee-os-stm32mp-3.12.0-stm32mp-r2/lib/libutils/isoc/newlib/memcpy.c:112
     4c6:	f853 5c10 	ldr.w	r5, [r3, #-16]
     4ca:	3310      	adds	r3, #16
     4cc:	3410      	adds	r4, #16
     4ce:	f844 5c20 	str.w	r5, [r4, #-32]
/home/frank/TrustSQLite/stm32mp1-openstlinux-5.10-dunfell-mp1-21-11-17/sources/arm-ostl-linux-gnueabi/optee-os-stm32mp-3.12.0-stm32mp-r2-r0/optee-os-stm32mp-3.12.0-stm32mp-r2/lib/libutils/isoc/newlib/memcpy.c:113
     4d2:	f853 5c1c 	ldr.w	r5, [r3, #-28]
     4d6:	f844 5c1c 	str.w	r5, [r4, #-28]
/home/frank/TrustSQLite/stm32mp1-openstlinux-5.10-dunfell-mp1-21-11-17/sources/arm-ostl-linux-gnueabi/optee-os-stm32mp-3.12.0-stm32mp-r2-r0/optee-os-stm32mp-3.12.0-stm32mp-r2/lib/libutils/isoc/newlib/memcpy.c:114
     4da:	f853 5c18 	ldr.w	r5, [r3, #-24]
     4de:	f844 5c18 	str.w	r5, [r4, #-24]
/home/frank/TrustSQLite/stm32mp1-openstlinux-5.10-dunfell-mp1-21-11-17/sources/arm-ostl-linux-gnueabi/optee-os-stm32mp-3.12.0-stm32mp-r2-r0/optee-os-stm32mp-3.12.0-stm32mp-r2/lib/libutils/isoc/newlib/memcpy.c:115
     4e2:	f853 5c14 	ldr.w	r5, [r3, #-20]
/home/frank/TrustSQLite/stm32mp1-openstlinux-5.10-dunfell-mp1-21-11-17/sources/arm-ostl-linux-gnueabi/optee-os-stm32mp-3.12.0-stm32mp-r2-r0/optee-os-stm32mp-3.12.0-stm32mp-r2/lib/libutils/isoc/newlib/memcpy.c:111
     4e6:	42b3      	cmp	r3, r6
/home/frank/TrustSQLite/stm32mp1-openstlinux-5.10-dunfell-mp1-21-11-17/sources/arm-ostl-linux-gnueabi/optee-os-stm32mp-3.12.0-stm32mp-r2-r0/optee-os-stm32mp-3.12.0-stm32mp-r2/lib/libutils/isoc/newlib/memcpy.c:115
     4e8:	f844 5c14 	str.w	r5, [r4, #-20]
/home/frank/TrustSQLite/stm32mp1-openstlinux-5.10-dunfell-mp1-21-11-17/sources/arm-ostl-linux-gnueabi/optee-os-stm32mp-3.12.0-stm32mp-r2-r0/optee-os-stm32mp-3.12.0-stm32mp-r2/lib/libutils/isoc/newlib/memcpy.c:111
     4ec:	d1eb      	bne.n	4c6 <memcpy+0x26>
     4ee:	1c7b      	adds	r3, r7, #1
/home/frank/TrustSQLite/stm32mp1-openstlinux-5.10-dunfell-mp1-21-11-17/sources/arm-ostl-linux-gnueabi/optee-os-stm32mp-3.12.0-stm32mp-r2-r0/optee-os-stm32mp-3.12.0-stm32mp-r2/lib/libutils/isoc/newlib/memcpy.c:120
     4f0:	f012 0f0c 	tst.w	r2, #12
     4f4:	f002 050f 	and.w	r5, r2, #15
     4f8:	ea4f 1303 	mov.w	r3, r3, lsl #4
     4fc:	bf08      	it	eq
     4fe:	462a      	moveq	r2, r5
     500:	4419      	add	r1, r3
     502:	4403      	add	r3, r0
     504:	d016      	beq.n	534 <memcpy+0x94>
     506:	1f1f      	subs	r7, r3, #4
/home/frank/TrustSQLite/stm32mp1-openstlinux-5.10-dunfell-mp1-21-11-17/sources/arm-ostl-linux-gnueabi/optee-os-stm32mp-3.12.0-stm32mp-r2-r0/optee-os-stm32mp-3.12.0-stm32mp-r2/lib/libutils/isoc/newlib/memcpy.c:115
     508:	460e      	mov	r6, r1
/home/frank/TrustSQLite/stm32mp1-openstlinux-5.10-dunfell-mp1-21-11-17/sources/arm-ostl-linux-gnueabi/optee-os-stm32mp-3.12.0-stm32mp-r2-r0/optee-os-stm32mp-3.12.0-stm32mp-r2/lib/libutils/isoc/newlib/memcpy.c:121
     50a:	f856 cb04 	ldr.w	ip, [r6], #4
     50e:	1bac      	subs	r4, r5, r6
/home/frank/TrustSQLite/stm32mp1-openstlinux-5.10-dunfell-mp1-21-11-17/sources/arm-ostl-linux-gnueabi/optee-os-stm32mp-3.12.0-stm32mp-r2-r0/optee-os-stm32mp-3.12.0-stm32mp-r2/lib/libutils/isoc/newlib/memcpy.c:120
     510:	440c      	add	r4, r1
/home/frank/TrustSQLite/stm32mp1-openstlinux-5.10-dunfell-mp1-21-11-17/sources/arm-ostl-linux-gnueabi/optee-os-stm32mp-3.12.0-stm32mp-r2-r0/optee-os-stm32mp-3.12.0-stm32mp-r2/lib/libutils/isoc/newlib/memcpy.c:121
     512:	f847 cf04 	str.w	ip, [r7, #4]!
/home/frank/TrustSQLite/stm32mp1-openstlinux-5.10-dunfell-mp1-21-11-17/sources/arm-ostl-linux-gnueabi/optee-os-stm32mp-3.12.0-stm32mp-r2-r0/optee-os-stm32mp-3.12.0-stm32mp-r2/lib/libutils/isoc/newlib/memcpy.c:120
     516:	2c03      	cmp	r4, #3
     518:	d8f7      	bhi.n	50a <memcpy+0x6a>
     51a:	1f2c      	subs	r4, r5, #4
     51c:	f002 0203 	and.w	r2, r2, #3
     520:	f024 0403 	bic.w	r4, r4, #3
     524:	3404      	adds	r4, #4
     526:	4423      	add	r3, r4
     528:	4421      	add	r1, r4
/home/frank/TrustSQLite/stm32mp1-openstlinux-5.10-dunfell-mp1-21-11-17/sources/arm-ostl-linux-gnueabi/optee-os-stm32mp-3.12.0-stm32mp-r2-r0/optee-os-stm32mp-3.12.0-stm32mp-r2/lib/libutils/isoc/newlib/memcpy.c:130
     52a:	1e54      	subs	r4, r2, #1
     52c:	b92a      	cbnz	r2, 53a <memcpy+0x9a>
/home/frank/TrustSQLite/stm32mp1-openstlinux-5.10-dunfell-mp1-21-11-17/sources/arm-ostl-linux-gnueabi/optee-os-stm32mp-3.12.0-stm32mp-r2-r0/optee-os-stm32mp-3.12.0-stm32mp-r2/lib/libutils/isoc/newlib/memcpy.c:135
     52e:	bcf0      	pop	{r4, r5, r6, r7}
     530:	4770      	bx	lr
/home/frank/TrustSQLite/stm32mp1-openstlinux-5.10-dunfell-mp1-21-11-17/sources/arm-ostl-linux-gnueabi/optee-os-stm32mp-3.12.0-stm32mp-r2-r0/optee-os-stm32mp-3.12.0-stm32mp-r2/lib/libutils/isoc/newlib/memcpy.c:99
     532:	4603      	mov	r3, r0
/home/frank/TrustSQLite/stm32mp1-openstlinux-5.10-dunfell-mp1-21-11-17/sources/arm-ostl-linux-gnueabi/optee-os-stm32mp-3.12.0-stm32mp-r2-r0/optee-os-stm32mp-3.12.0-stm32mp-r2/lib/libutils/isoc/newlib/memcpy.c:130
     534:	1e54      	subs	r4, r2, #1
     536:	2a00      	cmp	r2, #0
     538:	d0f9      	beq.n	52e <memcpy+0x8e>
     53a:	3401      	adds	r4, #1
     53c:	3b01      	subs	r3, #1
     53e:	440c      	add	r4, r1
/home/frank/TrustSQLite/stm32mp1-openstlinux-5.10-dunfell-mp1-21-11-17/sources/arm-ostl-linux-gnueabi/optee-os-stm32mp-3.12.0-stm32mp-r2-r0/optee-os-stm32mp-3.12.0-stm32mp-r2/lib/libutils/isoc/newlib/memcpy.c:131
     540:	f811 2b01 	ldrb.w	r2, [r1], #1
/home/frank/TrustSQLite/stm32mp1-openstlinux-5.10-dunfell-mp1-21-11-17/sources/arm-ostl-linux-gnueabi/optee-os-stm32mp-3.12.0-stm32mp-r2-r0/optee-os-stm32mp-3.12.0-stm32mp-r2/lib/libutils/isoc/newlib/memcpy.c:130
     544:	42a1      	cmp	r1, r4
/home/frank/TrustSQLite/stm32mp1-openstlinux-5.10-dunfell-mp1-21-11-17/sources/arm-ostl-linux-gnueabi/optee-os-stm32mp-3.12.0-stm32mp-r2-r0/optee-os-stm32mp-3.12.0-stm32mp-r2/lib/libutils/isoc/newlib/memcpy.c:131
     546:	f803 2f01 	strb.w	r2, [r3, #1]!
/home/frank/TrustSQLite/stm32mp1-openstlinux-5.10-dunfell-mp1-21-11-17/sources/arm-ostl-linux-gnueabi/optee-os-stm32mp-3.12.0-stm32mp-r2-r0/optee-os-stm32mp-3.12.0-stm32mp-r2/lib/libutils/isoc/newlib/memcpy.c:130
     54a:	d1f9      	bne.n	540 <memcpy+0xa0>
/home/frank/TrustSQLite/stm32mp1-openstlinux-5.10-dunfell-mp1-21-11-17/sources/arm-ostl-linux-gnueabi/optee-os-stm32mp-3.12.0-stm32mp-r2-r0/optee-os-stm32mp-3.12.0-stm32mp-r2/lib/libutils/isoc/newlib/memcpy.c:135
     54c:	bcf0      	pop	{r4, r5, r6, r7}
     54e:	4770      	bx	lr
/home/frank/TrustSQLite/stm32mp1-openstlinux-5.10-dunfell-mp1-21-11-17/sources/arm-ostl-linux-gnueabi/optee-os-stm32mp-3.12.0-stm32mp-r2-r0/optee-os-stm32mp-3.12.0-stm32mp-r2/lib/libutils/isoc/newlib/memcpy.c:130
     550:	1e54      	subs	r4, r2, #1
/home/frank/TrustSQLite/stm32mp1-openstlinux-5.10-dunfell-mp1-21-11-17/sources/arm-ostl-linux-gnueabi/optee-os-stm32mp-3.12.0-stm32mp-r2-r0/optee-os-stm32mp-3.12.0-stm32mp-r2/lib/libutils/isoc/newlib/memcpy.c:99
     552:	4603      	mov	r3, r0
     554:	e7f1      	b.n	53a <memcpy+0x9a>
     556:	bf00      	nop

00000558 <trace_set_level>:
trace_set_level():
/home/frank/TrustSQLite/stm32mp1-openstlinux-5.10-dunfell-mp1-21-11-17/sources/arm-ostl-linux-gnueabi/optee-os-stm32mp-3.12.0-stm32mp-r2-r0/optee-os-stm32mp-3.12.0-stm32mp-r2/lib/libutils/ext/trace.c:25
     558:	4b04      	ldr	r3, [pc, #16]	; (56c <trace_set_level+0x14>)
/home/frank/TrustSQLite/stm32mp1-openstlinux-5.10-dunfell-mp1-21-11-17/sources/arm-ostl-linux-gnueabi/optee-os-stm32mp-3.12.0-stm32mp-r2-r0/optee-os-stm32mp-3.12.0-stm32mp-r2/lib/libutils/ext/trace.c:29
     55a:	2804      	cmp	r0, #4
     55c:	4a04      	ldr	r2, [pc, #16]	; (570 <trace_set_level+0x18>)
     55e:	bf28      	it	cs
     560:	2004      	movcs	r0, #4
/home/frank/TrustSQLite/stm32mp1-openstlinux-5.10-dunfell-mp1-21-11-17/sources/arm-ostl-linux-gnueabi/optee-os-stm32mp-3.12.0-stm32mp-r2-r0/optee-os-stm32mp-3.12.0-stm32mp-r2/lib/libutils/ext/trace.c:25
     562:	447b      	add	r3, pc
     564:	589b      	ldr	r3, [r3, r2]
     566:	6018      	str	r0, [r3, #0]
/home/frank/TrustSQLite/stm32mp1-openstlinux-5.10-dunfell-mp1-21-11-17/sources/arm-ostl-linux-gnueabi/optee-os-stm32mp-3.12.0-stm32mp-r2-r0/optee-os-stm32mp-3.12.0-stm32mp-r2/lib/libutils/ext/trace.c:30
     568:	4770      	bx	lr
     56a:	bf00      	nop
     56c:	0000ab22 	.word	0x0000ab22
     570:	00000010 	.word	0x00000010

00000574 <trace_get_level>:
trace_get_level():
/home/frank/TrustSQLite/stm32mp1-openstlinux-5.10-dunfell-mp1-21-11-17/sources/arm-ostl-linux-gnueabi/optee-os-stm32mp-3.12.0-stm32mp-r2-r0/optee-os-stm32mp-3.12.0-stm32mp-r2/lib/libutils/ext/trace.c:33
     574:	4b02      	ldr	r3, [pc, #8]	; (580 <trace_get_level+0xc>)
/home/frank/TrustSQLite/stm32mp1-openstlinux-5.10-dunfell-mp1-21-11-17/sources/arm-ostl-linux-gnueabi/optee-os-stm32mp-3.12.0-stm32mp-r2-r0/optee-os-stm32mp-3.12.0-stm32mp-r2/lib/libutils/ext/trace.c:34
     576:	4a03      	ldr	r2, [pc, #12]	; (584 <trace_get_level+0x10>)
/home/frank/TrustSQLite/stm32mp1-openstlinux-5.10-dunfell-mp1-21-11-17/sources/arm-ostl-linux-gnueabi/optee-os-stm32mp-3.12.0-stm32mp-r2-r0/optee-os-stm32mp-3.12.0-stm32mp-r2/lib/libutils/ext/trace.c:33
     578:	447b      	add	r3, pc
/home/frank/TrustSQLite/stm32mp1-openstlinux-5.10-dunfell-mp1-21-11-17/sources/arm-ostl-linux-gnueabi/optee-os-stm32mp-3.12.0-stm32mp-r2-r0/optee-os-stm32mp-3.12.0-stm32mp-r2/lib/libutils/ext/trace.c:34
     57a:	589b      	ldr	r3, [r3, r2]
/home/frank/TrustSQLite/stm32mp1-openstlinux-5.10-dunfell-mp1-21-11-17/sources/arm-ostl-linux-gnueabi/optee-os-stm32mp-3.12.0-stm32mp-r2-r0/optee-os-stm32mp-3.12.0-stm32mp-r2/lib/libutils/ext/trace.c:35
     57c:	6818      	ldr	r0, [r3, #0]
     57e:	4770      	bx	lr
     580:	0000ab0c 	.word	0x0000ab0c
     584:	00000010 	.word	0x00000010

00000588 <trace_vprintf>:
trace_vprintf():
/home/frank/TrustSQLite/stm32mp1-openstlinux-5.10-dunfell-mp1-21-11-17/sources/arm-ostl-linux-gnueabi/optee-os-stm32mp-3.12.0-stm32mp-r2-r0/optee-os-stm32mp-3.12.0-stm32mp-r2/lib/libutils/ext/trace.c:106
     588:	e92d 4ff0 	stmdb	sp!, {r4, r5, r6, r7, r8, r9, sl, fp, lr}
     58c:	4607      	mov	r7, r0
     58e:	f8df b10c 	ldr.w	fp, [pc, #268]	; 69c <trace_vprintf+0x114>
     592:	b0c5      	sub	sp, #276	; 0x114
     594:	4688      	mov	r8, r1
     596:	4614      	mov	r4, r2
     598:	44fb      	add	fp, pc
/home/frank/TrustSQLite/stm32mp1-openstlinux-5.10-dunfell-mp1-21-11-17/sources/arm-ostl-linux-gnueabi/optee-os-stm32mp-3.12.0-stm32mp-r2-r0/optee-os-stm32mp-3.12.0-stm32mp-r2/lib/libutils/ext/trace.c:111
     59a:	469a      	mov	sl, r3
     59c:	2b00      	cmp	r3, #0
     59e:	d069      	beq.n	674 <trace_vprintf+0xec>
/home/frank/TrustSQLite/stm32mp1-openstlinux-5.10-dunfell-mp1-21-11-17/sources/arm-ostl-linux-gnueabi/optee-os-stm32mp-3.12.0-stm32mp-r2-r0/optee-os-stm32mp-3.12.0-stm32mp-r2/lib/libutils/ext/trace.c:111 (discriminator 1)
     5a0:	4b3f      	ldr	r3, [pc, #252]	; (6a0 <trace_vprintf+0x118>)
     5a2:	f85b 3003 	ldr.w	r3, [fp, r3]
     5a6:	681b      	ldr	r3, [r3, #0]
     5a8:	4293      	cmp	r3, r2
     5aa:	db60      	blt.n	66e <trace_vprintf+0xe6>
trace_level_to_string():
/home/frank/TrustSQLite/stm32mp1-openstlinux-5.10-dunfell-mp1-21-11-17/sources/arm-ostl-linux-gnueabi/optee-os-stm32mp-3.12.0-stm32mp-r2-r0/optee-os-stm32mp-3.12.0-stm32mp-r2/lib/libutils/ext/trace.c:52
     5ac:	2a04      	cmp	r2, #4
     5ae:	bf94      	ite	ls
     5b0:	4613      	movls	r3, r2
     5b2:	2300      	movhi	r3, #0
/home/frank/TrustSQLite/stm32mp1-openstlinux-5.10-dunfell-mp1-21-11-17/sources/arm-ostl-linux-gnueabi/optee-os-stm32mp-3.12.0-stm32mp-r2-r0/optee-os-stm32mp-3.12.0-stm32mp-r2/lib/libutils/ext/trace.c:55
     5b4:	4a3b      	ldr	r2, [pc, #236]	; (6a4 <trace_vprintf+0x11c>)
     5b6:	447a      	add	r2, pc
     5b8:	5cd3      	ldrb	r3, [r2, r3]
trace_vprintf():
/home/frank/TrustSQLite/stm32mp1-openstlinux-5.10-dunfell-mp1-21-11-17/sources/arm-ostl-linux-gnueabi/optee-os-stm32mp-3.12.0-stm32mp-r2-r0/optee-os-stm32mp-3.12.0-stm32mp-r2/lib/libutils/ext/trace.c:115
     5ba:	4a3b      	ldr	r2, [pc, #236]	; (6a8 <trace_vprintf+0x120>)
     5bc:	ad04      	add	r5, sp, #16
     5be:	f44f 7180 	mov.w	r1, #256	; 0x100
     5c2:	4628      	mov	r0, r5
     5c4:	447a      	add	r2, pc
     5c6:	f000 f8aa 	bl	71e <snprintk>
/home/frank/TrustSQLite/stm32mp1-openstlinux-5.10-dunfell-mp1-21-11-17/sources/arm-ostl-linux-gnueabi/optee-os-stm32mp-3.12.0-stm32mp-r2-r0/optee-os-stm32mp-3.12.0-stm32mp-r2/lib/libutils/ext/trace.c:117
     5ca:	1e06      	subs	r6, r0, #0
     5cc:	db4f      	blt.n	66e <trace_vprintf+0xe6>
/home/frank/TrustSQLite/stm32mp1-openstlinux-5.10-dunfell-mp1-21-11-17/sources/arm-ostl-linux-gnueabi/optee-os-stm32mp-3.12.0-stm32mp-r2-r0/optee-os-stm32mp-3.12.0-stm32mp-r2/lib/libutils/ext/trace.c:122
     5ce:	4b37      	ldr	r3, [pc, #220]	; (6ac <trace_vprintf+0x124>)
     5d0:	f5c6 7180 	rsb	r1, r6, #256	; 0x100
     5d4:	4a36      	ldr	r2, [pc, #216]	; (6b0 <trace_vprintf+0x128>)
     5d6:	f85b 3003 	ldr.w	r3, [fp, r3]
     5da:	447a      	add	r2, pc
     5dc:	19a8      	adds	r0, r5, r6
     5de:	9303      	str	r3, [sp, #12]
     5e0:	f000 f89d 	bl	71e <snprintk>
/home/frank/TrustSQLite/stm32mp1-openstlinux-5.10-dunfell-mp1-21-11-17/sources/arm-ostl-linux-gnueabi/optee-os-stm32mp-3.12.0-stm32mp-r2-r0/optee-os-stm32mp-3.12.0-stm32mp-r2/lib/libutils/ext/trace.c:124
     5e4:	2800      	cmp	r0, #0
     5e6:	db42      	blt.n	66e <trace_vprintf+0xe6>
/home/frank/TrustSQLite/stm32mp1-openstlinux-5.10-dunfell-mp1-21-11-17/sources/arm-ostl-linux-gnueabi/optee-os-stm32mp-3.12.0-stm32mp-r2-r0/optee-os-stm32mp-3.12.0-stm32mp-r2/lib/libutils/ext/trace.c:126
     5e8:	4406      	add	r6, r0
/home/frank/TrustSQLite/stm32mp1-openstlinux-5.10-dunfell-mp1-21-11-17/sources/arm-ostl-linux-gnueabi/optee-os-stm32mp-3.12.0-stm32mp-r2-r0/optee-os-stm32mp-3.12.0-stm32mp-r2/lib/libutils/ext/trace.c:128
     5ea:	f1ba 0f00 	cmp.w	sl, #0
     5ee:	d04a      	beq.n	686 <trace_vprintf+0xfe>
/home/frank/TrustSQLite/stm32mp1-openstlinux-5.10-dunfell-mp1-21-11-17/sources/arm-ostl-linux-gnueabi/optee-os-stm32mp-3.12.0-stm32mp-r2-r0/optee-os-stm32mp-3.12.0-stm32mp-r2/lib/libutils/ext/trace.c:128 (discriminator 1)
     5f0:	221a      	movs	r2, #26
     5f2:	fa22 f404 	lsr.w	r4, r2, r4
     5f6:	07e3      	lsls	r3, r4, #31
     5f8:	d545      	bpl.n	686 <trace_vprintf+0xfe>
/home/frank/TrustSQLite/stm32mp1-openstlinux-5.10-dunfell-mp1-21-11-17/sources/arm-ostl-linux-gnueabi/optee-os-stm32mp-3.12.0-stm32mp-r2-r0/optee-os-stm32mp-3.12.0-stm32mp-r2/lib/libutils/ext/trace.c:130
     5fa:	19ac      	adds	r4, r5, r6
print_thread_id():
/home/frank/TrustSQLite/stm32mp1-openstlinux-5.10-dunfell-mp1-21-11-17/sources/arm-ostl-linux-gnueabi/optee-os-stm32mp-3.12.0-stm32mp-r2-r0/optee-os-stm32mp-3.12.0-stm32mp-r2/lib/libutils/ext/trace.c:65
     5fc:	f000 fc22 	bl	e44 <trace_ext_get_thread_id>
/home/frank/TrustSQLite/stm32mp1-openstlinux-5.10-dunfell-mp1-21-11-17/sources/arm-ostl-linux-gnueabi/optee-os-stm32mp-3.12.0-stm32mp-r2-r0/optee-os-stm32mp-3.12.0-stm32mp-r2/lib/libutils/ext/trace.c:67
     600:	2800      	cmp	r0, #0
trace_vprintf():
/home/frank/TrustSQLite/stm32mp1-openstlinux-5.10-dunfell-mp1-21-11-17/sources/arm-ostl-linux-gnueabi/optee-os-stm32mp-3.12.0-stm32mp-r2-r0/optee-os-stm32mp-3.12.0-stm32mp-r2/lib/libutils/ext/trace.c:130
     602:	f5c6 7980 	rsb	r9, r6, #256	; 0x100
print_thread_id():
/home/frank/TrustSQLite/stm32mp1-openstlinux-5.10-dunfell-mp1-21-11-17/sources/arm-ostl-linux-gnueabi/optee-os-stm32mp-3.12.0-stm32mp-r2-r0/optee-os-stm32mp-3.12.0-stm32mp-r2/lib/libutils/ext/trace.c:67
     606:	db37      	blt.n	678 <trace_vprintf+0xf0>
/home/frank/TrustSQLite/stm32mp1-openstlinux-5.10-dunfell-mp1-21-11-17/sources/arm-ostl-linux-gnueabi/optee-os-stm32mp-3.12.0-stm32mp-r2-r0/optee-os-stm32mp-3.12.0-stm32mp-r2/lib/libutils/ext/trace.c:68
     608:	4a2a      	ldr	r2, [pc, #168]	; (6b4 <trace_vprintf+0x12c>)
     60a:	2301      	movs	r3, #1
     60c:	9000      	str	r0, [sp, #0]
     60e:	447a      	add	r2, pc
/home/frank/TrustSQLite/stm32mp1-openstlinux-5.10-dunfell-mp1-21-11-17/sources/arm-ostl-linux-gnueabi/optee-os-stm32mp-3.12.0-stm32mp-r2-r0/optee-os-stm32mp-3.12.0-stm32mp-r2/lib/libutils/ext/trace.c:70
     610:	4649      	mov	r1, r9
     612:	4620      	mov	r0, r4
     614:	f000 f883 	bl	71e <snprintk>
trace_vprintf():
/home/frank/TrustSQLite/stm32mp1-openstlinux-5.10-dunfell-mp1-21-11-17/sources/arm-ostl-linux-gnueabi/optee-os-stm32mp-3.12.0-stm32mp-r2-r0/optee-os-stm32mp-3.12.0-stm32mp-r2/lib/libutils/ext/trace.c:137
     618:	2800      	cmp	r0, #0
     61a:	db28      	blt.n	66e <trace_vprintf+0xe6>
/home/frank/TrustSQLite/stm32mp1-openstlinux-5.10-dunfell-mp1-21-11-17/sources/arm-ostl-linux-gnueabi/optee-os-stm32mp-3.12.0-stm32mp-r2-r0/optee-os-stm32mp-3.12.0-stm32mp-r2/lib/libutils/ext/trace.c:139
     61c:	1984      	adds	r4, r0, r6
/home/frank/TrustSQLite/stm32mp1-openstlinux-5.10-dunfell-mp1-21-11-17/sources/arm-ostl-linux-gnueabi/optee-os-stm32mp-3.12.0-stm32mp-r2-r0/optee-os-stm32mp-3.12.0-stm32mp-r2/lib/libutils/ext/trace.c:141
     61e:	b167      	cbz	r7, 63a <trace_vprintf+0xb2>
/home/frank/TrustSQLite/stm32mp1-openstlinux-5.10-dunfell-mp1-21-11-17/sources/arm-ostl-linux-gnueabi/optee-os-stm32mp-3.12.0-stm32mp-r2-r0/optee-os-stm32mp-3.12.0-stm32mp-r2/lib/libutils/ext/trace.c:142
     620:	4a25      	ldr	r2, [pc, #148]	; (6b8 <trace_vprintf+0x130>)
     622:	463b      	mov	r3, r7
     624:	1928      	adds	r0, r5, r4
     626:	f5c4 7180 	rsb	r1, r4, #256	; 0x100
     62a:	447a      	add	r2, pc
     62c:	f8cd 8000 	str.w	r8, [sp]
     630:	f000 f875 	bl	71e <snprintk>
/home/frank/TrustSQLite/stm32mp1-openstlinux-5.10-dunfell-mp1-21-11-17/sources/arm-ostl-linux-gnueabi/optee-os-stm32mp-3.12.0-stm32mp-r2-r0/optee-os-stm32mp-3.12.0-stm32mp-r2/lib/libutils/ext/trace.c:144
     634:	2800      	cmp	r0, #0
     636:	db1a      	blt.n	66e <trace_vprintf+0xe6>
/home/frank/TrustSQLite/stm32mp1-openstlinux-5.10-dunfell-mp1-21-11-17/sources/arm-ostl-linux-gnueabi/optee-os-stm32mp-3.12.0-stm32mp-r2-r0/optee-os-stm32mp-3.12.0-stm32mp-r2/lib/libutils/ext/trace.c:146
     638:	4404      	add	r4, r0
/home/frank/TrustSQLite/stm32mp1-openstlinux-5.10-dunfell-mp1-21-11-17/sources/arm-ostl-linux-gnueabi/optee-os-stm32mp-3.12.0-stm32mp-r2-r0/optee-os-stm32mp-3.12.0-stm32mp-r2/lib/libutils/ext/trace.c:156
     63a:	1928      	adds	r0, r5, r4
     63c:	f5c4 7180 	rsb	r1, r4, #256	; 0x100
     640:	9b4f      	ldr	r3, [sp, #316]	; 0x13c
     642:	9a4e      	ldr	r2, [sp, #312]	; 0x138
     644:	f000 f864 	bl	710 <vsnprintk>
/home/frank/TrustSQLite/stm32mp1-openstlinux-5.10-dunfell-mp1-21-11-17/sources/arm-ostl-linux-gnueabi/optee-os-stm32mp-3.12.0-stm32mp-r2-r0/optee-os-stm32mp-3.12.0-stm32mp-r2/lib/libutils/ext/trace.c:157
     648:	2800      	cmp	r0, #0
/home/frank/TrustSQLite/stm32mp1-openstlinux-5.10-dunfell-mp1-21-11-17/sources/arm-ostl-linux-gnueabi/optee-os-stm32mp-3.12.0-stm32mp-r2-r0/optee-os-stm32mp-3.12.0-stm32mp-r2/lib/libutils/ext/trace.c:163
     64a:	f04f 030a 	mov.w	r3, #10
/home/frank/TrustSQLite/stm32mp1-openstlinux-5.10-dunfell-mp1-21-11-17/sources/arm-ostl-linux-gnueabi/optee-os-stm32mp-3.12.0-stm32mp-r2-r0/optee-os-stm32mp-3.12.0-stm32mp-r2/lib/libutils/ext/trace.c:158
     64e:	bfc8      	it	gt
     650:	1824      	addgt	r4, r4, r0
/home/frank/TrustSQLite/stm32mp1-openstlinux-5.10-dunfell-mp1-21-11-17/sources/arm-ostl-linux-gnueabi/optee-os-stm32mp-3.12.0-stm32mp-r2-r0/optee-os-stm32mp-3.12.0-stm32mp-r2/lib/libutils/ext/trace.c:160
     652:	2cfe      	cmp	r4, #254	; 0xfe
     654:	bf28      	it	cs
     656:	24fe      	movcs	r4, #254	; 0xfe
/home/frank/TrustSQLite/stm32mp1-openstlinux-5.10-dunfell-mp1-21-11-17/sources/arm-ostl-linux-gnueabi/optee-os-stm32mp-3.12.0-stm32mp-r2-r0/optee-os-stm32mp-3.12.0-stm32mp-r2/lib/libutils/ext/trace.c:163
     658:	552b      	strb	r3, [r5, r4]
/home/frank/TrustSQLite/stm32mp1-openstlinux-5.10-dunfell-mp1-21-11-17/sources/arm-ostl-linux-gnueabi/optee-os-stm32mp-3.12.0-stm32mp-r2-r0/optee-os-stm32mp-3.12.0-stm32mp-r2/lib/libutils/ext/trace.c:164
     65a:	b114      	cbz	r4, 662 <trace_vprintf+0xda>
/home/frank/TrustSQLite/stm32mp1-openstlinux-5.10-dunfell-mp1-21-11-17/sources/arm-ostl-linux-gnueabi/optee-os-stm32mp-3.12.0-stm32mp-r2-r0/optee-os-stm32mp-3.12.0-stm32mp-r2/lib/libutils/ext/trace.c:164 (discriminator 1)
     65c:	5d2b      	ldrb	r3, [r5, r4]
     65e:	2b0a      	cmp	r3, #10
     660:	d019      	beq.n	696 <trace_vprintf+0x10e>
/home/frank/TrustSQLite/stm32mp1-openstlinux-5.10-dunfell-mp1-21-11-17/sources/arm-ostl-linux-gnueabi/optee-os-stm32mp-3.12.0-stm32mp-r2-r0/optee-os-stm32mp-3.12.0-stm32mp-r2/lib/libutils/ext/trace.c:167
     662:	442c      	add	r4, r5
     664:	2300      	movs	r3, #0
/home/frank/TrustSQLite/stm32mp1-openstlinux-5.10-dunfell-mp1-21-11-17/sources/arm-ostl-linux-gnueabi/optee-os-stm32mp-3.12.0-stm32mp-r2-r0/optee-os-stm32mp-3.12.0-stm32mp-r2/lib/libutils/ext/trace.c:169
     666:	4628      	mov	r0, r5
/home/frank/TrustSQLite/stm32mp1-openstlinux-5.10-dunfell-mp1-21-11-17/sources/arm-ostl-linux-gnueabi/optee-os-stm32mp-3.12.0-stm32mp-r2-r0/optee-os-stm32mp-3.12.0-stm32mp-r2/lib/libutils/ext/trace.c:167
     668:	70a3      	strb	r3, [r4, #2]
/home/frank/TrustSQLite/stm32mp1-openstlinux-5.10-dunfell-mp1-21-11-17/sources/arm-ostl-linux-gnueabi/optee-os-stm32mp-3.12.0-stm32mp-r2-r0/optee-os-stm32mp-3.12.0-stm32mp-r2/lib/libutils/ext/trace.c:169
     66a:	f000 fbe1 	bl	e30 <trace_ext_puts>
/home/frank/TrustSQLite/stm32mp1-openstlinux-5.10-dunfell-mp1-21-11-17/sources/arm-ostl-linux-gnueabi/optee-os-stm32mp-3.12.0-stm32mp-r2-r0/optee-os-stm32mp-3.12.0-stm32mp-r2/lib/libutils/ext/trace.c:170
     66e:	b045      	add	sp, #276	; 0x114
     670:	e8bd 8ff0 	ldmia.w	sp!, {r4, r5, r6, r7, r8, r9, sl, fp, pc}
trace_level_to_string():
/home/frank/TrustSQLite/stm32mp1-openstlinux-5.10-dunfell-mp1-21-11-17/sources/arm-ostl-linux-gnueabi/optee-os-stm32mp-3.12.0-stm32mp-r2-r0/optee-os-stm32mp-3.12.0-stm32mp-r2/lib/libutils/ext/trace.c:50
     674:	234d      	movs	r3, #77	; 0x4d
     676:	e7a0      	b.n	5ba <trace_vprintf+0x32>
print_thread_id():
/home/frank/TrustSQLite/stm32mp1-openstlinux-5.10-dunfell-mp1-21-11-17/sources/arm-ostl-linux-gnueabi/optee-os-stm32mp-3.12.0-stm32mp-r2-r0/optee-os-stm32mp-3.12.0-stm32mp-r2/lib/libutils/ext/trace.c:70
     678:	4b10      	ldr	r3, [pc, #64]	; (6bc <trace_vprintf+0x134>)
     67a:	4a11      	ldr	r2, [pc, #68]	; (6c0 <trace_vprintf+0x138>)
     67c:	447b      	add	r3, pc
     67e:	9300      	str	r3, [sp, #0]
     680:	2301      	movs	r3, #1
     682:	447a      	add	r2, pc
     684:	e7c4      	b.n	610 <trace_vprintf+0x88>
trace_vprintf():
/home/frank/TrustSQLite/stm32mp1-openstlinux-5.10-dunfell-mp1-21-11-17/sources/arm-ostl-linux-gnueabi/optee-os-stm32mp-3.12.0-stm32mp-r2-r0/optee-os-stm32mp-3.12.0-stm32mp-r2/lib/libutils/ext/trace.c:150
     686:	2efe      	cmp	r6, #254	; 0xfe
     688:	d8f1      	bhi.n	66e <trace_vprintf+0xe6>
/home/frank/TrustSQLite/stm32mp1-openstlinux-5.10-dunfell-mp1-21-11-17/sources/arm-ostl-linux-gnueabi/optee-os-stm32mp-3.12.0-stm32mp-r2-r0/optee-os-stm32mp-3.12.0-stm32mp-r2/lib/libutils/ext/trace.c:152
     68a:	2320      	movs	r3, #32
     68c:	1c74      	adds	r4, r6, #1
     68e:	55ab      	strb	r3, [r5, r6]
/home/frank/TrustSQLite/stm32mp1-openstlinux-5.10-dunfell-mp1-21-11-17/sources/arm-ostl-linux-gnueabi/optee-os-stm32mp-3.12.0-stm32mp-r2-r0/optee-os-stm32mp-3.12.0-stm32mp-r2/lib/libutils/ext/trace.c:153
     690:	2300      	movs	r3, #0
     692:	552b      	strb	r3, [r5, r4]
     694:	e7d1      	b.n	63a <trace_vprintf+0xb2>
/home/frank/TrustSQLite/stm32mp1-openstlinux-5.10-dunfell-mp1-21-11-17/sources/arm-ostl-linux-gnueabi/optee-os-stm32mp-3.12.0-stm32mp-r2-r0/optee-os-stm32mp-3.12.0-stm32mp-r2/lib/libutils/ext/trace.c:165
     696:	3c01      	subs	r4, #1
     698:	e7df      	b.n	65a <trace_vprintf+0xd2>
     69a:	bf00      	nop
     69c:	0000aaec 	.word	0x0000aaec
     6a0:	00000010 	.word	0x00000010
     6a4:	00008fd2 	.word	0x00008fd2
     6a8:	00008faa 	.word	0x00008faa
     6ac:	00000014 	.word	0x00000014
     6b0:	00008f98 	.word	0x00008f98
     6b4:	00008f68 	.word	0x00008f68
     6b8:	00008f57 	.word	0x00008f57
     6bc:	00008bb7 	.word	0x00008bb7
     6c0:	00008efa 	.word	0x00008efa

000006c4 <trace_printf>:
trace_printf():
/home/frank/TrustSQLite/stm32mp1-openstlinux-5.10-dunfell-mp1-21-11-17/sources/arm-ostl-linux-gnueabi/optee-os-stm32mp-3.12.0-stm32mp-r2-r0/optee-os-stm32mp-3.12.0-stm32mp-r2/lib/libutils/ext/trace.c:97
     6c4:	b530      	push	{r4, r5, lr}
     6c6:	b085      	sub	sp, #20
     6c8:	ac08      	add	r4, sp, #32
     6ca:	f854 5b04 	ldr.w	r5, [r4], #4
/home/frank/TrustSQLite/stm32mp1-openstlinux-5.10-dunfell-mp1-21-11-17/sources/arm-ostl-linux-gnueabi/optee-os-stm32mp-3.12.0-stm32mp-r2-r0/optee-os-stm32mp-3.12.0-stm32mp-r2/lib/libutils/ext/trace.c:101
     6ce:	9401      	str	r4, [sp, #4]
     6d0:	9500      	str	r5, [sp, #0]
/home/frank/TrustSQLite/stm32mp1-openstlinux-5.10-dunfell-mp1-21-11-17/sources/arm-ostl-linux-gnueabi/optee-os-stm32mp-3.12.0-stm32mp-r2-r0/optee-os-stm32mp-3.12.0-stm32mp-r2/lib/libutils/ext/trace.c:100
     6d2:	9403      	str	r4, [sp, #12]
/home/frank/TrustSQLite/stm32mp1-openstlinux-5.10-dunfell-mp1-21-11-17/sources/arm-ostl-linux-gnueabi/optee-os-stm32mp-3.12.0-stm32mp-r2-r0/optee-os-stm32mp-3.12.0-stm32mp-r2/lib/libutils/ext/trace.c:101
     6d4:	f7ff ff58 	bl	588 <trace_vprintf>
/home/frank/TrustSQLite/stm32mp1-openstlinux-5.10-dunfell-mp1-21-11-17/sources/arm-ostl-linux-gnueabi/optee-os-stm32mp-3.12.0-stm32mp-r2-r0/optee-os-stm32mp-3.12.0-stm32mp-r2/lib/libutils/ext/trace.c:103
     6d8:	b005      	add	sp, #20
     6da:	bd30      	pop	{r4, r5, pc}

000006dc <dhex_dump>:
dhex_dump():
/home/frank/TrustSQLite/stm32mp1-openstlinux-5.10-dunfell-mp1-21-11-17/sources/arm-ostl-linux-gnueabi/optee-os-stm32mp-3.12.0-stm32mp-r2-r0/optee-os-stm32mp-3.12.0-stm32mp-r2/lib/libutils/ext/trace.c:280
     6dc:	4770      	bx	lr
     6de:	bf00      	nop

000006e0 <__vsnprintf>:
__vsnprintf():
/home/frank/TrustSQLite/stm32mp1-openstlinux-5.10-dunfell-mp1-21-11-17/sources/arm-ostl-linux-gnueabi/optee-os-stm32mp-3.12.0-stm32mp-r2-r0/optee-os-stm32mp-3.12.0-stm32mp-r2/lib/libutils/ext/snprintk.c:138
     6e0:	b57f      	push	{r0, r1, r2, r3, r4, r5, r6, lr}
     6e2:	4604      	mov	r4, r0
/home/frank/TrustSQLite/stm32mp1-openstlinux-5.10-dunfell-mp1-21-11-17/sources/arm-ostl-linux-gnueabi/optee-os-stm32mp-3.12.0-stm32mp-r2-r0/optee-os-stm32mp-3.12.0-stm32mp-r2/lib/libutils/ext/snprintk.c:142
     6e4:	1866      	adds	r6, r4, r1
/home/frank/TrustSQLite/stm32mp1-openstlinux-5.10-dunfell-mp1-21-11-17/sources/arm-ostl-linux-gnueabi/optee-os-stm32mp-3.12.0-stm32mp-r2-r0/optee-os-stm32mp-3.12.0-stm32mp-r2/lib/libutils/ext/snprintk.c:138
     6e6:	4610      	mov	r0, r2
/home/frank/TrustSQLite/stm32mp1-openstlinux-5.10-dunfell-mp1-21-11-17/sources/arm-ostl-linux-gnueabi/optee-os-stm32mp-3.12.0-stm32mp-r2-r0/optee-os-stm32mp-3.12.0-stm32mp-r2/lib/libutils/ext/snprintk.c:143
     6e8:	f89d 2020 	ldrb.w	r2, [sp, #32]
/home/frank/TrustSQLite/stm32mp1-openstlinux-5.10-dunfell-mp1-21-11-17/sources/arm-ostl-linux-gnueabi/optee-os-stm32mp-3.12.0-stm32mp-r2-r0/optee-os-stm32mp-3.12.0-stm32mp-r2/lib/libutils/ext/snprintk.c:138
     6ec:	460d      	mov	r5, r1
/home/frank/TrustSQLite/stm32mp1-openstlinux-5.10-dunfell-mp1-21-11-17/sources/arm-ostl-linux-gnueabi/optee-os-stm32mp-3.12.0-stm32mp-r2-r0/optee-os-stm32mp-3.12.0-stm32mp-r2/lib/libutils/ext/snprintk.c:142
     6ee:	9603      	str	r6, [sp, #12]
/home/frank/TrustSQLite/stm32mp1-openstlinux-5.10-dunfell-mp1-21-11-17/sources/arm-ostl-linux-gnueabi/optee-os-stm32mp-3.12.0-stm32mp-r2-r0/optee-os-stm32mp-3.12.0-stm32mp-r2/lib/libutils/ext/snprintk.c:143
     6f0:	a903      	add	r1, sp, #12
     6f2:	9200      	str	r2, [sp, #0]
     6f4:	4622      	mov	r2, r4
     6f6:	f000 f81f 	bl	738 <kprintf.constprop.0>
/home/frank/TrustSQLite/stm32mp1-openstlinux-5.10-dunfell-mp1-21-11-17/sources/arm-ostl-linux-gnueabi/optee-os-stm32mp-3.12.0-stm32mp-r2-r0/optee-os-stm32mp-3.12.0-stm32mp-r2/lib/libutils/ext/snprintk.c:144
     6fa:	b13c      	cbz	r4, 70c <__vsnprintf+0x2c>
/home/frank/TrustSQLite/stm32mp1-openstlinux-5.10-dunfell-mp1-21-11-17/sources/arm-ostl-linux-gnueabi/optee-os-stm32mp-3.12.0-stm32mp-r2-r0/optee-os-stm32mp-3.12.0-stm32mp-r2/lib/libutils/ext/snprintk.c:144 (discriminator 1)
     6fc:	b135      	cbz	r5, 70c <__vsnprintf+0x2c>
/home/frank/TrustSQLite/stm32mp1-openstlinux-5.10-dunfell-mp1-21-11-17/sources/arm-ostl-linux-gnueabi/optee-os-stm32mp-3.12.0-stm32mp-r2-r0/optee-os-stm32mp-3.12.0-stm32mp-r2/lib/libutils/ext/snprintk.c:146
     6fe:	42a8      	cmp	r0, r5
     700:	f04f 0300 	mov.w	r3, #0
/home/frank/TrustSQLite/stm32mp1-openstlinux-5.10-dunfell-mp1-21-11-17/sources/arm-ostl-linux-gnueabi/optee-os-stm32mp-3.12.0-stm32mp-r2-r0/optee-os-stm32mp-3.12.0-stm32mp-r2/lib/libutils/ext/snprintk.c:147
     704:	bf2c      	ite	cs
     706:	f806 3c01 	strbcs.w	r3, [r6, #-1]
/home/frank/TrustSQLite/stm32mp1-openstlinux-5.10-dunfell-mp1-21-11-17/sources/arm-ostl-linux-gnueabi/optee-os-stm32mp-3.12.0-stm32mp-r2-r0/optee-os-stm32mp-3.12.0-stm32mp-r2/lib/libutils/ext/snprintk.c:149
     70a:	5423      	strbcc	r3, [r4, r0]
/home/frank/TrustSQLite/stm32mp1-openstlinux-5.10-dunfell-mp1-21-11-17/sources/arm-ostl-linux-gnueabi/optee-os-stm32mp-3.12.0-stm32mp-r2-r0/optee-os-stm32mp-3.12.0-stm32mp-r2/lib/libutils/ext/snprintk.c:152
     70c:	b004      	add	sp, #16
     70e:	bd70      	pop	{r4, r5, r6, pc}

00000710 <vsnprintk>:
vsnprintk():
/home/frank/TrustSQLite/stm32mp1-openstlinux-5.10-dunfell-mp1-21-11-17/sources/arm-ostl-linux-gnueabi/optee-os-stm32mp-3.12.0-stm32mp-r2-r0/optee-os-stm32mp-3.12.0-stm32mp-r2/lib/libutils/ext/snprintk.c:130
     710:	b513      	push	{r0, r1, r4, lr}
/home/frank/TrustSQLite/stm32mp1-openstlinux-5.10-dunfell-mp1-21-11-17/sources/arm-ostl-linux-gnueabi/optee-os-stm32mp-3.12.0-stm32mp-r2-r0/optee-os-stm32mp-3.12.0-stm32mp-r2/lib/libutils/ext/snprintk.c:131
     712:	2401      	movs	r4, #1
     714:	9400      	str	r4, [sp, #0]
     716:	f7ff ffe3 	bl	6e0 <__vsnprintf>
/home/frank/TrustSQLite/stm32mp1-openstlinux-5.10-dunfell-mp1-21-11-17/sources/arm-ostl-linux-gnueabi/optee-os-stm32mp-3.12.0-stm32mp-r2-r0/optee-os-stm32mp-3.12.0-stm32mp-r2/lib/libutils/ext/snprintk.c:132
     71a:	b002      	add	sp, #8
     71c:	bd10      	pop	{r4, pc}

0000071e <snprintk>:
snprintk():
/home/frank/TrustSQLite/stm32mp1-openstlinux-5.10-dunfell-mp1-21-11-17/sources/arm-ostl-linux-gnueabi/optee-os-stm32mp-3.12.0-stm32mp-r2-r0/optee-os-stm32mp-3.12.0-stm32mp-r2/lib/libutils/ext/snprintk.c:113
     71e:	b40c      	push	{r2, r3}
     720:	b507      	push	{r0, r1, r2, lr}
     722:	ab04      	add	r3, sp, #16
     724:	f853 2b04 	ldr.w	r2, [r3], #4
/home/frank/TrustSQLite/stm32mp1-openstlinux-5.10-dunfell-mp1-21-11-17/sources/arm-ostl-linux-gnueabi/optee-os-stm32mp-3.12.0-stm32mp-r2-r0/optee-os-stm32mp-3.12.0-stm32mp-r2/lib/libutils/ext/snprintk.c:117
     728:	9301      	str	r3, [sp, #4]
/home/frank/TrustSQLite/stm32mp1-openstlinux-5.10-dunfell-mp1-21-11-17/sources/arm-ostl-linux-gnueabi/optee-os-stm32mp-3.12.0-stm32mp-r2-r0/optee-os-stm32mp-3.12.0-stm32mp-r2/lib/libutils/ext/snprintk.c:118
     72a:	f7ff fff1 	bl	710 <vsnprintk>
/home/frank/TrustSQLite/stm32mp1-openstlinux-5.10-dunfell-mp1-21-11-17/sources/arm-ostl-linux-gnueabi/optee-os-stm32mp-3.12.0-stm32mp-r2-r0/optee-os-stm32mp-3.12.0-stm32mp-r2/lib/libutils/ext/snprintk.c:122
     72e:	b003      	add	sp, #12
     730:	f85d eb04 	ldr.w	lr, [sp], #4
     734:	b002      	add	sp, #8
     736:	4770      	bx	lr

00000738 <kprintf.constprop.0>:
kprintf():
/home/frank/TrustSQLite/stm32mp1-openstlinux-5.10-dunfell-mp1-21-11-17/sources/arm-ostl-linux-gnueabi/optee-os-stm32mp-3.12.0-stm32mp-r2-r0/optee-os-stm32mp-3.12.0-stm32mp-r2/lib/libutils/ext/snprintk.c:242
     738:	e92d 4ff0 	stmdb	sp!, {r4, r5, r6, r7, r8, r9, sl, fp, lr}
     73c:	b09f      	sub	sp, #124	; 0x7c
     73e:	4690      	mov	r8, r2
     740:	461f      	mov	r7, r3
     742:	f89d 20a0 	ldrb.w	r2, [sp, #160]	; 0xa0
     746:	900b      	str	r0, [sp, #44]	; 0x2c
     748:	9213      	str	r2, [sp, #76]	; 0x4c
/home/frank/TrustSQLite/stm32mp1-openstlinux-5.10-dunfell-mp1-21-11-17/sources/arm-ostl-linux-gnueabi/optee-os-stm32mp-3.12.0-stm32mp-r2-r0/optee-os-stm32mp-3.12.0-stm32mp-r2/lib/libutils/ext/snprintk.c:264
     74a:	910d      	str	r1, [sp, #52]	; 0x34
     74c:	b189      	cbz	r1, 772 <kprintf.constprop.0+0x3a>
/home/frank/TrustSQLite/stm32mp1-openstlinux-5.10-dunfell-mp1-21-11-17/sources/arm-ostl-linux-gnueabi/optee-os-stm32mp-3.12.0-stm32mp-r2-r0/optee-os-stm32mp-3.12.0-stm32mp-r2/lib/libutils/ext/snprintk.c:265
     74e:	680b      	ldr	r3, [r1, #0]
/home/frank/TrustSQLite/stm32mp1-openstlinux-5.10-dunfell-mp1-21-11-17/sources/arm-ostl-linux-gnueabi/optee-os-stm32mp-3.12.0-stm32mp-r2-r0/optee-os-stm32mp-3.12.0-stm32mp-r2/lib/libutils/ext/snprintk.c:267
     750:	9310      	str	r3, [sp, #64]	; 0x40
/home/frank/TrustSQLite/stm32mp1-openstlinux-5.10-dunfell-mp1-21-11-17/sources/arm-ostl-linux-gnueabi/optee-os-stm32mp-3.12.0-stm32mp-r2-r0/optee-os-stm32mp-3.12.0-stm32mp-r2/lib/libutils/ext/snprintk.c:275
     752:	2300      	movs	r3, #0
     754:	9311      	str	r3, [sp, #68]	; 0x44
/home/frank/TrustSQLite/stm32mp1-openstlinux-5.10-dunfell-mp1-21-11-17/sources/arm-ostl-linux-gnueabi/optee-os-stm32mp-3.12.0-stm32mp-r2-r0/optee-os-stm32mp-3.12.0-stm32mp-r2/lib/libutils/ext/snprintk.c:273
     756:	930e      	str	r3, [sp, #56]	; 0x38
/home/frank/TrustSQLite/stm32mp1-openstlinux-5.10-dunfell-mp1-21-11-17/sources/arm-ostl-linux-gnueabi/optee-os-stm32mp-3.12.0-stm32mp-r2-r0/optee-os-stm32mp-3.12.0-stm32mp-r2/lib/libutils/ext/snprintk.c:281
     758:	9b0b      	ldr	r3, [sp, #44]	; 0x2c
     75a:	781b      	ldrb	r3, [r3, #0]
     75c:	2b25      	cmp	r3, #37	; 0x25
     75e:	d01b      	beq.n	798 <kprintf.constprop.0+0x60>
     760:	b94b      	cbnz	r3, 776 <kprintf.constprop.0+0x3e>
/home/frank/TrustSQLite/stm32mp1-openstlinux-5.10-dunfell-mp1-21-11-17/sources/arm-ostl-linux-gnueabi/optee-os-stm32mp-3.12.0-stm32mp-r2-r0/optee-os-stm32mp-3.12.0-stm32mp-r2/lib/libutils/ext/snprintk.c:619
     762:	9b0d      	ldr	r3, [sp, #52]	; 0x34
     764:	b10b      	cbz	r3, 76a <kprintf.constprop.0+0x32>
/home/frank/TrustSQLite/stm32mp1-openstlinux-5.10-dunfell-mp1-21-11-17/sources/arm-ostl-linux-gnueabi/optee-os-stm32mp-3.12.0-stm32mp-r2-r0/optee-os-stm32mp-3.12.0-stm32mp-r2/lib/libutils/ext/snprintk.c:620
     766:	f8c3 8000 	str.w	r8, [r3]
/home/frank/TrustSQLite/stm32mp1-openstlinux-5.10-dunfell-mp1-21-11-17/sources/arm-ostl-linux-gnueabi/optee-os-stm32mp-3.12.0-stm32mp-r2-r0/optee-os-stm32mp-3.12.0-stm32mp-r2/lib/libutils/ext/snprintk.c:622
     76a:	980e      	ldr	r0, [sp, #56]	; 0x38
     76c:	b01f      	add	sp, #124	; 0x7c
     76e:	e8bd 8ff0 	ldmia.w	sp!, {r4, r5, r6, r7, r8, r9, sl, fp, pc}
/home/frank/TrustSQLite/stm32mp1-openstlinux-5.10-dunfell-mp1-21-11-17/sources/arm-ostl-linux-gnueabi/optee-os-stm32mp-3.12.0-stm32mp-r2-r0/optee-os-stm32mp-3.12.0-stm32mp-r2/lib/libutils/ext/snprintk.c:267
     772:	9b0d      	ldr	r3, [sp, #52]	; 0x34
     774:	e7ec      	b.n	750 <kprintf.constprop.0+0x18>
/home/frank/TrustSQLite/stm32mp1-openstlinux-5.10-dunfell-mp1-21-11-17/sources/arm-ostl-linux-gnueabi/optee-os-stm32mp-3.12.0-stm32mp-r2-r0/optee-os-stm32mp-3.12.0-stm32mp-r2/lib/libutils/ext/snprintk.c:282
     776:	9a0e      	ldr	r2, [sp, #56]	; 0x38
     778:	3201      	adds	r2, #1
     77a:	920e      	str	r2, [sp, #56]	; 0x38
/home/frank/TrustSQLite/stm32mp1-openstlinux-5.10-dunfell-mp1-21-11-17/sources/arm-ostl-linux-gnueabi/optee-os-stm32mp-3.12.0-stm32mp-r2-r0/optee-os-stm32mp-3.12.0-stm32mp-r2/lib/libutils/ext/snprintk.c:283
     77c:	f1b8 0f00 	cmp.w	r8, #0
     780:	d006      	beq.n	790 <kprintf.constprop.0+0x58>
     782:	9a0d      	ldr	r2, [sp, #52]	; 0x34
     784:	b112      	cbz	r2, 78c <kprintf.constprop.0+0x54>
     786:	9a10      	ldr	r2, [sp, #64]	; 0x40
     788:	4590      	cmp	r8, r2
     78a:	d201      	bcs.n	790 <kprintf.constprop.0+0x58>
     78c:	f808 3b01 	strb.w	r3, [r8], #1
/home/frank/TrustSQLite/stm32mp1-openstlinux-5.10-dunfell-mp1-21-11-17/sources/arm-ostl-linux-gnueabi/optee-os-stm32mp-3.12.0-stm32mp-r2-r0/optee-os-stm32mp-3.12.0-stm32mp-r2/lib/libutils/ext/snprintk.c:281
     790:	9b0b      	ldr	r3, [sp, #44]	; 0x2c
     792:	3301      	adds	r3, #1
     794:	930b      	str	r3, [sp, #44]	; 0x2c
     796:	e7df      	b.n	758 <kprintf.constprop.0+0x20>
/home/frank/TrustSQLite/stm32mp1-openstlinux-5.10-dunfell-mp1-21-11-17/sources/arm-ostl-linux-gnueabi/optee-os-stm32mp-3.12.0-stm32mp-r2-r0/optee-os-stm32mp-3.12.0-stm32mp-r2/lib/libutils/ext/snprintk.c:288
     798:	980b      	ldr	r0, [sp, #44]	; 0x2c
/home/frank/TrustSQLite/stm32mp1-openstlinux-5.10-dunfell-mp1-21-11-17/sources/arm-ostl-linux-gnueabi/optee-os-stm32mp-3.12.0-stm32mp-r2-r0/optee-os-stm32mp-3.12.0-stm32mp-r2/lib/libutils/ext/snprintk.c:294
     79a:	f04f 0900 	mov.w	r9, #0
/home/frank/TrustSQLite/stm32mp1-openstlinux-5.10-dunfell-mp1-21-11-17/sources/arm-ostl-linux-gnueabi/optee-os-stm32mp-3.12.0-stm32mp-r2-r0/optee-os-stm32mp-3.12.0-stm32mp-r2/lib/libutils/ext/snprintk.c:292
     79e:	f8cd 903c 	str.w	r9, [sp, #60]	; 0x3c
/home/frank/TrustSQLite/stm32mp1-openstlinux-5.10-dunfell-mp1-21-11-17/sources/arm-ostl-linux-gnueabi/optee-os-stm32mp-3.12.0-stm32mp-r2-r0/optee-os-stm32mp-3.12.0-stm32mp-r2/lib/libutils/ext/snprintk.c:288
     7a2:	463b      	mov	r3, r7
     7a4:	3001      	adds	r0, #1
/home/frank/TrustSQLite/stm32mp1-openstlinux-5.10-dunfell-mp1-21-11-17/sources/arm-ostl-linux-gnueabi/optee-os-stm32mp-3.12.0-stm32mp-r2-r0/optee-os-stm32mp-3.12.0-stm32mp-r2/lib/libutils/ext/snprintk.c:293
     7a6:	f04f 3bff 	mov.w	fp, #4294967295	; 0xffffffff
/home/frank/TrustSQLite/stm32mp1-openstlinux-5.10-dunfell-mp1-21-11-17/sources/arm-ostl-linux-gnueabi/optee-os-stm32mp-3.12.0-stm32mp-r2-r0/optee-os-stm32mp-3.12.0-stm32mp-r2/lib/libutils/ext/snprintk.c:290
     7aa:	464e      	mov	r6, r9
/home/frank/TrustSQLite/stm32mp1-openstlinux-5.10-dunfell-mp1-21-11-17/sources/arm-ostl-linux-gnueabi/optee-os-stm32mp-3.12.0-stm32mp-r2-r0/optee-os-stm32mp-3.12.0-stm32mp-r2/lib/libutils/ext/snprintk.c:296
     7ac:	4601      	mov	r1, r0
     7ae:	f811 2b01 	ldrb.w	r2, [r1], #1
     7b2:	920c      	str	r2, [sp, #48]	; 0x30
     7b4:	910b      	str	r1, [sp, #44]	; 0x2c
/home/frank/TrustSQLite/stm32mp1-openstlinux-5.10-dunfell-mp1-21-11-17/sources/arm-ostl-linux-gnueabi/optee-os-stm32mp-3.12.0-stm32mp-r2-r0/optee-os-stm32mp-3.12.0-stm32mp-r2/lib/libutils/ext/snprintk.c:297
     7b6:	9a0c      	ldr	r2, [sp, #48]	; 0x30
     7b8:	2a39      	cmp	r2, #57	; 0x39
     7ba:	dc6f      	bgt.n	89c <kprintf.constprop.0+0x164>
     7bc:	2a1f      	cmp	r2, #31
     7be:	f340 82ae 	ble.w	d1e <kprintf.constprop.0+0x5e6>
     7c2:	9a0c      	ldr	r2, [sp, #48]	; 0x30
     7c4:	3a20      	subs	r2, #32
     7c6:	2a19      	cmp	r2, #25
     7c8:	d86c      	bhi.n	8a4 <kprintf.constprop.0+0x16c>
     7ca:	e8df f002 	tbb	[pc, r2]
     7ce:	6b70      	.short	0x6b70
     7d0:	6b6b766b 	.word	0x6b6b766b
     7d4:	6b6b6b6b 	.word	0x6b6b6b6b
     7d8:	826b0d79 	.word	0x826b0d79
     7dc:	a5a26b85 	.word	0xa5a26b85
     7e0:	a5a5a5a5 	.word	0xa5a5a5a5
     7e4:	a5a5a5a5 	.word	0xa5a5a5a5
/home/frank/TrustSQLite/stm32mp1-openstlinux-5.10-dunfell-mp1-21-11-17/sources/arm-ostl-linux-gnueabi/optee-os-stm32mp-3.12.0-stm32mp-r2-r0/optee-os-stm32mp-3.12.0-stm32mp-r2/lib/libutils/ext/snprintk.c:325
     7e8:	f04f 092b 	mov.w	r9, #43	; 0x2b
/home/frank/TrustSQLite/stm32mp1-openstlinux-5.10-dunfell-mp1-21-11-17/sources/arm-ostl-linux-gnueabi/optee-os-stm32mp-3.12.0-stm32mp-r2-r0/optee-os-stm32mp-3.12.0-stm32mp-r2/lib/libutils/ext/snprintk.c:317
     7ec:	980b      	ldr	r0, [sp, #44]	; 0x2c
     7ee:	e7dd      	b.n	7ac <kprintf.constprop.0+0x74>
     7f0:	463b      	mov	r3, r7
     7f2:	e7fb      	b.n	7ec <kprintf.constprop.0+0xb4>
     7f4:	2a36      	cmp	r2, #54	; 0x36
     7f6:	d855      	bhi.n	8a4 <kprintf.constprop.0+0x16c>
     7f8:	e8df f012 	tbh	[pc, r2, lsl #1]
     7fc:	005400c4 	.word	0x005400c4
     800:	00540054 	.word	0x00540054
     804:	00540054 	.word	0x00540054
     808:	00540054 	.word	0x00540054
     80c:	00540054 	.word	0x00540054
     810:	01850054 	.word	0x01850054
     814:	00540054 	.word	0x00540054
     818:	00540054 	.word	0x00540054
     81c:	02230054 	.word	0x02230054
     820:	00540054 	.word	0x00540054
     824:	00540255 	.word	0x00540255
     828:	00540054 	.word	0x00540054
     82c:	00540054 	.word	0x00540054
     830:	00540054 	.word	0x00540054
     834:	00540054 	.word	0x00540054
     838:	00b80054 	.word	0x00b80054
     83c:	005400c6 	.word	0x005400c6
     840:	00540054 	.word	0x00540054
     844:	00c6009f 	.word	0x00c6009f
     848:	005400a2 	.word	0x005400a2
     84c:	005400a5 	.word	0x005400a5
     850:	01870168 	.word	0x01870168
     854:	00ac01b7 	.word	0x00ac01b7
     858:	02050054 	.word	0x02050054
     85c:	022500b2 	.word	0x022500b2
     860:	00540054 	.word	0x00540054
     864:	00540037 	.word	0x00540037
     868:	00b5      	.short	0x00b5
/home/frank/TrustSQLite/stm32mp1-openstlinux-5.10-dunfell-mp1-21-11-17/sources/arm-ostl-linux-gnueabi/optee-os-stm32mp-3.12.0-stm32mp-r2-r0/optee-os-stm32mp-3.12.0-stm32mp-r2/lib/libutils/ext/snprintk.c:480
     86a:	f8df 2568 	ldr.w	r2, [pc, #1384]	; dd4 <kprintf.constprop.0+0x69c>
     86e:	447a      	add	r2, pc
     870:	3211      	adds	r2, #17
/home/frank/TrustSQLite/stm32mp1-openstlinux-5.10-dunfell-mp1-21-11-17/sources/arm-ostl-linux-gnueabi/optee-os-stm32mp-3.12.0-stm32mp-r2-r0/optee-os-stm32mp-3.12.0-stm32mp-r2/lib/libutils/ext/snprintk.c:481
     872:	0637      	lsls	r7, r6, #24
/home/frank/TrustSQLite/stm32mp1-openstlinux-5.10-dunfell-mp1-21-11-17/sources/arm-ostl-linux-gnueabi/optee-os-stm32mp-3.12.0-stm32mp-r2-r0/optee-os-stm32mp-3.12.0-stm32mp-r2/lib/libutils/ext/snprintk.c:477
     874:	9211      	str	r2, [sp, #68]	; 0x44
/home/frank/TrustSQLite/stm32mp1-openstlinux-5.10-dunfell-mp1-21-11-17/sources/arm-ostl-linux-gnueabi/optee-os-stm32mp-3.12.0-stm32mp-r2-r0/optee-os-stm32mp-3.12.0-stm32mp-r2/lib/libutils/ext/snprintk.c:481
     876:	f140 8219 	bpl.w	cac <kprintf.constprop.0+0x574>
     87a:	1ddf      	adds	r7, r3, #7
     87c:	f027 0707 	bic.w	r7, r7, #7
     880:	e8f7 4502 	ldrd	r4, r5, [r7], #8
/home/frank/TrustSQLite/stm32mp1-openstlinux-5.10-dunfell-mp1-21-11-17/sources/arm-ostl-linux-gnueabi/optee-os-stm32mp-3.12.0-stm32mp-r2-r0/optee-os-stm32mp-3.12.0-stm32mp-r2/lib/libutils/ext/snprintk.c:484
     884:	07f3      	lsls	r3, r6, #31
     886:	f140 81a9 	bpl.w	bdc <kprintf.constprop.0+0x4a4>
     88a:	ea54 0305 	orrs.w	r3, r4, r5
/home/frank/TrustSQLite/stm32mp1-openstlinux-5.10-dunfell-mp1-21-11-17/sources/arm-ostl-linux-gnueabi/optee-os-stm32mp-3.12.0-stm32mp-r2-r0/optee-os-stm32mp-3.12.0-stm32mp-r2/lib/libutils/ext/snprintk.c:488
     88e:	f04f 0900 	mov.w	r9, #0
/home/frank/TrustSQLite/stm32mp1-openstlinux-5.10-dunfell-mp1-21-11-17/sources/arm-ostl-linux-gnueabi/optee-os-stm32mp-3.12.0-stm32mp-r2-r0/optee-os-stm32mp-3.12.0-stm32mp-r2/lib/libutils/ext/snprintk.c:485
     892:	bf18      	it	ne
     894:	f046 0602 	orrne.w	r6, r6, #2
/home/frank/TrustSQLite/stm32mp1-openstlinux-5.10-dunfell-mp1-21-11-17/sources/arm-ostl-linux-gnueabi/optee-os-stm32mp-3.12.0-stm32mp-r2-r0/optee-os-stm32mp-3.12.0-stm32mp-r2/lib/libutils/ext/snprintk.c:482
     898:	2302      	movs	r3, #2
     89a:	e089      	b.n	9b0 <kprintf.constprop.0+0x278>
/home/frank/TrustSQLite/stm32mp1-openstlinux-5.10-dunfell-mp1-21-11-17/sources/arm-ostl-linux-gnueabi/optee-os-stm32mp-3.12.0-stm32mp-r2-r0/optee-os-stm32mp-3.12.0-stm32mp-r2/lib/libutils/ext/snprintk.c:297
     89c:	9a0c      	ldr	r2, [sp, #48]	; 0x30
     89e:	3a44      	subs	r2, #68	; 0x44
     8a0:	2a36      	cmp	r2, #54	; 0x36
     8a2:	d9a7      	bls.n	7f4 <kprintf.constprop.0+0xbc>
/home/frank/TrustSQLite/stm32mp1-openstlinux-5.10-dunfell-mp1-21-11-17/sources/arm-ostl-linux-gnueabi/optee-os-stm32mp-3.12.0-stm32mp-r2-r0/optee-os-stm32mp-3.12.0-stm32mp-r2/lib/libutils/ext/snprintk.c:551
     8a4:	9a0c      	ldr	r2, [sp, #48]	; 0x30
/home/frank/TrustSQLite/stm32mp1-openstlinux-5.10-dunfell-mp1-21-11-17/sources/arm-ostl-linux-gnueabi/optee-os-stm32mp-3.12.0-stm32mp-r2-r0/optee-os-stm32mp-3.12.0-stm32mp-r2/lib/libutils/ext/snprintk.c:554
     8a6:	461f      	mov	r7, r3
/home/frank/TrustSQLite/stm32mp1-openstlinux-5.10-dunfell-mp1-21-11-17/sources/arm-ostl-linux-gnueabi/optee-os-stm32mp-3.12.0-stm32mp-r2-r0/optee-os-stm32mp-3.12.0-stm32mp-r2/lib/libutils/ext/snprintk.c:551
     8a8:	f88d 2050 	strb.w	r2, [sp, #80]	; 0x50
/home/frank/TrustSQLite/stm32mp1-openstlinux-5.10-dunfell-mp1-21-11-17/sources/arm-ostl-linux-gnueabi/optee-os-stm32mp-3.12.0-stm32mp-r2-r0/optee-os-stm32mp-3.12.0-stm32mp-r2/lib/libutils/ext/snprintk.c:554
     8ac:	e063      	b.n	976 <kprintf.constprop.0+0x23e>
/home/frank/TrustSQLite/stm32mp1-openstlinux-5.10-dunfell-mp1-21-11-17/sources/arm-ostl-linux-gnueabi/optee-os-stm32mp-3.12.0-stm32mp-r2-r0/optee-os-stm32mp-3.12.0-stm32mp-r2/lib/libutils/ext/snprintk.c:305
     8ae:	f1b9 0f00 	cmp.w	r9, #0
     8b2:	bf08      	it	eq
     8b4:	f04f 0920 	moveq.w	r9, #32
     8b8:	e798      	b.n	7ec <kprintf.constprop.0+0xb4>
/home/frank/TrustSQLite/stm32mp1-openstlinux-5.10-dunfell-mp1-21-11-17/sources/arm-ostl-linux-gnueabi/optee-os-stm32mp-3.12.0-stm32mp-r2-r0/optee-os-stm32mp-3.12.0-stm32mp-r2/lib/libutils/ext/snprintk.c:308
     8ba:	f046 0601 	orr.w	r6, r6, #1
/home/frank/TrustSQLite/stm32mp1-openstlinux-5.10-dunfell-mp1-21-11-17/sources/arm-ostl-linux-gnueabi/optee-os-stm32mp-3.12.0-stm32mp-r2-r0/optee-os-stm32mp-3.12.0-stm32mp-r2/lib/libutils/ext/snprintk.c:309
     8be:	e795      	b.n	7ec <kprintf.constprop.0+0xb4>
/home/frank/TrustSQLite/stm32mp1-openstlinux-5.10-dunfell-mp1-21-11-17/sources/arm-ostl-linux-gnueabi/optee-os-stm32mp-3.12.0-stm32mp-r2-r0/optee-os-stm32mp-3.12.0-stm32mp-r2/lib/libutils/ext/snprintk.c:317
     8c0:	461f      	mov	r7, r3
     8c2:	f857 3b04 	ldr.w	r3, [r7], #4
     8c6:	930f      	str	r3, [sp, #60]	; 0x3c
     8c8:	2b00      	cmp	r3, #0
     8ca:	da91      	bge.n	7f0 <kprintf.constprop.0+0xb8>
/home/frank/TrustSQLite/stm32mp1-openstlinux-5.10-dunfell-mp1-21-11-17/sources/arm-ostl-linux-gnueabi/optee-os-stm32mp-3.12.0-stm32mp-r2-r0/optee-os-stm32mp-3.12.0-stm32mp-r2/lib/libutils/ext/snprintk.c:319
     8cc:	425b      	negs	r3, r3
     8ce:	930f      	str	r3, [sp, #60]	; 0x3c
/home/frank/TrustSQLite/stm32mp1-openstlinux-5.10-dunfell-mp1-21-11-17/sources/arm-ostl-linux-gnueabi/optee-os-stm32mp-3.12.0-stm32mp-r2-r0/optee-os-stm32mp-3.12.0-stm32mp-r2/lib/libutils/ext/snprintk.c:317
     8d0:	463b      	mov	r3, r7
/home/frank/TrustSQLite/stm32mp1-openstlinux-5.10-dunfell-mp1-21-11-17/sources/arm-ostl-linux-gnueabi/optee-os-stm32mp-3.12.0-stm32mp-r2-r0/optee-os-stm32mp-3.12.0-stm32mp-r2/lib/libutils/ext/snprintk.c:322
     8d2:	f046 0604 	orr.w	r6, r6, #4
/home/frank/TrustSQLite/stm32mp1-openstlinux-5.10-dunfell-mp1-21-11-17/sources/arm-ostl-linux-gnueabi/optee-os-stm32mp-3.12.0-stm32mp-r2-r0/optee-os-stm32mp-3.12.0-stm32mp-r2/lib/libutils/ext/snprintk.c:323
     8d6:	e789      	b.n	7ec <kprintf.constprop.0+0xb4>
/home/frank/TrustSQLite/stm32mp1-openstlinux-5.10-dunfell-mp1-21-11-17/sources/arm-ostl-linux-gnueabi/optee-os-stm32mp-3.12.0-stm32mp-r2-r0/optee-os-stm32mp-3.12.0-stm32mp-r2/lib/libutils/ext/snprintk.c:328
     8d8:	980b      	ldr	r0, [sp, #44]	; 0x2c
     8da:	f810 2b01 	ldrb.w	r2, [r0], #1
     8de:	920c      	str	r2, [sp, #48]	; 0x30
     8e0:	2a2a      	cmp	r2, #42	; 0x2a
     8e2:	d113      	bne.n	90c <kprintf.constprop.0+0x1d4>
     8e4:	900b      	str	r0, [sp, #44]	; 0x2c
/home/frank/TrustSQLite/stm32mp1-openstlinux-5.10-dunfell-mp1-21-11-17/sources/arm-ostl-linux-gnueabi/optee-os-stm32mp-3.12.0-stm32mp-r2-r0/optee-os-stm32mp-3.12.0-stm32mp-r2/lib/libutils/ext/snprintk.c:329
     8e6:	461f      	mov	r7, r3
/home/frank/TrustSQLite/stm32mp1-openstlinux-5.10-dunfell-mp1-21-11-17/sources/arm-ostl-linux-gnueabi/optee-os-stm32mp-3.12.0-stm32mp-r2-r0/optee-os-stm32mp-3.12.0-stm32mp-r2/lib/libutils/ext/snprintk.c:330
     8e8:	f857 3b04 	ldr.w	r3, [r7], #4
     8ec:	ea43 7be3 	orr.w	fp, r3, r3, asr #31
/home/frank/TrustSQLite/stm32mp1-openstlinux-5.10-dunfell-mp1-21-11-17/sources/arm-ostl-linux-gnueabi/optee-os-stm32mp-3.12.0-stm32mp-r2-r0/optee-os-stm32mp-3.12.0-stm32mp-r2/lib/libutils/ext/snprintk.c:329
     8f0:	463b      	mov	r3, r7
/home/frank/TrustSQLite/stm32mp1-openstlinux-5.10-dunfell-mp1-21-11-17/sources/arm-ostl-linux-gnueabi/optee-os-stm32mp-3.12.0-stm32mp-r2-r0/optee-os-stm32mp-3.12.0-stm32mp-r2/lib/libutils/ext/snprintk.c:331
     8f2:	e77b      	b.n	7ec <kprintf.constprop.0+0xb4>
/home/frank/TrustSQLite/stm32mp1-openstlinux-5.10-dunfell-mp1-21-11-17/sources/arm-ostl-linux-gnueabi/optee-os-stm32mp-3.12.0-stm32mp-r2-r0/optee-os-stm32mp-3.12.0-stm32mp-r2/lib/libutils/ext/snprintk.c:335
     8f4:	210a      	movs	r1, #10
     8f6:	fb01 2b0b 	mla	fp, r1, fp, r2
/home/frank/TrustSQLite/stm32mp1-openstlinux-5.10-dunfell-mp1-21-11-17/sources/arm-ostl-linux-gnueabi/optee-os-stm32mp-3.12.0-stm32mp-r2-r0/optee-os-stm32mp-3.12.0-stm32mp-r2/lib/libutils/ext/snprintk.c:336
     8fa:	f810 2b01 	ldrb.w	r2, [r0], #1
     8fe:	920c      	str	r2, [sp, #48]	; 0x30
/home/frank/TrustSQLite/stm32mp1-openstlinux-5.10-dunfell-mp1-21-11-17/sources/arm-ostl-linux-gnueabi/optee-os-stm32mp-3.12.0-stm32mp-r2-r0/optee-os-stm32mp-3.12.0-stm32mp-r2/lib/libutils/ext/snprintk.c:334
     900:	9a0c      	ldr	r2, [sp, #48]	; 0x30
     902:	3a30      	subs	r2, #48	; 0x30
     904:	2a09      	cmp	r2, #9
     906:	d9f5      	bls.n	8f4 <kprintf.constprop.0+0x1bc>
/home/frank/TrustSQLite/stm32mp1-openstlinux-5.10-dunfell-mp1-21-11-17/sources/arm-ostl-linux-gnueabi/optee-os-stm32mp-3.12.0-stm32mp-r2-r0/optee-os-stm32mp-3.12.0-stm32mp-r2/lib/libutils/ext/snprintk.c:290
     908:	900b      	str	r0, [sp, #44]	; 0x2c
     90a:	e754      	b.n	7b6 <kprintf.constprop.0+0x7e>
/home/frank/TrustSQLite/stm32mp1-openstlinux-5.10-dunfell-mp1-21-11-17/sources/arm-ostl-linux-gnueabi/optee-os-stm32mp-3.12.0-stm32mp-r2-r0/optee-os-stm32mp-3.12.0-stm32mp-r2/lib/libutils/ext/snprintk.c:333
     90c:	f04f 0b00 	mov.w	fp, #0
     910:	e7f6      	b.n	900 <kprintf.constprop.0+0x1c8>
/home/frank/TrustSQLite/stm32mp1-openstlinux-5.10-dunfell-mp1-21-11-17/sources/arm-ostl-linux-gnueabi/optee-os-stm32mp-3.12.0-stm32mp-r2-r0/optee-os-stm32mp-3.12.0-stm32mp-r2/lib/libutils/ext/snprintk.c:346
     912:	f446 6680 	orr.w	r6, r6, #1024	; 0x400
/home/frank/TrustSQLite/stm32mp1-openstlinux-5.10-dunfell-mp1-21-11-17/sources/arm-ostl-linux-gnueabi/optee-os-stm32mp-3.12.0-stm32mp-r2-r0/optee-os-stm32mp-3.12.0-stm32mp-r2/lib/libutils/ext/snprintk.c:347
     916:	e769      	b.n	7ec <kprintf.constprop.0+0xb4>
/home/frank/TrustSQLite/stm32mp1-openstlinux-5.10-dunfell-mp1-21-11-17/sources/arm-ostl-linux-gnueabi/optee-os-stm32mp-3.12.0-stm32mp-r2-r0/optee-os-stm32mp-3.12.0-stm32mp-r2/lib/libutils/ext/snprintk.c:297
     918:	980b      	ldr	r0, [sp, #44]	; 0x2c
     91a:	2200      	movs	r2, #0
     91c:	920f      	str	r2, [sp, #60]	; 0x3c
/home/frank/TrustSQLite/stm32mp1-openstlinux-5.10-dunfell-mp1-21-11-17/sources/arm-ostl-linux-gnueabi/optee-os-stm32mp-3.12.0-stm32mp-r2-r0/optee-os-stm32mp-3.12.0-stm32mp-r2/lib/libutils/ext/snprintk.c:352
     91e:	9a0c      	ldr	r2, [sp, #48]	; 0x30
     920:	240a      	movs	r4, #10
     922:	990f      	ldr	r1, [sp, #60]	; 0x3c
     924:	3a30      	subs	r2, #48	; 0x30
     926:	fb04 2201 	mla	r2, r4, r1, r2
     92a:	920f      	str	r2, [sp, #60]	; 0x3c
/home/frank/TrustSQLite/stm32mp1-openstlinux-5.10-dunfell-mp1-21-11-17/sources/arm-ostl-linux-gnueabi/optee-os-stm32mp-3.12.0-stm32mp-r2-r0/optee-os-stm32mp-3.12.0-stm32mp-r2/lib/libutils/ext/snprintk.c:353
     92c:	f810 2b01 	ldrb.w	r2, [r0], #1
     930:	920c      	str	r2, [sp, #48]	; 0x30
/home/frank/TrustSQLite/stm32mp1-openstlinux-5.10-dunfell-mp1-21-11-17/sources/arm-ostl-linux-gnueabi/optee-os-stm32mp-3.12.0-stm32mp-r2-r0/optee-os-stm32mp-3.12.0-stm32mp-r2/lib/libutils/ext/snprintk.c:354
     932:	3a30      	subs	r2, #48	; 0x30
     934:	2a09      	cmp	r2, #9
     936:	d9f2      	bls.n	91e <kprintf.constprop.0+0x1e6>
     938:	e7e6      	b.n	908 <kprintf.constprop.0+0x1d0>
/home/frank/TrustSQLite/stm32mp1-openstlinux-5.10-dunfell-mp1-21-11-17/sources/arm-ostl-linux-gnueabi/optee-os-stm32mp-3.12.0-stm32mp-r2-r0/optee-os-stm32mp-3.12.0-stm32mp-r2/lib/libutils/ext/snprintk.c:358
     93a:	f046 0640 	orr.w	r6, r6, #64	; 0x40
/home/frank/TrustSQLite/stm32mp1-openstlinux-5.10-dunfell-mp1-21-11-17/sources/arm-ostl-linux-gnueabi/optee-os-stm32mp-3.12.0-stm32mp-r2-r0/optee-os-stm32mp-3.12.0-stm32mp-r2/lib/libutils/ext/snprintk.c:359
     93e:	e755      	b.n	7ec <kprintf.constprop.0+0xb4>
/home/frank/TrustSQLite/stm32mp1-openstlinux-5.10-dunfell-mp1-21-11-17/sources/arm-ostl-linux-gnueabi/optee-os-stm32mp-3.12.0-stm32mp-r2-r0/optee-os-stm32mp-3.12.0-stm32mp-r2/lib/libutils/ext/snprintk.c:361
     940:	f046 0680 	orr.w	r6, r6, #128	; 0x80
/home/frank/TrustSQLite/stm32mp1-openstlinux-5.10-dunfell-mp1-21-11-17/sources/arm-ostl-linux-gnueabi/optee-os-stm32mp-3.12.0-stm32mp-r2-r0/optee-os-stm32mp-3.12.0-stm32mp-r2/lib/libutils/ext/snprintk.c:362
     944:	e752      	b.n	7ec <kprintf.constprop.0+0xb4>
/home/frank/TrustSQLite/stm32mp1-openstlinux-5.10-dunfell-mp1-21-11-17/sources/arm-ostl-linux-gnueabi/optee-os-stm32mp-3.12.0-stm32mp-r2-r0/optee-os-stm32mp-3.12.0-stm32mp-r2/lib/libutils/ext/snprintk.c:364
     946:	9a0b      	ldr	r2, [sp, #44]	; 0x2c
     948:	7812      	ldrb	r2, [r2, #0]
     94a:	2a6c      	cmp	r2, #108	; 0x6c
     94c:	d105      	bne.n	95a <kprintf.constprop.0+0x222>
     94e:	9a0b      	ldr	r2, [sp, #44]	; 0x2c
     950:	3201      	adds	r2, #1
     952:	920b      	str	r2, [sp, #44]	; 0x2c
/home/frank/TrustSQLite/stm32mp1-openstlinux-5.10-dunfell-mp1-21-11-17/sources/arm-ostl-linux-gnueabi/optee-os-stm32mp-3.12.0-stm32mp-r2-r0/optee-os-stm32mp-3.12.0-stm32mp-r2/lib/libutils/ext/snprintk.c:372
     954:	f046 0620 	orr.w	r6, r6, #32
/home/frank/TrustSQLite/stm32mp1-openstlinux-5.10-dunfell-mp1-21-11-17/sources/arm-ostl-linux-gnueabi/optee-os-stm32mp-3.12.0-stm32mp-r2-r0/optee-os-stm32mp-3.12.0-stm32mp-r2/lib/libutils/ext/snprintk.c:373
     958:	e748      	b.n	7ec <kprintf.constprop.0+0xb4>
/home/frank/TrustSQLite/stm32mp1-openstlinux-5.10-dunfell-mp1-21-11-17/sources/arm-ostl-linux-gnueabi/optee-os-stm32mp-3.12.0-stm32mp-r2-r0/optee-os-stm32mp-3.12.0-stm32mp-r2/lib/libutils/ext/snprintk.c:368
     95a:	f046 0610 	orr.w	r6, r6, #16
     95e:	e745      	b.n	7ec <kprintf.constprop.0+0xb4>
/home/frank/TrustSQLite/stm32mp1-openstlinux-5.10-dunfell-mp1-21-11-17/sources/arm-ostl-linux-gnueabi/optee-os-stm32mp-3.12.0-stm32mp-r2-r0/optee-os-stm32mp-3.12.0-stm32mp-r2/lib/libutils/ext/snprintk.c:375
     960:	f446 7680 	orr.w	r6, r6, #256	; 0x100
/home/frank/TrustSQLite/stm32mp1-openstlinux-5.10-dunfell-mp1-21-11-17/sources/arm-ostl-linux-gnueabi/optee-os-stm32mp-3.12.0-stm32mp-r2-r0/optee-os-stm32mp-3.12.0-stm32mp-r2/lib/libutils/ext/snprintk.c:376
     964:	e742      	b.n	7ec <kprintf.constprop.0+0xb4>
/home/frank/TrustSQLite/stm32mp1-openstlinux-5.10-dunfell-mp1-21-11-17/sources/arm-ostl-linux-gnueabi/optee-os-stm32mp-3.12.0-stm32mp-r2-r0/optee-os-stm32mp-3.12.0-stm32mp-r2/lib/libutils/ext/snprintk.c:378
     966:	f446 7600 	orr.w	r6, r6, #512	; 0x200
/home/frank/TrustSQLite/stm32mp1-openstlinux-5.10-dunfell-mp1-21-11-17/sources/arm-ostl-linux-gnueabi/optee-os-stm32mp-3.12.0-stm32mp-r2-r0/optee-os-stm32mp-3.12.0-stm32mp-r2/lib/libutils/ext/snprintk.c:379
     96a:	e73f      	b.n	7ec <kprintf.constprop.0+0xb4>
/home/frank/TrustSQLite/stm32mp1-openstlinux-5.10-dunfell-mp1-21-11-17/sources/arm-ostl-linux-gnueabi/optee-os-stm32mp-3.12.0-stm32mp-r2-r0/optee-os-stm32mp-3.12.0-stm32mp-r2/lib/libutils/ext/snprintk.c:381
     96c:	461f      	mov	r7, r3
     96e:	f857 3b04 	ldr.w	r3, [r7], #4
     972:	f88d 3050 	strb.w	r3, [sp, #80]	; 0x50
/home/frank/TrustSQLite/stm32mp1-openstlinux-5.10-dunfell-mp1-21-11-17/sources/arm-ostl-linux-gnueabi/optee-os-stm32mp-3.12.0-stm32mp-r2-r0/optee-os-stm32mp-3.12.0-stm32mp-r2/lib/libutils/ext/snprintk.c:291
     976:	2000      	movs	r0, #0
/home/frank/TrustSQLite/stm32mp1-openstlinux-5.10-dunfell-mp1-21-11-17/sources/arm-ostl-linux-gnueabi/optee-os-stm32mp-3.12.0-stm32mp-r2-r0/optee-os-stm32mp-3.12.0-stm32mp-r2/lib/libutils/ext/snprintk.c:552
     978:	f04f 0b01 	mov.w	fp, #1
/home/frank/TrustSQLite/stm32mp1-openstlinux-5.10-dunfell-mp1-21-11-17/sources/arm-ostl-linux-gnueabi/optee-os-stm32mp-3.12.0-stm32mp-r2-r0/optee-os-stm32mp-3.12.0-stm32mp-r2/lib/libutils/ext/snprintk.c:553
     97c:	4681      	mov	r9, r0
/home/frank/TrustSQLite/stm32mp1-openstlinux-5.10-dunfell-mp1-21-11-17/sources/arm-ostl-linux-gnueabi/optee-os-stm32mp-3.12.0-stm32mp-r2-r0/optee-os-stm32mp-3.12.0-stm32mp-r2/lib/libutils/ext/snprintk.c:550
     97e:	f10d 0a50 	add.w	sl, sp, #80	; 0x50
/home/frank/TrustSQLite/stm32mp1-openstlinux-5.10-dunfell-mp1-21-11-17/sources/arm-ostl-linux-gnueabi/optee-os-stm32mp-3.12.0-stm32mp-r2-r0/optee-os-stm32mp-3.12.0-stm32mp-r2/lib/libutils/ext/snprintk.c:554
     982:	e03c      	b.n	9fe <kprintf.constprop.0+0x2c6>
/home/frank/TrustSQLite/stm32mp1-openstlinux-5.10-dunfell-mp1-21-11-17/sources/arm-ostl-linux-gnueabi/optee-os-stm32mp-3.12.0-stm32mp-r2-r0/optee-os-stm32mp-3.12.0-stm32mp-r2/lib/libutils/ext/snprintk.c:386
     984:	f046 0610 	orr.w	r6, r6, #16
/home/frank/TrustSQLite/stm32mp1-openstlinux-5.10-dunfell-mp1-21-11-17/sources/arm-ostl-linux-gnueabi/optee-os-stm32mp-3.12.0-stm32mp-r2-r0/optee-os-stm32mp-3.12.0-stm32mp-r2/lib/libutils/ext/snprintk.c:390
     988:	0637      	lsls	r7, r6, #24
     98a:	f140 8087 	bpl.w	a9c <kprintf.constprop.0+0x364>
     98e:	1ddf      	adds	r7, r3, #7
     990:	f027 0707 	bic.w	r7, r7, #7
     994:	e8f7 4502 	ldrd	r4, r5, [r7], #8
/home/frank/TrustSQLite/stm32mp1-openstlinux-5.10-dunfell-mp1-21-11-17/sources/arm-ostl-linux-gnueabi/optee-os-stm32mp-3.12.0-stm32mp-r2-r0/optee-os-stm32mp-3.12.0-stm32mp-r2/lib/libutils/ext/snprintk.c:391
     998:	2c00      	cmp	r4, #0
     99a:	f175 0300 	sbcs.w	r3, r5, #0
     99e:	f280 815c 	bge.w	c5a <kprintf.constprop.0+0x522>
/home/frank/TrustSQLite/stm32mp1-openstlinux-5.10-dunfell-mp1-21-11-17/sources/arm-ostl-linux-gnueabi/optee-os-stm32mp-3.12.0-stm32mp-r2-r0/optee-os-stm32mp-3.12.0-stm32mp-r2/lib/libutils/ext/snprintk.c:392
     9a2:	4264      	negs	r4, r4
/home/frank/TrustSQLite/stm32mp1-openstlinux-5.10-dunfell-mp1-21-11-17/sources/arm-ostl-linux-gnueabi/optee-os-stm32mp-3.12.0-stm32mp-r2-r0/optee-os-stm32mp-3.12.0-stm32mp-r2/lib/libutils/ext/snprintk.c:395
     9a4:	f04f 0301 	mov.w	r3, #1
/home/frank/TrustSQLite/stm32mp1-openstlinux-5.10-dunfell-mp1-21-11-17/sources/arm-ostl-linux-gnueabi/optee-os-stm32mp-3.12.0-stm32mp-r2-r0/optee-os-stm32mp-3.12.0-stm32mp-r2/lib/libutils/ext/snprintk.c:393
     9a8:	f04f 092d 	mov.w	r9, #45	; 0x2d
/home/frank/TrustSQLite/stm32mp1-openstlinux-5.10-dunfell-mp1-21-11-17/sources/arm-ostl-linux-gnueabi/optee-os-stm32mp-3.12.0-stm32mp-r2-r0/optee-os-stm32mp-3.12.0-stm32mp-r2/lib/libutils/ext/snprintk.c:392
     9ac:	eb65 0545 	sbc.w	r5, r5, r5, lsl #1
/home/frank/TrustSQLite/stm32mp1-openstlinux-5.10-dunfell-mp1-21-11-17/sources/arm-ostl-linux-gnueabi/optee-os-stm32mp-3.12.0-stm32mp-r2-r0/optee-os-stm32mp-3.12.0-stm32mp-r2/lib/libutils/ext/snprintk.c:494
     9b0:	f1bb 3fff 	cmp.w	fp, #4294967295	; 0xffffffff
     9b4:	f040 80b7 	bne.w	b26 <kprintf.constprop.0+0x3ee>
/home/frank/TrustSQLite/stm32mp1-openstlinux-5.10-dunfell-mp1-21-11-17/sources/arm-ostl-linux-gnueabi/optee-os-stm32mp-3.12.0-stm32mp-r2-r0/optee-os-stm32mp-3.12.0-stm32mp-r2/lib/libutils/ext/snprintk.c:509
     9b8:	2b01      	cmp	r3, #1
     9ba:	f000 8151 	beq.w	c60 <kprintf.constprop.0+0x528>
     9be:	2b02      	cmp	r3, #2
     9c0:	f000 8111 	beq.w	be6 <kprintf.constprop.0+0x4ae>
/home/frank/TrustSQLite/stm32mp1-openstlinux-5.10-dunfell-mp1-21-11-17/sources/arm-ostl-linux-gnueabi/optee-os-stm32mp-3.12.0-stm32mp-r2-r0/optee-os-stm32mp-3.12.0-stm32mp-r2/lib/libutils/ext/snprintk.c:494
     9c4:	f10d 0a75 	add.w	sl, sp, #117	; 0x75
/home/frank/TrustSQLite/stm32mp1-openstlinux-5.10-dunfell-mp1-21-11-17/sources/arm-ostl-linux-gnueabi/optee-os-stm32mp-3.12.0-stm32mp-r2-r0/optee-os-stm32mp-3.12.0-stm32mp-r2/lib/libutils/ext/snprintk.c:512
     9c8:	f004 0307 	and.w	r3, r4, #7
     9cc:	4652      	mov	r2, sl
/home/frank/TrustSQLite/stm32mp1-openstlinux-5.10-dunfell-mp1-21-11-17/sources/arm-ostl-linux-gnueabi/optee-os-stm32mp-3.12.0-stm32mp-r2-r0/optee-os-stm32mp-3.12.0-stm32mp-r2/lib/libutils/ext/snprintk.c:513
     9ce:	08e4      	lsrs	r4, r4, #3
/home/frank/TrustSQLite/stm32mp1-openstlinux-5.10-dunfell-mp1-21-11-17/sources/arm-ostl-linux-gnueabi/optee-os-stm32mp-3.12.0-stm32mp-r2-r0/optee-os-stm32mp-3.12.0-stm32mp-r2/lib/libutils/ext/snprintk.c:512
     9d0:	3330      	adds	r3, #48	; 0x30
/home/frank/TrustSQLite/stm32mp1-openstlinux-5.10-dunfell-mp1-21-11-17/sources/arm-ostl-linux-gnueabi/optee-os-stm32mp-3.12.0-stm32mp-r2-r0/optee-os-stm32mp-3.12.0-stm32mp-r2/lib/libutils/ext/snprintk.c:513
     9d2:	ea44 7445 	orr.w	r4, r4, r5, lsl #29
     9d6:	08ed      	lsrs	r5, r5, #3
/home/frank/TrustSQLite/stm32mp1-openstlinux-5.10-dunfell-mp1-21-11-17/sources/arm-ostl-linux-gnueabi/optee-os-stm32mp-3.12.0-stm32mp-r2-r0/optee-os-stm32mp-3.12.0-stm32mp-r2/lib/libutils/ext/snprintk.c:514
     9d8:	ea54 0105 	orrs.w	r1, r4, r5
/home/frank/TrustSQLite/stm32mp1-openstlinux-5.10-dunfell-mp1-21-11-17/sources/arm-ostl-linux-gnueabi/optee-os-stm32mp-3.12.0-stm32mp-r2-r0/optee-os-stm32mp-3.12.0-stm32mp-r2/lib/libutils/ext/snprintk.c:512
     9dc:	f80a 3d01 	strb.w	r3, [sl, #-1]!
/home/frank/TrustSQLite/stm32mp1-openstlinux-5.10-dunfell-mp1-21-11-17/sources/arm-ostl-linux-gnueabi/optee-os-stm32mp-3.12.0-stm32mp-r2-r0/optee-os-stm32mp-3.12.0-stm32mp-r2/lib/libutils/ext/snprintk.c:514
     9e0:	d1f2      	bne.n	9c8 <kprintf.constprop.0+0x290>
/home/frank/TrustSQLite/stm32mp1-openstlinux-5.10-dunfell-mp1-21-11-17/sources/arm-ostl-linux-gnueabi/optee-os-stm32mp-3.12.0-stm32mp-r2-r0/optee-os-stm32mp-3.12.0-stm32mp-r2/lib/libutils/ext/snprintk.c:516
     9e2:	07f5      	lsls	r5, r6, #31
     9e4:	d506      	bpl.n	9f4 <kprintf.constprop.0+0x2bc>
     9e6:	2b30      	cmp	r3, #48	; 0x30
     9e8:	d004      	beq.n	9f4 <kprintf.constprop.0+0x2bc>
/home/frank/TrustSQLite/stm32mp1-openstlinux-5.10-dunfell-mp1-21-11-17/sources/arm-ostl-linux-gnueabi/optee-os-stm32mp-3.12.0-stm32mp-r2-r0/optee-os-stm32mp-3.12.0-stm32mp-r2/lib/libutils/ext/snprintk.c:517
     9ea:	2330      	movs	r3, #48	; 0x30
     9ec:	f80a 3c01 	strb.w	r3, [sl, #-1]
     9f0:	f1a2 0a02 	sub.w	sl, r2, #2
/home/frank/TrustSQLite/stm32mp1-openstlinux-5.10-dunfell-mp1-21-11-17/sources/arm-ostl-linux-gnueabi/optee-os-stm32mp-3.12.0-stm32mp-r2-r0/optee-os-stm32mp-3.12.0-stm32mp-r2/lib/libutils/ext/snprintk.c:543
     9f4:	f10d 0375 	add.w	r3, sp, #117	; 0x75
     9f8:	4658      	mov	r0, fp
     9fa:	eba3 0b0a 	sub.w	fp, r3, sl
/home/frank/TrustSQLite/stm32mp1-openstlinux-5.10-dunfell-mp1-21-11-17/sources/arm-ostl-linux-gnueabi/optee-os-stm32mp-3.12.0-stm32mp-r2-r0/optee-os-stm32mp-3.12.0-stm32mp-r2/lib/libutils/ext/snprintk.c:571
     9fe:	4558      	cmp	r0, fp
     a00:	4603      	mov	r3, r0
     a02:	bfb8      	it	lt
     a04:	465b      	movlt	r3, fp
/home/frank/TrustSQLite/stm32mp1-openstlinux-5.10-dunfell-mp1-21-11-17/sources/arm-ostl-linux-gnueabi/optee-os-stm32mp-3.12.0-stm32mp-r2-r0/optee-os-stm32mp-3.12.0-stm32mp-r2/lib/libutils/ext/snprintk.c:572
     a06:	f1b9 0f00 	cmp.w	r9, #0
     a0a:	f000 818d 	beq.w	d28 <kprintf.constprop.0+0x5f0>
/home/frank/TrustSQLite/stm32mp1-openstlinux-5.10-dunfell-mp1-21-11-17/sources/arm-ostl-linux-gnueabi/optee-os-stm32mp-3.12.0-stm32mp-r2-r0/optee-os-stm32mp-3.12.0-stm32mp-r2/lib/libutils/ext/snprintk.c:573
     a0e:	3301      	adds	r3, #1
/home/frank/TrustSQLite/stm32mp1-openstlinux-5.10-dunfell-mp1-21-11-17/sources/arm-ostl-linux-gnueabi/optee-os-stm32mp-3.12.0-stm32mp-r2-r0/optee-os-stm32mp-3.12.0-stm32mp-r2/lib/libutils/ext/snprintk.c:578
     a10:	9a0e      	ldr	r2, [sp, #56]	; 0x38
     a12:	990f      	ldr	r1, [sp, #60]	; 0x3c
     a14:	428b      	cmp	r3, r1
     a16:	bfac      	ite	ge
     a18:	18d2      	addge	r2, r2, r3
     a1a:	1852      	addlt	r2, r2, r1
     a1c:	920e      	str	r2, [sp, #56]	; 0x38
/home/frank/TrustSQLite/stm32mp1-openstlinux-5.10-dunfell-mp1-21-11-17/sources/arm-ostl-linux-gnueabi/optee-os-stm32mp-3.12.0-stm32mp-r2-r0/optee-os-stm32mp-3.12.0-stm32mp-r2/lib/libutils/ext/snprintk.c:581
     a1e:	f240 4204 	movw	r2, #1028	; 0x404
     a22:	4032      	ands	r2, r6
     a24:	d104      	bne.n	a30 <kprintf.constprop.0+0x2f8>
/home/frank/TrustSQLite/stm32mp1-openstlinux-5.10-dunfell-mp1-21-11-17/sources/arm-ostl-linux-gnueabi/optee-os-stm32mp-3.12.0-stm32mp-r2-r0/optee-os-stm32mp-3.12.0-stm32mp-r2/lib/libutils/ext/snprintk.c:582
     a26:	1ac9      	subs	r1, r1, r3
/home/frank/TrustSQLite/stm32mp1-openstlinux-5.10-dunfell-mp1-21-11-17/sources/arm-ostl-linux-gnueabi/optee-os-stm32mp-3.12.0-stm32mp-r2-r0/optee-os-stm32mp-3.12.0-stm32mp-r2/lib/libutils/ext/snprintk.c:584
     a28:	2420      	movs	r4, #32
/home/frank/TrustSQLite/stm32mp1-openstlinux-5.10-dunfell-mp1-21-11-17/sources/arm-ostl-linux-gnueabi/optee-os-stm32mp-3.12.0-stm32mp-r2-r0/optee-os-stm32mp-3.12.0-stm32mp-r2/lib/libutils/ext/snprintk.c:583
     a2a:	2900      	cmp	r1, #0
     a2c:	f300 8180 	bgt.w	d30 <kprintf.constprop.0+0x5f8>
/home/frank/TrustSQLite/stm32mp1-openstlinux-5.10-dunfell-mp1-21-11-17/sources/arm-ostl-linux-gnueabi/optee-os-stm32mp-3.12.0-stm32mp-r2-r0/optee-os-stm32mp-3.12.0-stm32mp-r2/lib/libutils/ext/snprintk.c:588
     a30:	f1b9 0f00 	cmp.w	r9, #0
     a34:	f000 8188 	beq.w	d48 <kprintf.constprop.0+0x610>
/home/frank/TrustSQLite/stm32mp1-openstlinux-5.10-dunfell-mp1-21-11-17/sources/arm-ostl-linux-gnueabi/optee-os-stm32mp-3.12.0-stm32mp-r2-r0/optee-os-stm32mp-3.12.0-stm32mp-r2/lib/libutils/ext/snprintk.c:589
     a38:	f1b8 0f00 	cmp.w	r8, #0
     a3c:	d006      	beq.n	a4c <kprintf.constprop.0+0x314>
     a3e:	990d      	ldr	r1, [sp, #52]	; 0x34
     a40:	b111      	cbz	r1, a48 <kprintf.constprop.0+0x310>
     a42:	9910      	ldr	r1, [sp, #64]	; 0x40
     a44:	4541      	cmp	r1, r8
     a46:	d901      	bls.n	a4c <kprintf.constprop.0+0x314>
     a48:	f808 9b01 	strb.w	r9, [r8], #1
/home/frank/TrustSQLite/stm32mp1-openstlinux-5.10-dunfell-mp1-21-11-17/sources/arm-ostl-linux-gnueabi/optee-os-stm32mp-3.12.0-stm32mp-r2-r0/optee-os-stm32mp-3.12.0-stm32mp-r2/lib/libutils/ext/snprintk.c:596
     a4c:	f5b2 6f80 	cmp.w	r2, #1024	; 0x400
     a50:	d105      	bne.n	a5e <kprintf.constprop.0+0x326>
/home/frank/TrustSQLite/stm32mp1-openstlinux-5.10-dunfell-mp1-21-11-17/sources/arm-ostl-linux-gnueabi/optee-os-stm32mp-3.12.0-stm32mp-r2-r0/optee-os-stm32mp-3.12.0-stm32mp-r2/lib/libutils/ext/snprintk.c:597
     a52:	9a0f      	ldr	r2, [sp, #60]	; 0x3c
     a54:	1ad1      	subs	r1, r2, r3
/home/frank/TrustSQLite/stm32mp1-openstlinux-5.10-dunfell-mp1-21-11-17/sources/arm-ostl-linux-gnueabi/optee-os-stm32mp-3.12.0-stm32mp-r2-r0/optee-os-stm32mp-3.12.0-stm32mp-r2/lib/libutils/ext/snprintk.c:599
     a56:	2230      	movs	r2, #48	; 0x30
/home/frank/TrustSQLite/stm32mp1-openstlinux-5.10-dunfell-mp1-21-11-17/sources/arm-ostl-linux-gnueabi/optee-os-stm32mp-3.12.0-stm32mp-r2-r0/optee-os-stm32mp-3.12.0-stm32mp-r2/lib/libutils/ext/snprintk.c:598
     a58:	2900      	cmp	r1, #0
     a5a:	f300 8194 	bgt.w	d86 <kprintf.constprop.0+0x64e>
/home/frank/TrustSQLite/stm32mp1-openstlinux-5.10-dunfell-mp1-21-11-17/sources/arm-ostl-linux-gnueabi/optee-os-stm32mp-3.12.0-stm32mp-r2-r0/optee-os-stm32mp-3.12.0-stm32mp-r2/lib/libutils/ext/snprintk.c:603
     a5e:	eba0 000b 	sub.w	r0, r0, fp
/home/frank/TrustSQLite/stm32mp1-openstlinux-5.10-dunfell-mp1-21-11-17/sources/arm-ostl-linux-gnueabi/optee-os-stm32mp-3.12.0-stm32mp-r2-r0/optee-os-stm32mp-3.12.0-stm32mp-r2/lib/libutils/ext/snprintk.c:605
     a62:	2230      	movs	r2, #48	; 0x30
/home/frank/TrustSQLite/stm32mp1-openstlinux-5.10-dunfell-mp1-21-11-17/sources/arm-ostl-linux-gnueabi/optee-os-stm32mp-3.12.0-stm32mp-r2-r0/optee-os-stm32mp-3.12.0-stm32mp-r2/lib/libutils/ext/snprintk.c:604
     a64:	2800      	cmp	r0, #0
     a66:	f300 819a 	bgt.w	d9e <kprintf.constprop.0+0x666>
     a6a:	2100      	movs	r1, #0
/home/frank/TrustSQLite/stm32mp1-openstlinux-5.10-dunfell-mp1-21-11-17/sources/arm-ostl-linux-gnueabi/optee-os-stm32mp-3.12.0-stm32mp-r2-r0/optee-os-stm32mp-3.12.0-stm32mp-r2/lib/libutils/ext/snprintk.c:608
     a6c:	458b      	cmp	fp, r1
     a6e:	f040 81a2 	bne.w	db6 <kprintf.constprop.0+0x67e>
/home/frank/TrustSQLite/stm32mp1-openstlinux-5.10-dunfell-mp1-21-11-17/sources/arm-ostl-linux-gnueabi/optee-os-stm32mp-3.12.0-stm32mp-r2-r0/optee-os-stm32mp-3.12.0-stm32mp-r2/lib/libutils/ext/snprintk.c:611
     a72:	0772      	lsls	r2, r6, #29
     a74:	f57f ae70 	bpl.w	758 <kprintf.constprop.0+0x20>
/home/frank/TrustSQLite/stm32mp1-openstlinux-5.10-dunfell-mp1-21-11-17/sources/arm-ostl-linux-gnueabi/optee-os-stm32mp-3.12.0-stm32mp-r2-r0/optee-os-stm32mp-3.12.0-stm32mp-r2/lib/libutils/ext/snprintk.c:612
     a78:	9a0f      	ldr	r2, [sp, #60]	; 0x3c
     a7a:	1ad3      	subs	r3, r2, r3
/home/frank/TrustSQLite/stm32mp1-openstlinux-5.10-dunfell-mp1-21-11-17/sources/arm-ostl-linux-gnueabi/optee-os-stm32mp-3.12.0-stm32mp-r2-r0/optee-os-stm32mp-3.12.0-stm32mp-r2/lib/libutils/ext/snprintk.c:614
     a7c:	2220      	movs	r2, #32
/home/frank/TrustSQLite/stm32mp1-openstlinux-5.10-dunfell-mp1-21-11-17/sources/arm-ostl-linux-gnueabi/optee-os-stm32mp-3.12.0-stm32mp-r2-r0/optee-os-stm32mp-3.12.0-stm32mp-r2/lib/libutils/ext/snprintk.c:613
     a7e:	2b00      	cmp	r3, #0
     a80:	f77f ae6a 	ble.w	758 <kprintf.constprop.0+0x20>
/home/frank/TrustSQLite/stm32mp1-openstlinux-5.10-dunfell-mp1-21-11-17/sources/arm-ostl-linux-gnueabi/optee-os-stm32mp-3.12.0-stm32mp-r2-r0/optee-os-stm32mp-3.12.0-stm32mp-r2/lib/libutils/ext/snprintk.c:614
     a84:	f1b8 0f00 	cmp.w	r8, #0
     a88:	d006      	beq.n	a98 <kprintf.constprop.0+0x360>
     a8a:	990d      	ldr	r1, [sp, #52]	; 0x34
     a8c:	b111      	cbz	r1, a94 <kprintf.constprop.0+0x35c>
     a8e:	9910      	ldr	r1, [sp, #64]	; 0x40
     a90:	4541      	cmp	r1, r8
     a92:	d901      	bls.n	a98 <kprintf.constprop.0+0x360>
     a94:	f808 2b01 	strb.w	r2, [r8], #1
     a98:	3b01      	subs	r3, #1
     a9a:	e7f0      	b.n	a7e <kprintf.constprop.0+0x346>
/home/frank/TrustSQLite/stm32mp1-openstlinux-5.10-dunfell-mp1-21-11-17/sources/arm-ostl-linux-gnueabi/optee-os-stm32mp-3.12.0-stm32mp-r2-r0/optee-os-stm32mp-3.12.0-stm32mp-r2/lib/libutils/ext/snprintk.c:390
     a9c:	05f5      	lsls	r5, r6, #23
     a9e:	d504      	bpl.n	aaa <kprintf.constprop.0+0x372>
     aa0:	461f      	mov	r7, r3
     aa2:	f857 4b04 	ldr.w	r4, [r7], #4
     aa6:	17e5      	asrs	r5, r4, #31
     aa8:	e776      	b.n	998 <kprintf.constprop.0+0x260>
     aaa:	05b4      	lsls	r4, r6, #22
     aac:	d4f8      	bmi.n	aa0 <kprintf.constprop.0+0x368>
     aae:	06b0      	lsls	r0, r6, #26
     ab0:	f53f af6d 	bmi.w	98e <kprintf.constprop.0+0x256>
     ab4:	06f1      	lsls	r1, r6, #27
     ab6:	f103 0704 	add.w	r7, r3, #4
     aba:	d501      	bpl.n	ac0 <kprintf.constprop.0+0x388>
     abc:	681c      	ldr	r4, [r3, #0]
     abe:	e7f2      	b.n	aa6 <kprintf.constprop.0+0x36e>
     ac0:	681c      	ldr	r4, [r3, #0]
     ac2:	f016 0f40 	tst.w	r6, #64	; 0x40
     ac6:	bf18      	it	ne
     ac8:	b224      	sxthne	r4, r4
     aca:	e7ec      	b.n	aa6 <kprintf.constprop.0+0x36e>
/home/frank/TrustSQLite/stm32mp1-openstlinux-5.10-dunfell-mp1-21-11-17/sources/arm-ostl-linux-gnueabi/optee-os-stm32mp-3.12.0-stm32mp-r2-r0/optee-os-stm32mp-3.12.0-stm32mp-r2/lib/libutils/ext/snprintk.c:398
     acc:	0632      	lsls	r2, r6, #24
     ace:	461f      	mov	r7, r3
     ad0:	f857 3b04 	ldr.w	r3, [r7], #4
     ad4:	d507      	bpl.n	ae6 <kprintf.constprop.0+0x3ae>
/home/frank/TrustSQLite/stm32mp1-openstlinux-5.10-dunfell-mp1-21-11-17/sources/arm-ostl-linux-gnueabi/optee-os-stm32mp-3.12.0-stm32mp-r2-r0/optee-os-stm32mp-3.12.0-stm32mp-r2/lib/libutils/ext/snprintk.c:405
     ad6:	9a0e      	ldr	r2, [sp, #56]	; 0x38
     ad8:	ee80 2b90 	vdup.32	d16, r2
     adc:	efe0 00b0 	vshr.s64	d16, d16, #32
     ae0:	edc3 0b00 	vstr	d16, [r3]
     ae4:	e638      	b.n	758 <kprintf.constprop.0+0x20>
/home/frank/TrustSQLite/stm32mp1-openstlinux-5.10-dunfell-mp1-21-11-17/sources/arm-ostl-linux-gnueabi/optee-os-stm32mp-3.12.0-stm32mp-r2-r0/optee-os-stm32mp-3.12.0-stm32mp-r2/lib/libutils/ext/snprintk.c:400
     ae6:	05f5      	lsls	r5, r6, #23
     ae8:	d502      	bpl.n	af0 <kprintf.constprop.0+0x3b8>
/home/frank/TrustSQLite/stm32mp1-openstlinux-5.10-dunfell-mp1-21-11-17/sources/arm-ostl-linux-gnueabi/optee-os-stm32mp-3.12.0-stm32mp-r2-r0/optee-os-stm32mp-3.12.0-stm32mp-r2/lib/libutils/ext/snprintk.c:411
     aea:	9a0e      	ldr	r2, [sp, #56]	; 0x38
     aec:	601a      	str	r2, [r3, #0]
     aee:	e633      	b.n	758 <kprintf.constprop.0+0x20>
/home/frank/TrustSQLite/stm32mp1-openstlinux-5.10-dunfell-mp1-21-11-17/sources/arm-ostl-linux-gnueabi/optee-os-stm32mp-3.12.0-stm32mp-r2-r0/optee-os-stm32mp-3.12.0-stm32mp-r2/lib/libutils/ext/snprintk.c:402
     af0:	05b4      	lsls	r4, r6, #22
     af2:	d4fa      	bmi.n	aea <kprintf.constprop.0+0x3b2>
/home/frank/TrustSQLite/stm32mp1-openstlinux-5.10-dunfell-mp1-21-11-17/sources/arm-ostl-linux-gnueabi/optee-os-stm32mp-3.12.0-stm32mp-r2-r0/optee-os-stm32mp-3.12.0-stm32mp-r2/lib/libutils/ext/snprintk.c:404
     af4:	06b0      	lsls	r0, r6, #26
     af6:	d4ee      	bmi.n	ad6 <kprintf.constprop.0+0x39e>
/home/frank/TrustSQLite/stm32mp1-openstlinux-5.10-dunfell-mp1-21-11-17/sources/arm-ostl-linux-gnueabi/optee-os-stm32mp-3.12.0-stm32mp-r2-r0/optee-os-stm32mp-3.12.0-stm32mp-r2/lib/libutils/ext/snprintk.c:406
     af8:	06f1      	lsls	r1, r6, #27
     afa:	d4f6      	bmi.n	aea <kprintf.constprop.0+0x3b2>
/home/frank/TrustSQLite/stm32mp1-openstlinux-5.10-dunfell-mp1-21-11-17/sources/arm-ostl-linux-gnueabi/optee-os-stm32mp-3.12.0-stm32mp-r2-r0/optee-os-stm32mp-3.12.0-stm32mp-r2/lib/libutils/ext/snprintk.c:408
     afc:	0672      	lsls	r2, r6, #25
     afe:	d5f4      	bpl.n	aea <kprintf.constprop.0+0x3b2>
/home/frank/TrustSQLite/stm32mp1-openstlinux-5.10-dunfell-mp1-21-11-17/sources/arm-ostl-linux-gnueabi/optee-os-stm32mp-3.12.0-stm32mp-r2-r0/optee-os-stm32mp-3.12.0-stm32mp-r2/lib/libutils/ext/snprintk.c:409
     b00:	9a0e      	ldr	r2, [sp, #56]	; 0x38
     b02:	801a      	strh	r2, [r3, #0]
     b04:	e628      	b.n	758 <kprintf.constprop.0+0x20>
/home/frank/TrustSQLite/stm32mp1-openstlinux-5.10-dunfell-mp1-21-11-17/sources/arm-ostl-linux-gnueabi/optee-os-stm32mp-3.12.0-stm32mp-r2-r0/optee-os-stm32mp-3.12.0-stm32mp-r2/lib/libutils/ext/snprintk.c:414
     b06:	f046 0610 	orr.w	r6, r6, #16
/home/frank/TrustSQLite/stm32mp1-openstlinux-5.10-dunfell-mp1-21-11-17/sources/arm-ostl-linux-gnueabi/optee-os-stm32mp-3.12.0-stm32mp-r2-r0/optee-os-stm32mp-3.12.0-stm32mp-r2/lib/libutils/ext/snprintk.c:417
     b0a:	0637      	lsls	r7, r6, #24
     b0c:	d518      	bpl.n	b40 <kprintf.constprop.0+0x408>
     b0e:	1ddf      	adds	r7, r3, #7
     b10:	f027 0707 	bic.w	r7, r7, #7
     b14:	e8f7 4502 	ldrd	r4, r5, [r7], #8
/home/frank/TrustSQLite/stm32mp1-openstlinux-5.10-dunfell-mp1-21-11-17/sources/arm-ostl-linux-gnueabi/optee-os-stm32mp-3.12.0-stm32mp-r2-r0/optee-os-stm32mp-3.12.0-stm32mp-r2/lib/libutils/ext/snprintk.c:494
     b18:	f1bb 3fff 	cmp.w	fp, #4294967295	; 0xffffffff
     b1c:	f04f 0900 	mov.w	r9, #0
     b20:	f43f af50 	beq.w	9c4 <kprintf.constprop.0+0x28c>
     b24:	464b      	mov	r3, r9
/home/frank/TrustSQLite/stm32mp1-openstlinux-5.10-dunfell-mp1-21-11-17/sources/arm-ostl-linux-gnueabi/optee-os-stm32mp-3.12.0-stm32mp-r2-r0/optee-os-stm32mp-3.12.0-stm32mp-r2/lib/libutils/ext/snprintk.c:503
     b26:	ea54 0205 	orrs.w	r2, r4, r5
/home/frank/TrustSQLite/stm32mp1-openstlinux-5.10-dunfell-mp1-21-11-17/sources/arm-ostl-linux-gnueabi/optee-os-stm32mp-3.12.0-stm32mp-r2-r0/optee-os-stm32mp-3.12.0-stm32mp-r2/lib/libutils/ext/snprintk.c:495
     b2a:	f426 6680 	bic.w	r6, r6, #1024	; 0x400
/home/frank/TrustSQLite/stm32mp1-openstlinux-5.10-dunfell-mp1-21-11-17/sources/arm-ostl-linux-gnueabi/optee-os-stm32mp-3.12.0-stm32mp-r2-r0/optee-os-stm32mp-3.12.0-stm32mp-r2/lib/libutils/ext/snprintk.c:503
     b2e:	f47f af43 	bne.w	9b8 <kprintf.constprop.0+0x280>
     b32:	f1bb 0f00 	cmp.w	fp, #0
     b36:	f47f af3f 	bne.w	9b8 <kprintf.constprop.0+0x280>
/home/frank/TrustSQLite/stm32mp1-openstlinux-5.10-dunfell-mp1-21-11-17/sources/arm-ostl-linux-gnueabi/optee-os-stm32mp-3.12.0-stm32mp-r2-r0/optee-os-stm32mp-3.12.0-stm32mp-r2/lib/libutils/ext/snprintk.c:502
     b3a:	f10d 0a75 	add.w	sl, sp, #117	; 0x75
     b3e:	e759      	b.n	9f4 <kprintf.constprop.0+0x2bc>
/home/frank/TrustSQLite/stm32mp1-openstlinux-5.10-dunfell-mp1-21-11-17/sources/arm-ostl-linux-gnueabi/optee-os-stm32mp-3.12.0-stm32mp-r2-r0/optee-os-stm32mp-3.12.0-stm32mp-r2/lib/libutils/ext/snprintk.c:417
     b40:	05f5      	lsls	r5, r6, #23
     b42:	d504      	bpl.n	b4e <kprintf.constprop.0+0x416>
     b44:	461f      	mov	r7, r3
     b46:	f857 4b04 	ldr.w	r4, [r7], #4
     b4a:	2500      	movs	r5, #0
     b4c:	e7e4      	b.n	b18 <kprintf.constprop.0+0x3e0>
     b4e:	05b4      	lsls	r4, r6, #22
     b50:	d4f8      	bmi.n	b44 <kprintf.constprop.0+0x40c>
     b52:	06b0      	lsls	r0, r6, #26
     b54:	d4db      	bmi.n	b0e <kprintf.constprop.0+0x3d6>
     b56:	06f1      	lsls	r1, r6, #27
     b58:	f103 0704 	add.w	r7, r3, #4
     b5c:	d501      	bpl.n	b62 <kprintf.constprop.0+0x42a>
     b5e:	681c      	ldr	r4, [r3, #0]
     b60:	e7f3      	b.n	b4a <kprintf.constprop.0+0x412>
     b62:	0672      	lsls	r2, r6, #25
     b64:	d5fb      	bpl.n	b5e <kprintf.constprop.0+0x426>
     b66:	881c      	ldrh	r4, [r3, #0]
     b68:	e7ef      	b.n	b4a <kprintf.constprop.0+0x412>
/home/frank/TrustSQLite/stm32mp1-openstlinux-5.10-dunfell-mp1-21-11-17/sources/arm-ostl-linux-gnueabi/optee-os-stm32mp-3.12.0-stm32mp-r2-r0/optee-os-stm32mp-3.12.0-stm32mp-r2/lib/libutils/ext/snprintk.c:421
     b6a:	461f      	mov	r7, r3
     b6c:	9b13      	ldr	r3, [sp, #76]	; 0x4c
     b6e:	f857 4b04 	ldr.w	r4, [r7], #4
     b72:	2b00      	cmp	r3, #0
     b74:	d029      	beq.n	bca <kprintf.constprop.0+0x492>
     b76:	9b0b      	ldr	r3, [sp, #44]	; 0x2c
     b78:	781b      	ldrb	r3, [r3, #0]
     b7a:	2b55      	cmp	r3, #85	; 0x55
     b7c:	d125      	bne.n	bca <kprintf.constprop.0+0x492>
     b7e:	9b0b      	ldr	r3, [sp, #44]	; 0x2c
     b80:	785b      	ldrb	r3, [r3, #1]
     b82:	2b6c      	cmp	r3, #108	; 0x6c
     b84:	d121      	bne.n	bca <kprintf.constprop.0+0x492>
/home/frank/TrustSQLite/stm32mp1-openstlinux-5.10-dunfell-mp1-21-11-17/sources/arm-ostl-linux-gnueabi/optee-os-stm32mp-3.12.0-stm32mp-r2-r0/optee-os-stm32mp-3.12.0-stm32mp-r2/lib/libutils/ext/snprintk.c:426
     b86:	9b0b      	ldr	r3, [sp, #44]	; 0x2c
uuid2str():
/home/frank/TrustSQLite/stm32mp1-openstlinux-5.10-dunfell-mp1-21-11-17/sources/arm-ostl-linux-gnueabi/optee-os-stm32mp-3.12.0-stm32mp-r2-r0/optee-os-stm32mp-3.12.0-stm32mp-r2/lib/libutils/ext/snprintk.c:229
     b88:	f10d 0a50 	add.w	sl, sp, #80	; 0x50
     b8c:	4a92      	ldr	r2, [pc, #584]	; (dd8 <kprintf.constprop.0+0x6a0>)
     b8e:	2125      	movs	r1, #37	; 0x25
kprintf():
/home/frank/TrustSQLite/stm32mp1-openstlinux-5.10-dunfell-mp1-21-11-17/sources/arm-ostl-linux-gnueabi/optee-os-stm32mp-3.12.0-stm32mp-r2-r0/optee-os-stm32mp-3.12.0-stm32mp-r2/lib/libutils/ext/snprintk.c:426
     b90:	3302      	adds	r3, #2
uuid2str():
/home/frank/TrustSQLite/stm32mp1-openstlinux-5.10-dunfell-mp1-21-11-17/sources/arm-ostl-linux-gnueabi/optee-os-stm32mp-3.12.0-stm32mp-r2-r0/optee-os-stm32mp-3.12.0-stm32mp-r2/lib/libutils/ext/snprintk.c:229
     b92:	4650      	mov	r0, sl
kprintf():
/home/frank/TrustSQLite/stm32mp1-openstlinux-5.10-dunfell-mp1-21-11-17/sources/arm-ostl-linux-gnueabi/optee-os-stm32mp-3.12.0-stm32mp-r2-r0/optee-os-stm32mp-3.12.0-stm32mp-r2/lib/libutils/ext/snprintk.c:426
     b94:	930b      	str	r3, [sp, #44]	; 0x2c
uuid2str():
/home/frank/TrustSQLite/stm32mp1-openstlinux-5.10-dunfell-mp1-21-11-17/sources/arm-ostl-linux-gnueabi/optee-os-stm32mp-3.12.0-stm32mp-r2-r0/optee-os-stm32mp-3.12.0-stm32mp-r2/lib/libutils/ext/snprintk.c:229
     b96:	7be3      	ldrb	r3, [r4, #15]
     b98:	447a      	add	r2, pc
     b9a:	9309      	str	r3, [sp, #36]	; 0x24
     b9c:	7ba3      	ldrb	r3, [r4, #14]
     b9e:	9308      	str	r3, [sp, #32]
     ba0:	7b63      	ldrb	r3, [r4, #13]
     ba2:	9307      	str	r3, [sp, #28]
     ba4:	7b23      	ldrb	r3, [r4, #12]
     ba6:	9306      	str	r3, [sp, #24]
     ba8:	7ae3      	ldrb	r3, [r4, #11]
     baa:	9305      	str	r3, [sp, #20]
     bac:	7aa3      	ldrb	r3, [r4, #10]
     bae:	9304      	str	r3, [sp, #16]
     bb0:	7a63      	ldrb	r3, [r4, #9]
     bb2:	9303      	str	r3, [sp, #12]
     bb4:	7a23      	ldrb	r3, [r4, #8]
     bb6:	9302      	str	r3, [sp, #8]
     bb8:	88e3      	ldrh	r3, [r4, #6]
     bba:	9301      	str	r3, [sp, #4]
     bbc:	88a3      	ldrh	r3, [r4, #4]
     bbe:	9300      	str	r3, [sp, #0]
     bc0:	6823      	ldr	r3, [r4, #0]
     bc2:	f7ff fdac 	bl	71e <snprintk>
kprintf():
/home/frank/TrustSQLite/stm32mp1-openstlinux-5.10-dunfell-mp1-21-11-17/sources/arm-ostl-linux-gnueabi/optee-os-stm32mp-3.12.0-stm32mp-r2-r0/optee-os-stm32mp-3.12.0-stm32mp-r2/lib/libutils/ext/snprintk.c:466
     bc6:	4683      	mov	fp, r0
     bc8:	e034      	b.n	c34 <kprintf.constprop.0+0x4fc>
/home/frank/TrustSQLite/stm32mp1-openstlinux-5.10-dunfell-mp1-21-11-17/sources/arm-ostl-linux-gnueabi/optee-os-stm32mp-3.12.0-stm32mp-r2-r0/optee-os-stm32mp-3.12.0-stm32mp-r2/lib/libutils/ext/snprintk.c:443
     bca:	4b84      	ldr	r3, [pc, #528]	; (ddc <kprintf.constprop.0+0x6a4>)
/home/frank/TrustSQLite/stm32mp1-openstlinux-5.10-dunfell-mp1-21-11-17/sources/arm-ostl-linux-gnueabi/optee-os-stm32mp-3.12.0-stm32mp-r2-r0/optee-os-stm32mp-3.12.0-stm32mp-r2/lib/libutils/ext/snprintk.c:441
     bcc:	2500      	movs	r5, #0
/home/frank/TrustSQLite/stm32mp1-openstlinux-5.10-dunfell-mp1-21-11-17/sources/arm-ostl-linux-gnueabi/optee-os-stm32mp-3.12.0-stm32mp-r2-r0/optee-os-stm32mp-3.12.0-stm32mp-r2/lib/libutils/ext/snprintk.c:444
     bce:	f046 0602 	orr.w	r6, r6, #2
/home/frank/TrustSQLite/stm32mp1-openstlinux-5.10-dunfell-mp1-21-11-17/sources/arm-ostl-linux-gnueabi/optee-os-stm32mp-3.12.0-stm32mp-r2-r0/optee-os-stm32mp-3.12.0-stm32mp-r2/lib/libutils/ext/snprintk.c:443
     bd2:	447b      	add	r3, pc
     bd4:	3311      	adds	r3, #17
     bd6:	9311      	str	r3, [sp, #68]	; 0x44
/home/frank/TrustSQLite/stm32mp1-openstlinux-5.10-dunfell-mp1-21-11-17/sources/arm-ostl-linux-gnueabi/optee-os-stm32mp-3.12.0-stm32mp-r2-r0/optee-os-stm32mp-3.12.0-stm32mp-r2/lib/libutils/ext/snprintk.c:445
     bd8:	2378      	movs	r3, #120	; 0x78
     bda:	930c      	str	r3, [sp, #48]	; 0x30
/home/frank/TrustSQLite/stm32mp1-openstlinux-5.10-dunfell-mp1-21-11-17/sources/arm-ostl-linux-gnueabi/optee-os-stm32mp-3.12.0-stm32mp-r2-r0/optee-os-stm32mp-3.12.0-stm32mp-r2/lib/libutils/ext/snprintk.c:494
     bdc:	f1bb 3fff 	cmp.w	fp, #4294967295	; 0xffffffff
     be0:	f04f 0900 	mov.w	r9, #0
     be4:	d178      	bne.n	cd8 <kprintf.constprop.0+0x5a0>
     be6:	f10d 0a75 	add.w	sl, sp, #117	; 0x75
/home/frank/TrustSQLite/stm32mp1-openstlinux-5.10-dunfell-mp1-21-11-17/sources/arm-ostl-linux-gnueabi/optee-os-stm32mp-3.12.0-stm32mp-r2-r0/optee-os-stm32mp-3.12.0-stm32mp-r2/lib/libutils/ext/snprintk.c:531
     bea:	9a11      	ldr	r2, [sp, #68]	; 0x44
     bec:	f004 030f 	and.w	r3, r4, #15
/home/frank/TrustSQLite/stm32mp1-openstlinux-5.10-dunfell-mp1-21-11-17/sources/arm-ostl-linux-gnueabi/optee-os-stm32mp-3.12.0-stm32mp-r2-r0/optee-os-stm32mp-3.12.0-stm32mp-r2/lib/libutils/ext/snprintk.c:532
     bf0:	0924      	lsrs	r4, r4, #4
/home/frank/TrustSQLite/stm32mp1-openstlinux-5.10-dunfell-mp1-21-11-17/sources/arm-ostl-linux-gnueabi/optee-os-stm32mp-3.12.0-stm32mp-r2-r0/optee-os-stm32mp-3.12.0-stm32mp-r2/lib/libutils/ext/snprintk.c:531
     bf2:	5cd3      	ldrb	r3, [r2, r3]
/home/frank/TrustSQLite/stm32mp1-openstlinux-5.10-dunfell-mp1-21-11-17/sources/arm-ostl-linux-gnueabi/optee-os-stm32mp-3.12.0-stm32mp-r2-r0/optee-os-stm32mp-3.12.0-stm32mp-r2/lib/libutils/ext/snprintk.c:532
     bf4:	ea44 7405 	orr.w	r4, r4, r5, lsl #28
     bf8:	092d      	lsrs	r5, r5, #4
/home/frank/TrustSQLite/stm32mp1-openstlinux-5.10-dunfell-mp1-21-11-17/sources/arm-ostl-linux-gnueabi/optee-os-stm32mp-3.12.0-stm32mp-r2-r0/optee-os-stm32mp-3.12.0-stm32mp-r2/lib/libutils/ext/snprintk.c:531
     bfa:	f80a 3d01 	strb.w	r3, [sl, #-1]!
/home/frank/TrustSQLite/stm32mp1-openstlinux-5.10-dunfell-mp1-21-11-17/sources/arm-ostl-linux-gnueabi/optee-os-stm32mp-3.12.0-stm32mp-r2-r0/optee-os-stm32mp-3.12.0-stm32mp-r2/lib/libutils/ext/snprintk.c:533
     bfe:	ea54 0305 	orrs.w	r3, r4, r5
     c02:	d1f2      	bne.n	bea <kprintf.constprop.0+0x4b2>
     c04:	e6f6      	b.n	9f4 <kprintf.constprop.0+0x2bc>
/home/frank/TrustSQLite/stm32mp1-openstlinux-5.10-dunfell-mp1-21-11-17/sources/arm-ostl-linux-gnueabi/optee-os-stm32mp-3.12.0-stm32mp-r2-r0/optee-os-stm32mp-3.12.0-stm32mp-r2/lib/libutils/ext/snprintk.c:448
     c06:	461f      	mov	r7, r3
     c08:	f857 ab04 	ldr.w	sl, [r7], #4
     c0c:	f1ba 0f00 	cmp.w	sl, #0
     c10:	d102      	bne.n	c18 <kprintf.constprop.0+0x4e0>
/home/frank/TrustSQLite/stm32mp1-openstlinux-5.10-dunfell-mp1-21-11-17/sources/arm-ostl-linux-gnueabi/optee-os-stm32mp-3.12.0-stm32mp-r2-r0/optee-os-stm32mp-3.12.0-stm32mp-r2/lib/libutils/ext/snprintk.c:450
     c12:	f8df a1cc 	ldr.w	sl, [pc, #460]	; de0 <kprintf.constprop.0+0x6a8>
     c16:	44fa      	add	sl, pc
/home/frank/TrustSQLite/stm32mp1-openstlinux-5.10-dunfell-mp1-21-11-17/sources/arm-ostl-linux-gnueabi/optee-os-stm32mp-3.12.0-stm32mp-r2-r0/optee-os-stm32mp-3.12.0-stm32mp-r2/lib/libutils/ext/snprintk.c:451
     c18:	f1bb 3fff 	cmp.w	fp, #4294967295	; 0xffffffff
     c1c:	d00d      	beq.n	c3a <kprintf.constprop.0+0x502>
/home/frank/TrustSQLite/stm32mp1-openstlinux-5.10-dunfell-mp1-21-11-17/sources/arm-ostl-linux-gnueabi/optee-os-stm32mp-3.12.0-stm32mp-r2-r0/optee-os-stm32mp-3.12.0-stm32mp-r2/lib/libutils/ext/snprintk.c:457
     c1e:	465a      	mov	r2, fp
     c20:	2100      	movs	r1, #0
     c22:	4650      	mov	r0, sl
     c24:	f008 f82f 	bl	8c86 <memchr>
/home/frank/TrustSQLite/stm32mp1-openstlinux-5.10-dunfell-mp1-21-11-17/sources/arm-ostl-linux-gnueabi/optee-os-stm32mp-3.12.0-stm32mp-r2-r0/optee-os-stm32mp-3.12.0-stm32mp-r2/lib/libutils/ext/snprintk.c:459
     c28:	b128      	cbz	r0, c36 <kprintf.constprop.0+0x4fe>
/home/frank/TrustSQLite/stm32mp1-openstlinux-5.10-dunfell-mp1-21-11-17/sources/arm-ostl-linux-gnueabi/optee-os-stm32mp-3.12.0-stm32mp-r2-r0/optee-os-stm32mp-3.12.0-stm32mp-r2/lib/libutils/ext/snprintk.c:460
     c2a:	eba0 000a 	sub.w	r0, r0, sl
     c2e:	4583      	cmp	fp, r0
     c30:	bfa8      	it	ge
     c32:	4683      	movge	fp, r0
/home/frank/TrustSQLite/stm32mp1-openstlinux-5.10-dunfell-mp1-21-11-17/sources/arm-ostl-linux-gnueabi/optee-os-stm32mp-3.12.0-stm32mp-r2-r0/optee-os-stm32mp-3.12.0-stm32mp-r2/lib/libutils/ext/snprintk.c:291
     c34:	2000      	movs	r0, #0
/home/frank/TrustSQLite/stm32mp1-openstlinux-5.10-dunfell-mp1-21-11-17/sources/arm-ostl-linux-gnueabi/optee-os-stm32mp-3.12.0-stm32mp-r2-r0/optee-os-stm32mp-3.12.0-stm32mp-r2/lib/libutils/ext/snprintk.c:467
     c36:	4681      	mov	r9, r0
     c38:	e6e1      	b.n	9fe <kprintf.constprop.0+0x2c6>
/home/frank/TrustSQLite/stm32mp1-openstlinux-5.10-dunfell-mp1-21-11-17/sources/arm-ostl-linux-gnueabi/optee-os-stm32mp-3.12.0-stm32mp-r2-r0/optee-os-stm32mp-3.12.0-stm32mp-r2/lib/libutils/ext/snprintk.c:466
     c3a:	4650      	mov	r0, sl
     c3c:	f008 f831 	bl	8ca2 <strlen>
     c40:	e7c1      	b.n	bc6 <kprintf.constprop.0+0x48e>
/home/frank/TrustSQLite/stm32mp1-openstlinux-5.10-dunfell-mp1-21-11-17/sources/arm-ostl-linux-gnueabi/optee-os-stm32mp-3.12.0-stm32mp-r2-r0/optee-os-stm32mp-3.12.0-stm32mp-r2/lib/libutils/ext/snprintk.c:470
     c42:	f046 0610 	orr.w	r6, r6, #16
/home/frank/TrustSQLite/stm32mp1-openstlinux-5.10-dunfell-mp1-21-11-17/sources/arm-ostl-linux-gnueabi/optee-os-stm32mp-3.12.0-stm32mp-r2-r0/optee-os-stm32mp-3.12.0-stm32mp-r2/lib/libutils/ext/snprintk.c:473
     c46:	f016 0280 	ands.w	r2, r6, #128	; 0x80
     c4a:	d00d      	beq.n	c68 <kprintf.constprop.0+0x530>
     c4c:	1ddf      	adds	r7, r3, #7
     c4e:	f027 0707 	bic.w	r7, r7, #7
     c52:	e8f7 4502 	ldrd	r4, r5, [r7], #8
/home/frank/TrustSQLite/stm32mp1-openstlinux-5.10-dunfell-mp1-21-11-17/sources/arm-ostl-linux-gnueabi/optee-os-stm32mp-3.12.0-stm32mp-r2-r0/optee-os-stm32mp-3.12.0-stm32mp-r2/lib/libutils/ext/snprintk.c:488
     c56:	f04f 0900 	mov.w	r9, #0
/home/frank/TrustSQLite/stm32mp1-openstlinux-5.10-dunfell-mp1-21-11-17/sources/arm-ostl-linux-gnueabi/optee-os-stm32mp-3.12.0-stm32mp-r2-r0/optee-os-stm32mp-3.12.0-stm32mp-r2/lib/libutils/ext/snprintk.c:494
     c5a:	f1bb 3fff 	cmp.w	fp, #4294967295	; 0xffffffff
     c5e:	d13d      	bne.n	cdc <kprintf.constprop.0+0x5a4>
     c60:	f10d 0375 	add.w	r3, sp, #117	; 0x75
     c64:	9312      	str	r3, [sp, #72]	; 0x48
     c66:	e04f      	b.n	d08 <kprintf.constprop.0+0x5d0>
/home/frank/TrustSQLite/stm32mp1-openstlinux-5.10-dunfell-mp1-21-11-17/sources/arm-ostl-linux-gnueabi/optee-os-stm32mp-3.12.0-stm32mp-r2-r0/optee-os-stm32mp-3.12.0-stm32mp-r2/lib/libutils/ext/snprintk.c:473
     c68:	f416 7980 	ands.w	r9, r6, #256	; 0x100
     c6c:	d004      	beq.n	c78 <kprintf.constprop.0+0x540>
     c6e:	461f      	mov	r7, r3
     c70:	f857 4b04 	ldr.w	r4, [r7], #4
     c74:	2500      	movs	r5, #0
     c76:	e7ee      	b.n	c56 <kprintf.constprop.0+0x51e>
     c78:	f416 7200 	ands.w	r2, r6, #512	; 0x200
     c7c:	d004      	beq.n	c88 <kprintf.constprop.0+0x550>
     c7e:	461f      	mov	r7, r3
     c80:	f857 4b04 	ldr.w	r4, [r7], #4
     c84:	2500      	movs	r5, #0
     c86:	e7e8      	b.n	c5a <kprintf.constprop.0+0x522>
     c88:	f016 0920 	ands.w	r9, r6, #32
     c8c:	d1de      	bne.n	c4c <kprintf.constprop.0+0x514>
     c8e:	f016 0210 	ands.w	r2, r6, #16
     c92:	f103 0704 	add.w	r7, r3, #4
     c96:	d001      	beq.n	c9c <kprintf.constprop.0+0x564>
     c98:	681c      	ldr	r4, [r3, #0]
     c9a:	e7f3      	b.n	c84 <kprintf.constprop.0+0x54c>
     c9c:	f016 0940 	ands.w	r9, r6, #64	; 0x40
     ca0:	d0fa      	beq.n	c98 <kprintf.constprop.0+0x560>
     ca2:	881c      	ldrh	r4, [r3, #0]
     ca4:	e7e6      	b.n	c74 <kprintf.constprop.0+0x53c>
/home/frank/TrustSQLite/stm32mp1-openstlinux-5.10-dunfell-mp1-21-11-17/sources/arm-ostl-linux-gnueabi/optee-os-stm32mp-3.12.0-stm32mp-r2-r0/optee-os-stm32mp-3.12.0-stm32mp-r2/lib/libutils/ext/snprintk.c:477
     ca6:	4a4f      	ldr	r2, [pc, #316]	; (de4 <kprintf.constprop.0+0x6ac>)
     ca8:	447a      	add	r2, pc
     caa:	e5e2      	b.n	872 <kprintf.constprop.0+0x13a>
/home/frank/TrustSQLite/stm32mp1-openstlinux-5.10-dunfell-mp1-21-11-17/sources/arm-ostl-linux-gnueabi/optee-os-stm32mp-3.12.0-stm32mp-r2-r0/optee-os-stm32mp-3.12.0-stm32mp-r2/lib/libutils/ext/snprintk.c:481
     cac:	05f5      	lsls	r5, r6, #23
     cae:	d504      	bpl.n	cba <kprintf.constprop.0+0x582>
     cb0:	461f      	mov	r7, r3
     cb2:	f857 4b04 	ldr.w	r4, [r7], #4
     cb6:	2500      	movs	r5, #0
     cb8:	e5e4      	b.n	884 <kprintf.constprop.0+0x14c>
     cba:	05b4      	lsls	r4, r6, #22
     cbc:	d4f8      	bmi.n	cb0 <kprintf.constprop.0+0x578>
     cbe:	06b0      	lsls	r0, r6, #26
     cc0:	f53f addb 	bmi.w	87a <kprintf.constprop.0+0x142>
     cc4:	06f1      	lsls	r1, r6, #27
     cc6:	f103 0704 	add.w	r7, r3, #4
     cca:	d501      	bpl.n	cd0 <kprintf.constprop.0+0x598>
     ccc:	681c      	ldr	r4, [r3, #0]
     cce:	e7f2      	b.n	cb6 <kprintf.constprop.0+0x57e>
     cd0:	0672      	lsls	r2, r6, #25
     cd2:	d5fb      	bpl.n	ccc <kprintf.constprop.0+0x594>
     cd4:	881c      	ldrh	r4, [r3, #0]
     cd6:	e7ee      	b.n	cb6 <kprintf.constprop.0+0x57e>
/home/frank/TrustSQLite/stm32mp1-openstlinux-5.10-dunfell-mp1-21-11-17/sources/arm-ostl-linux-gnueabi/optee-os-stm32mp-3.12.0-stm32mp-r2-r0/optee-os-stm32mp-3.12.0-stm32mp-r2/lib/libutils/ext/snprintk.c:494
     cd8:	2302      	movs	r3, #2
     cda:	e724      	b.n	b26 <kprintf.constprop.0+0x3ee>
     cdc:	2301      	movs	r3, #1
     cde:	e722      	b.n	b26 <kprintf.constprop.0+0x3ee>
/home/frank/TrustSQLite/stm32mp1-openstlinux-5.10-dunfell-mp1-21-11-17/sources/arm-ostl-linux-gnueabi/optee-os-stm32mp-3.12.0-stm32mp-r2-r0/optee-os-stm32mp-3.12.0-stm32mp-r2/lib/libutils/ext/snprintk.c:523
     ce0:	4620      	mov	r0, r4
     ce2:	4629      	mov	r1, r5
     ce4:	220a      	movs	r2, #10
     ce6:	2300      	movs	r3, #0
     ce8:	f000 e896 	blx	e18 <__aeabi_uldivmod>
     cec:	9b12      	ldr	r3, [sp, #72]	; 0x48
     cee:	3230      	adds	r2, #48	; 0x30
/home/frank/TrustSQLite/stm32mp1-openstlinux-5.10-dunfell-mp1-21-11-17/sources/arm-ostl-linux-gnueabi/optee-os-stm32mp-3.12.0-stm32mp-r2-r0/optee-os-stm32mp-3.12.0-stm32mp-r2/lib/libutils/ext/snprintk.c:524
     cf0:	4620      	mov	r0, r4
     cf2:	4629      	mov	r1, r5
/home/frank/TrustSQLite/stm32mp1-openstlinux-5.10-dunfell-mp1-21-11-17/sources/arm-ostl-linux-gnueabi/optee-os-stm32mp-3.12.0-stm32mp-r2-r0/optee-os-stm32mp-3.12.0-stm32mp-r2/lib/libutils/ext/snprintk.c:523
     cf4:	f803 2c01 	strb.w	r2, [r3, #-1]
/home/frank/TrustSQLite/stm32mp1-openstlinux-5.10-dunfell-mp1-21-11-17/sources/arm-ostl-linux-gnueabi/optee-os-stm32mp-3.12.0-stm32mp-r2-r0/optee-os-stm32mp-3.12.0-stm32mp-r2/lib/libutils/ext/snprintk.c:524
     cf8:	220a      	movs	r2, #10
     cfa:	2300      	movs	r3, #0
     cfc:	f000 e88c 	blx	e18 <__aeabi_uldivmod>
     d00:	f8cd a048 	str.w	sl, [sp, #72]	; 0x48
     d04:	4604      	mov	r4, r0
     d06:	460d      	mov	r5, r1
/home/frank/TrustSQLite/stm32mp1-openstlinux-5.10-dunfell-mp1-21-11-17/sources/arm-ostl-linux-gnueabi/optee-os-stm32mp-3.12.0-stm32mp-r2-r0/optee-os-stm32mp-3.12.0-stm32mp-r2/lib/libutils/ext/snprintk.c:522
     d08:	9b12      	ldr	r3, [sp, #72]	; 0x48
     d0a:	2d00      	cmp	r5, #0
     d0c:	bf08      	it	eq
     d0e:	2c0a      	cmpeq	r4, #10
     d10:	f103 3aff 	add.w	sl, r3, #4294967295	; 0xffffffff
     d14:	d2e4      	bcs.n	ce0 <kprintf.constprop.0+0x5a8>
/home/frank/TrustSQLite/stm32mp1-openstlinux-5.10-dunfell-mp1-21-11-17/sources/arm-ostl-linux-gnueabi/optee-os-stm32mp-3.12.0-stm32mp-r2-r0/optee-os-stm32mp-3.12.0-stm32mp-r2/lib/libutils/ext/snprintk.c:526
     d16:	3430      	adds	r4, #48	; 0x30
     d18:	f803 4c01 	strb.w	r4, [r3, #-1]
/home/frank/TrustSQLite/stm32mp1-openstlinux-5.10-dunfell-mp1-21-11-17/sources/arm-ostl-linux-gnueabi/optee-os-stm32mp-3.12.0-stm32mp-r2-r0/optee-os-stm32mp-3.12.0-stm32mp-r2/lib/libutils/ext/snprintk.c:527
     d1c:	e66a      	b.n	9f4 <kprintf.constprop.0+0x2bc>
/home/frank/TrustSQLite/stm32mp1-openstlinux-5.10-dunfell-mp1-21-11-17/sources/arm-ostl-linux-gnueabi/optee-os-stm32mp-3.12.0-stm32mp-r2-r0/optee-os-stm32mp-3.12.0-stm32mp-r2/lib/libutils/ext/snprintk.c:547
     d1e:	9a0c      	ldr	r2, [sp, #48]	; 0x30
     d20:	2a00      	cmp	r2, #0
     d22:	f47f adbf 	bne.w	8a4 <kprintf.constprop.0+0x16c>
     d26:	e51c      	b.n	762 <kprintf.constprop.0+0x2a>
/home/frank/TrustSQLite/stm32mp1-openstlinux-5.10-dunfell-mp1-21-11-17/sources/arm-ostl-linux-gnueabi/optee-os-stm32mp-3.12.0-stm32mp-r2-r0/optee-os-stm32mp-3.12.0-stm32mp-r2/lib/libutils/ext/snprintk.c:574
     d28:	07b4      	lsls	r4, r6, #30
/home/frank/TrustSQLite/stm32mp1-openstlinux-5.10-dunfell-mp1-21-11-17/sources/arm-ostl-linux-gnueabi/optee-os-stm32mp-3.12.0-stm32mp-r2-r0/optee-os-stm32mp-3.12.0-stm32mp-r2/lib/libutils/ext/snprintk.c:575
     d2a:	bf48      	it	mi
     d2c:	3302      	addmi	r3, #2
     d2e:	e66f      	b.n	a10 <kprintf.constprop.0+0x2d8>
/home/frank/TrustSQLite/stm32mp1-openstlinux-5.10-dunfell-mp1-21-11-17/sources/arm-ostl-linux-gnueabi/optee-os-stm32mp-3.12.0-stm32mp-r2-r0/optee-os-stm32mp-3.12.0-stm32mp-r2/lib/libutils/ext/snprintk.c:584
     d30:	f1b8 0f00 	cmp.w	r8, #0
     d34:	d006      	beq.n	d44 <kprintf.constprop.0+0x60c>
     d36:	9d0d      	ldr	r5, [sp, #52]	; 0x34
     d38:	b115      	cbz	r5, d40 <kprintf.constprop.0+0x608>
     d3a:	9d10      	ldr	r5, [sp, #64]	; 0x40
     d3c:	4545      	cmp	r5, r8
     d3e:	d901      	bls.n	d44 <kprintf.constprop.0+0x60c>
     d40:	f808 4b01 	strb.w	r4, [r8], #1
     d44:	3901      	subs	r1, #1
     d46:	e670      	b.n	a2a <kprintf.constprop.0+0x2f2>
/home/frank/TrustSQLite/stm32mp1-openstlinux-5.10-dunfell-mp1-21-11-17/sources/arm-ostl-linux-gnueabi/optee-os-stm32mp-3.12.0-stm32mp-r2-r0/optee-os-stm32mp-3.12.0-stm32mp-r2/lib/libutils/ext/snprintk.c:590
     d48:	07b1      	lsls	r1, r6, #30
     d4a:	f57f ae7f 	bpl.w	a4c <kprintf.constprop.0+0x314>
/home/frank/TrustSQLite/stm32mp1-openstlinux-5.10-dunfell-mp1-21-11-17/sources/arm-ostl-linux-gnueabi/optee-os-stm32mp-3.12.0-stm32mp-r2-r0/optee-os-stm32mp-3.12.0-stm32mp-r2/lib/libutils/ext/snprintk.c:591
     d4e:	f1b8 0f00 	cmp.w	r8, #0
     d52:	f43f ae7b 	beq.w	a4c <kprintf.constprop.0+0x314>
     d56:	990d      	ldr	r1, [sp, #52]	; 0x34
     d58:	b119      	cbz	r1, d62 <kprintf.constprop.0+0x62a>
     d5a:	9910      	ldr	r1, [sp, #64]	; 0x40
     d5c:	4541      	cmp	r1, r8
     d5e:	f67f ae75 	bls.w	a4c <kprintf.constprop.0+0x314>
     d62:	2130      	movs	r1, #48	; 0x30
     d64:	f888 1000 	strb.w	r1, [r8]
/home/frank/TrustSQLite/stm32mp1-openstlinux-5.10-dunfell-mp1-21-11-17/sources/arm-ostl-linux-gnueabi/optee-os-stm32mp-3.12.0-stm32mp-r2-r0/optee-os-stm32mp-3.12.0-stm32mp-r2/lib/libutils/ext/snprintk.c:592
     d68:	990d      	ldr	r1, [sp, #52]	; 0x34
     d6a:	b121      	cbz	r1, d76 <kprintf.constprop.0+0x63e>
     d6c:	9c10      	ldr	r4, [sp, #64]	; 0x40
/home/frank/TrustSQLite/stm32mp1-openstlinux-5.10-dunfell-mp1-21-11-17/sources/arm-ostl-linux-gnueabi/optee-os-stm32mp-3.12.0-stm32mp-r2-r0/optee-os-stm32mp-3.12.0-stm32mp-r2/lib/libutils/ext/snprintk.c:591
     d6e:	f108 0101 	add.w	r1, r8, #1
/home/frank/TrustSQLite/stm32mp1-openstlinux-5.10-dunfell-mp1-21-11-17/sources/arm-ostl-linux-gnueabi/optee-os-stm32mp-3.12.0-stm32mp-r2-r0/optee-os-stm32mp-3.12.0-stm32mp-r2/lib/libutils/ext/snprintk.c:592
     d72:	428c      	cmp	r4, r1
     d74:	d905      	bls.n	d82 <kprintf.constprop.0+0x64a>
     d76:	990c      	ldr	r1, [sp, #48]	; 0x30
     d78:	f108 0802 	add.w	r8, r8, #2
     d7c:	f808 1c01 	strb.w	r1, [r8, #-1]
     d80:	e664      	b.n	a4c <kprintf.constprop.0+0x314>
     d82:	4688      	mov	r8, r1
     d84:	e662      	b.n	a4c <kprintf.constprop.0+0x314>
/home/frank/TrustSQLite/stm32mp1-openstlinux-5.10-dunfell-mp1-21-11-17/sources/arm-ostl-linux-gnueabi/optee-os-stm32mp-3.12.0-stm32mp-r2-r0/optee-os-stm32mp-3.12.0-stm32mp-r2/lib/libutils/ext/snprintk.c:599
     d86:	f1b8 0f00 	cmp.w	r8, #0
     d8a:	d006      	beq.n	d9a <kprintf.constprop.0+0x662>
     d8c:	9c0d      	ldr	r4, [sp, #52]	; 0x34
     d8e:	b114      	cbz	r4, d96 <kprintf.constprop.0+0x65e>
     d90:	9c10      	ldr	r4, [sp, #64]	; 0x40
     d92:	4544      	cmp	r4, r8
     d94:	d901      	bls.n	d9a <kprintf.constprop.0+0x662>
     d96:	f808 2b01 	strb.w	r2, [r8], #1
     d9a:	3901      	subs	r1, #1
     d9c:	e65c      	b.n	a58 <kprintf.constprop.0+0x320>
/home/frank/TrustSQLite/stm32mp1-openstlinux-5.10-dunfell-mp1-21-11-17/sources/arm-ostl-linux-gnueabi/optee-os-stm32mp-3.12.0-stm32mp-r2-r0/optee-os-stm32mp-3.12.0-stm32mp-r2/lib/libutils/ext/snprintk.c:605
     d9e:	f1b8 0f00 	cmp.w	r8, #0
     da2:	d006      	beq.n	db2 <kprintf.constprop.0+0x67a>
     da4:	990d      	ldr	r1, [sp, #52]	; 0x34
     da6:	b111      	cbz	r1, dae <kprintf.constprop.0+0x676>
     da8:	9910      	ldr	r1, [sp, #64]	; 0x40
     daa:	4541      	cmp	r1, r8
     dac:	d901      	bls.n	db2 <kprintf.constprop.0+0x67a>
     dae:	f808 2b01 	strb.w	r2, [r8], #1
     db2:	3801      	subs	r0, #1
     db4:	e656      	b.n	a64 <kprintf.constprop.0+0x32c>
/home/frank/TrustSQLite/stm32mp1-openstlinux-5.10-dunfell-mp1-21-11-17/sources/arm-ostl-linux-gnueabi/optee-os-stm32mp-3.12.0-stm32mp-r2-r0/optee-os-stm32mp-3.12.0-stm32mp-r2/lib/libutils/ext/snprintk.c:609
     db6:	f1b8 0f00 	cmp.w	r8, #0
     dba:	d008      	beq.n	dce <kprintf.constprop.0+0x696>
     dbc:	9a0d      	ldr	r2, [sp, #52]	; 0x34
     dbe:	b112      	cbz	r2, dc6 <kprintf.constprop.0+0x68e>
     dc0:	9a10      	ldr	r2, [sp, #64]	; 0x40
     dc2:	4542      	cmp	r2, r8
     dc4:	d903      	bls.n	dce <kprintf.constprop.0+0x696>
     dc6:	f81a 2001 	ldrb.w	r2, [sl, r1]
     dca:	f808 2b01 	strb.w	r2, [r8], #1
/home/frank/TrustSQLite/stm32mp1-openstlinux-5.10-dunfell-mp1-21-11-17/sources/arm-ostl-linux-gnueabi/optee-os-stm32mp-3.12.0-stm32mp-r2-r0/optee-os-stm32mp-3.12.0-stm32mp-r2/lib/libutils/ext/snprintk.c:608
     dce:	3101      	adds	r1, #1
     dd0:	e64c      	b.n	a6c <kprintf.constprop.0+0x334>
     dd2:	bf00      	nop
     dd4:	00008d57 	.word	0x00008d57
     dd8:	000089fc 	.word	0x000089fc
     ddc:	000089f3 	.word	0x000089f3
     de0:	00008977 	.word	0x00008977
     de4:	0000891d 	.word	0x0000891d

00000de8 <__vsprintf>:
__vsprintf():
/home/frank/TrustSQLite/stm32mp1-openstlinux-5.10-dunfell-mp1-21-11-17/sources/arm-ostl-linux-gnueabi/optee-os-stm32mp-3.12.0-stm32mp-r2-r0/optee-os-stm32mp-3.12.0-stm32mp-r2/lib/libutils/ext/snprintk.c:155
     de8:	b513      	push	{r0, r1, r4, lr}
     dea:	4604      	mov	r4, r0
     dec:	4608      	mov	r0, r1
/home/frank/TrustSQLite/stm32mp1-openstlinux-5.10-dunfell-mp1-21-11-17/sources/arm-ostl-linux-gnueabi/optee-os-stm32mp-3.12.0-stm32mp-r2-r0/optee-os-stm32mp-3.12.0-stm32mp-r2/lib/libutils/ext/snprintk.c:156
     dee:	2100      	movs	r1, #0
     df0:	9100      	str	r1, [sp, #0]
/home/frank/TrustSQLite/stm32mp1-openstlinux-5.10-dunfell-mp1-21-11-17/sources/arm-ostl-linux-gnueabi/optee-os-stm32mp-3.12.0-stm32mp-r2-r0/optee-os-stm32mp-3.12.0-stm32mp-r2/lib/libutils/ext/snprintk.c:155
     df2:	4613      	mov	r3, r2
/home/frank/TrustSQLite/stm32mp1-openstlinux-5.10-dunfell-mp1-21-11-17/sources/arm-ostl-linux-gnueabi/optee-os-stm32mp-3.12.0-stm32mp-r2-r0/optee-os-stm32mp-3.12.0-stm32mp-r2/lib/libutils/ext/snprintk.c:156
     df4:	4622      	mov	r2, r4
     df6:	f7ff fc9f 	bl	738 <kprintf.constprop.0>
/home/frank/TrustSQLite/stm32mp1-openstlinux-5.10-dunfell-mp1-21-11-17/sources/arm-ostl-linux-gnueabi/optee-os-stm32mp-3.12.0-stm32mp-r2-r0/optee-os-stm32mp-3.12.0-stm32mp-r2/lib/libutils/ext/snprintk.c:157
     dfa:	b002      	add	sp, #8
     dfc:	bd10      	pop	{r4, pc}
     dfe:	bf00      	nop

00000e00 <__aeabi_ldivmod>:
__aeabi_ldivmod():
/home/frank/TrustSQLite/stm32mp1-openstlinux-5.10-dunfell-mp1-21-11-17/sources/arm-ostl-linux-gnueabi/optee-os-stm32mp-3.12.0-stm32mp-r2-r0/optee-os-stm32mp-3.12.0-stm32mp-r2/lib/libutils/isoc/arch/arm/arm32_aeabi_ldivmod_a32.S:12
     e00:	e92d5000 	push	{ip, lr}
/home/frank/TrustSQLite/stm32mp1-openstlinux-5.10-dunfell-mp1-21-11-17/sources/arm-ostl-linux-gnueabi/optee-os-stm32mp-3.12.0-stm32mp-r2-r0/optee-os-stm32mp-3.12.0-stm32mp-r2/lib/libutils/isoc/arch/arm/arm32_aeabi_ldivmod_a32.S:14
     e04:	e92d000f 	push	{r0, r1, r2, r3}
/home/frank/TrustSQLite/stm32mp1-openstlinux-5.10-dunfell-mp1-21-11-17/sources/arm-ostl-linux-gnueabi/optee-os-stm32mp-3.12.0-stm32mp-r2-r0/optee-os-stm32mp-3.12.0-stm32mp-r2/lib/libutils/isoc/arch/arm/arm32_aeabi_ldivmod_a32.S:16
     e08:	e1a0000d 	mov	r0, sp
/home/frank/TrustSQLite/stm32mp1-openstlinux-5.10-dunfell-mp1-21-11-17/sources/arm-ostl-linux-gnueabi/optee-os-stm32mp-3.12.0-stm32mp-r2-r0/optee-os-stm32mp-3.12.0-stm32mp-r2/lib/libutils/isoc/arch/arm/arm32_aeabi_ldivmod_a32.S:17
     e0c:	fb001fc6 	blx	8d2e <__l_divmod>
/home/frank/TrustSQLite/stm32mp1-openstlinux-5.10-dunfell-mp1-21-11-17/sources/arm-ostl-linux-gnueabi/optee-os-stm32mp-3.12.0-stm32mp-r2-r0/optee-os-stm32mp-3.12.0-stm32mp-r2/lib/libutils/isoc/arch/arm/arm32_aeabi_ldivmod_a32.S:18
     e10:	e8bd000f 	pop	{r0, r1, r2, r3}
/home/frank/TrustSQLite/stm32mp1-openstlinux-5.10-dunfell-mp1-21-11-17/sources/arm-ostl-linux-gnueabi/optee-os-stm32mp-3.12.0-stm32mp-r2-r0/optee-os-stm32mp-3.12.0-stm32mp-r2/lib/libutils/isoc/arch/arm/arm32_aeabi_ldivmod_a32.S:19
     e14:	e8bd9000 	pop	{ip, pc}

00000e18 <__aeabi_uldivmod>:
__aeabi_uldivmod():
/home/frank/TrustSQLite/stm32mp1-openstlinux-5.10-dunfell-mp1-21-11-17/sources/arm-ostl-linux-gnueabi/optee-os-stm32mp-3.12.0-stm32mp-r2-r0/optee-os-stm32mp-3.12.0-stm32mp-r2/lib/libutils/isoc/arch/arm/arm32_aeabi_ldivmod_a32.S:27
     e18:	e92d5000 	push	{ip, lr}
/home/frank/TrustSQLite/stm32mp1-openstlinux-5.10-dunfell-mp1-21-11-17/sources/arm-ostl-linux-gnueabi/optee-os-stm32mp-3.12.0-stm32mp-r2-r0/optee-os-stm32mp-3.12.0-stm32mp-r2/lib/libutils/isoc/arch/arm/arm32_aeabi_ldivmod_a32.S:29
     e1c:	e92d000f 	push	{r0, r1, r2, r3}
/home/frank/TrustSQLite/stm32mp1-openstlinux-5.10-dunfell-mp1-21-11-17/sources/arm-ostl-linux-gnueabi/optee-os-stm32mp-3.12.0-stm32mp-r2-r0/optee-os-stm32mp-3.12.0-stm32mp-r2/lib/libutils/isoc/arch/arm/arm32_aeabi_ldivmod_a32.S:31
     e20:	e1a0000d 	mov	r0, sp
/home/frank/TrustSQLite/stm32mp1-openstlinux-5.10-dunfell-mp1-21-11-17/sources/arm-ostl-linux-gnueabi/optee-os-stm32mp-3.12.0-stm32mp-r2-r0/optee-os-stm32mp-3.12.0-stm32mp-r2/lib/libutils/isoc/arch/arm/arm32_aeabi_ldivmod_a32.S:32
     e24:	fb001fa1 	blx	8cb2 <__ul_divmod>
/home/frank/TrustSQLite/stm32mp1-openstlinux-5.10-dunfell-mp1-21-11-17/sources/arm-ostl-linux-gnueabi/optee-os-stm32mp-3.12.0-stm32mp-r2-r0/optee-os-stm32mp-3.12.0-stm32mp-r2/lib/libutils/isoc/arch/arm/arm32_aeabi_ldivmod_a32.S:33
     e28:	e8bd000f 	pop	{r0, r1, r2, r3}
/home/frank/TrustSQLite/stm32mp1-openstlinux-5.10-dunfell-mp1-21-11-17/sources/arm-ostl-linux-gnueabi/optee-os-stm32mp-3.12.0-stm32mp-r2-r0/optee-os-stm32mp-3.12.0-stm32mp-r2/lib/libutils/isoc/arch/arm/arm32_aeabi_ldivmod_a32.S:34
     e2c:	e8bd9000 	pop	{ip, pc}

00000e30 <trace_ext_puts>:
trace_ext_puts():
/home/frank/TrustSQLite/stm32mp1-openstlinux-5.10-dunfell-mp1-21-11-17/sources/arm-ostl-linux-gnueabi/optee-os-stm32mp-3.12.0-stm32mp-r2-r0/optee-os-stm32mp-3.12.0-stm32mp-r2/lib/libutee/trace_ext.c:22
     e30:	b510      	push	{r4, lr}
     e32:	4604      	mov	r4, r0
/home/frank/TrustSQLite/stm32mp1-openstlinux-5.10-dunfell-mp1-21-11-17/sources/arm-ostl-linux-gnueabi/optee-os-stm32mp-3.12.0-stm32mp-r2-r0/optee-os-stm32mp-3.12.0-stm32mp-r2/lib/libutee/trace_ext.c:26
     e34:	f007 ff35 	bl	8ca2 <strlen>
     e38:	4601      	mov	r1, r0
     e3a:	4620      	mov	r0, r4
/home/frank/TrustSQLite/stm32mp1-openstlinux-5.10-dunfell-mp1-21-11-17/sources/arm-ostl-linux-gnueabi/optee-os-stm32mp-3.12.0-stm32mp-r2-r0/optee-os-stm32mp-3.12.0-stm32mp-r2/lib/libutee/trace_ext.c:28
     e3c:	e8bd 4010 	ldmia.w	sp!, {r4, lr}
/home/frank/TrustSQLite/stm32mp1-openstlinux-5.10-dunfell-mp1-21-11-17/sources/arm-ostl-linux-gnueabi/optee-os-stm32mp-3.12.0-stm32mp-r2-r0/optee-os-stm32mp-3.12.0-stm32mp-r2/lib/libutee/trace_ext.c:26
     e40:	f008 b85a 	b.w	8ef8 <___utee_log_from_thumb>

00000e44 <trace_ext_get_thread_id>:
trace_ext_get_thread_id():
/home/frank/TrustSQLite/stm32mp1-openstlinux-5.10-dunfell-mp1-21-11-17/sources/arm-ostl-linux-gnueabi/optee-os-stm32mp-3.12.0-stm32mp-r2-r0/optee-os-stm32mp-3.12.0-stm32mp-r2/lib/libutee/trace_ext.c:33
     e44:	f04f 30ff 	mov.w	r0, #4294967295	; 0xffffffff
     e48:	4770      	bx	lr

00000e4a <printf>:
printf():
/home/frank/TrustSQLite/stm32mp1-openstlinux-5.10-dunfell-mp1-21-11-17/sources/arm-ostl-linux-gnueabi/optee-os-stm32mp-3.12.0-stm32mp-r2-r0/optee-os-stm32mp-3.12.0-stm32mp-r2/lib/libutee/trace_ext.c:41
     e4a:	b40f      	push	{r0, r1, r2, r3}
     e4c:	b530      	push	{r4, r5, lr}
     e4e:	b0c3      	sub	sp, #268	; 0x10c
/home/frank/TrustSQLite/stm32mp1-openstlinux-5.10-dunfell-mp1-21-11-17/sources/arm-ostl-linux-gnueabi/optee-os-stm32mp-3.12.0-stm32mp-r2-r0/optee-os-stm32mp-3.12.0-stm32mp-r2/lib/libutee/trace_ext.c:46
     e50:	f7ff fb90 	bl	574 <trace_get_level>
     e54:	2800      	cmp	r0, #0
     e56:	dd13      	ble.n	e80 <printf+0x36>
/home/frank/TrustSQLite/stm32mp1-openstlinux-5.10-dunfell-mp1-21-11-17/sources/arm-ostl-linux-gnueabi/optee-os-stm32mp-3.12.0-stm32mp-r2-r0/optee-os-stm32mp-3.12.0-stm32mp-r2/lib/libutee/trace_ext.c:50
     e58:	9a46      	ldr	r2, [sp, #280]	; 0x118
     e5a:	ad02      	add	r5, sp, #8
/home/frank/TrustSQLite/stm32mp1-openstlinux-5.10-dunfell-mp1-21-11-17/sources/arm-ostl-linux-gnueabi/optee-os-stm32mp-3.12.0-stm32mp-r2-r0/optee-os-stm32mp-3.12.0-stm32mp-r2/lib/libutee/trace_ext.c:49
     e5c:	ab47      	add	r3, sp, #284	; 0x11c
/home/frank/TrustSQLite/stm32mp1-openstlinux-5.10-dunfell-mp1-21-11-17/sources/arm-ostl-linux-gnueabi/optee-os-stm32mp-3.12.0-stm32mp-r2-r0/optee-os-stm32mp-3.12.0-stm32mp-r2/lib/libutee/trace_ext.c:50
     e5e:	f44f 7180 	mov.w	r1, #256	; 0x100
/home/frank/TrustSQLite/stm32mp1-openstlinux-5.10-dunfell-mp1-21-11-17/sources/arm-ostl-linux-gnueabi/optee-os-stm32mp-3.12.0-stm32mp-r2-r0/optee-os-stm32mp-3.12.0-stm32mp-r2/lib/libutee/trace_ext.c:49
     e62:	9301      	str	r3, [sp, #4]
/home/frank/TrustSQLite/stm32mp1-openstlinux-5.10-dunfell-mp1-21-11-17/sources/arm-ostl-linux-gnueabi/optee-os-stm32mp-3.12.0-stm32mp-r2-r0/optee-os-stm32mp-3.12.0-stm32mp-r2/lib/libutee/trace_ext.c:50
     e64:	4628      	mov	r0, r5
     e66:	f007 fff1 	bl	8e4c <vsnprintf>
/home/frank/TrustSQLite/stm32mp1-openstlinux-5.10-dunfell-mp1-21-11-17/sources/arm-ostl-linux-gnueabi/optee-os-stm32mp-3.12.0-stm32mp-r2-r0/optee-os-stm32mp-3.12.0-stm32mp-r2/lib/libutee/trace_ext.c:53
     e6a:	1e04      	subs	r4, r0, #0
     e6c:	db02      	blt.n	e74 <printf+0x2a>
/home/frank/TrustSQLite/stm32mp1-openstlinux-5.10-dunfell-mp1-21-11-17/sources/arm-ostl-linux-gnueabi/optee-os-stm32mp-3.12.0-stm32mp-r2-r0/optee-os-stm32mp-3.12.0-stm32mp-r2/lib/libutee/trace_ext.c:56
     e6e:	4628      	mov	r0, r5
     e70:	f7ff ffde 	bl	e30 <trace_ext_puts>
/home/frank/TrustSQLite/stm32mp1-openstlinux-5.10-dunfell-mp1-21-11-17/sources/arm-ostl-linux-gnueabi/optee-os-stm32mp-3.12.0-stm32mp-r2-r0/optee-os-stm32mp-3.12.0-stm32mp-r2/lib/libutee/trace_ext.c:59
     e74:	4620      	mov	r0, r4
     e76:	b043      	add	sp, #268	; 0x10c
     e78:	e8bd 4030 	ldmia.w	sp!, {r4, r5, lr}
     e7c:	b004      	add	sp, #16
     e7e:	4770      	bx	lr
/home/frank/TrustSQLite/stm32mp1-openstlinux-5.10-dunfell-mp1-21-11-17/sources/arm-ostl-linux-gnueabi/optee-os-stm32mp-3.12.0-stm32mp-r2-r0/optee-os-stm32mp-3.12.0-stm32mp-r2/lib/libutee/trace_ext.c:47
     e80:	2400      	movs	r4, #0
     e82:	e7f7      	b.n	e74 <printf+0x2a>

00000e84 <puts>:
puts():
/home/frank/TrustSQLite/stm32mp1-openstlinux-5.10-dunfell-mp1-21-11-17/sources/arm-ostl-linux-gnueabi/optee-os-stm32mp-3.12.0-stm32mp-r2-r0/optee-os-stm32mp-3.12.0-stm32mp-r2/lib/libutee/trace_ext.c:62
     e84:	b510      	push	{r4, lr}
     e86:	4604      	mov	r4, r0
/home/frank/TrustSQLite/stm32mp1-openstlinux-5.10-dunfell-mp1-21-11-17/sources/arm-ostl-linux-gnueabi/optee-os-stm32mp-3.12.0-stm32mp-r2-r0/optee-os-stm32mp-3.12.0-stm32mp-r2/lib/libutee/trace_ext.c:63
     e88:	f7ff fb74 	bl	574 <trace_get_level>
     e8c:	2800      	cmp	r0, #0
     e8e:	dd06      	ble.n	e9e <puts+0x1a>
/home/frank/TrustSQLite/stm32mp1-openstlinux-5.10-dunfell-mp1-21-11-17/sources/arm-ostl-linux-gnueabi/optee-os-stm32mp-3.12.0-stm32mp-r2-r0/optee-os-stm32mp-3.12.0-stm32mp-r2/lib/libutee/trace_ext.c:64
     e90:	4620      	mov	r0, r4
     e92:	f7ff ffcd 	bl	e30 <trace_ext_puts>
/home/frank/TrustSQLite/stm32mp1-openstlinux-5.10-dunfell-mp1-21-11-17/sources/arm-ostl-linux-gnueabi/optee-os-stm32mp-3.12.0-stm32mp-r2-r0/optee-os-stm32mp-3.12.0-stm32mp-r2/lib/libutee/trace_ext.c:65
     e96:	4803      	ldr	r0, [pc, #12]	; (ea4 <puts+0x20>)
     e98:	4478      	add	r0, pc
     e9a:	f7ff ffc9 	bl	e30 <trace_ext_puts>
/home/frank/TrustSQLite/stm32mp1-openstlinux-5.10-dunfell-mp1-21-11-17/sources/arm-ostl-linux-gnueabi/optee-os-stm32mp-3.12.0-stm32mp-r2-r0/optee-os-stm32mp-3.12.0-stm32mp-r2/lib/libutee/trace_ext.c:68
     e9e:	2001      	movs	r0, #1
     ea0:	bd10      	pop	{r4, pc}
     ea2:	bf00      	nop
     ea4:	0000839a 	.word	0x0000839a

00000ea8 <putchar>:
putchar():
/home/frank/TrustSQLite/stm32mp1-openstlinux-5.10-dunfell-mp1-21-11-17/sources/arm-ostl-linux-gnueabi/optee-os-stm32mp-3.12.0-stm32mp-r2-r0/optee-os-stm32mp-3.12.0-stm32mp-r2/lib/libutee/trace_ext.c:71
     ea8:	b513      	push	{r0, r1, r4, lr}
/home/frank/TrustSQLite/stm32mp1-openstlinux-5.10-dunfell-mp1-21-11-17/sources/arm-ostl-linux-gnueabi/optee-os-stm32mp-3.12.0-stm32mp-r2-r0/optee-os-stm32mp-3.12.0-stm32mp-r2/lib/libutee/trace_ext.c:72
     eaa:	2300      	movs	r3, #0
     eac:	f88d 0004 	strb.w	r0, [sp, #4]
/home/frank/TrustSQLite/stm32mp1-openstlinux-5.10-dunfell-mp1-21-11-17/sources/arm-ostl-linux-gnueabi/optee-os-stm32mp-3.12.0-stm32mp-r2-r0/optee-os-stm32mp-3.12.0-stm32mp-r2/lib/libutee/trace_ext.c:71
     eb0:	4604      	mov	r4, r0
/home/frank/TrustSQLite/stm32mp1-openstlinux-5.10-dunfell-mp1-21-11-17/sources/arm-ostl-linux-gnueabi/optee-os-stm32mp-3.12.0-stm32mp-r2-r0/optee-os-stm32mp-3.12.0-stm32mp-r2/lib/libutee/trace_ext.c:72
     eb2:	f88d 3005 	strb.w	r3, [sp, #5]
/home/frank/TrustSQLite/stm32mp1-openstlinux-5.10-dunfell-mp1-21-11-17/sources/arm-ostl-linux-gnueabi/optee-os-stm32mp-3.12.0-stm32mp-r2-r0/optee-os-stm32mp-3.12.0-stm32mp-r2/lib/libutee/trace_ext.c:74
     eb6:	f7ff fb5d 	bl	574 <trace_get_level>
     eba:	2800      	cmp	r0, #0
     ebc:	dd02      	ble.n	ec4 <putchar+0x1c>
/home/frank/TrustSQLite/stm32mp1-openstlinux-5.10-dunfell-mp1-21-11-17/sources/arm-ostl-linux-gnueabi/optee-os-stm32mp-3.12.0-stm32mp-r2-r0/optee-os-stm32mp-3.12.0-stm32mp-r2/lib/libutee/trace_ext.c:75
     ebe:	a801      	add	r0, sp, #4
     ec0:	f7ff ffb6 	bl	e30 <trace_ext_puts>
/home/frank/TrustSQLite/stm32mp1-openstlinux-5.10-dunfell-mp1-21-11-17/sources/arm-ostl-linux-gnueabi/optee-os-stm32mp-3.12.0-stm32mp-r2-r0/optee-os-stm32mp-3.12.0-stm32mp-r2/lib/libutee/trace_ext.c:82
     ec4:	b2e0      	uxtb	r0, r4
     ec6:	b002      	add	sp, #8
     ec8:	bd10      	pop	{r4, pc}
     eca:	bf00      	nop

00000ecc <update_out_param>:
update_out_param():
/home/frank/TrustSQLite/stm32mp1-openstlinux-5.10-dunfell-mp1-21-11-17/sources/arm-ostl-linux-gnueabi/optee-os-stm32mp-3.12.0-stm32mp-r2-r0/optee-os-stm32mp-3.12.0-stm32mp-r2/lib/libutee/tee_api.c:115
     ecc:	e92d 43f8 	stmdb	sp!, {r3, r4, r5, r6, r7, r8, r9, lr}
     ed0:	460f      	mov	r7, r1
/home/frank/TrustSQLite/stm32mp1-openstlinux-5.10-dunfell-mp1-21-11-17/sources/arm-ostl-linux-gnueabi/optee-os-stm32mp-3.12.0-stm32mp-r2-r0/optee-os-stm32mp-3.12.0-stm32mp-r2/lib/libutee/tee_api.c:117
     ed2:	f8d2 9000 	ldr.w	r9, [r2]
/home/frank/TrustSQLite/stm32mp1-openstlinux-5.10-dunfell-mp1-21-11-17/sources/arm-ostl-linux-gnueabi/optee-os-stm32mp-3.12.0-stm32mp-r2-r0/optee-os-stm32mp-3.12.0-stm32mp-r2/lib/libutee/tee_api.c:115
     ed6:	4615      	mov	r5, r2
     ed8:	4604      	mov	r4, r0
/home/frank/TrustSQLite/stm32mp1-openstlinux-5.10-dunfell-mp1-21-11-17/sources/arm-ostl-linux-gnueabi/optee-os-stm32mp-3.12.0-stm32mp-r2-r0/optee-os-stm32mp-3.12.0-stm32mp-r2/lib/libutee/tee_api.c:117
     eda:	2600      	movs	r6, #0
/home/frank/TrustSQLite/stm32mp1-openstlinux-5.10-dunfell-mp1-21-11-17/sources/arm-ostl-linux-gnueabi/optee-os-stm32mp-3.12.0-stm32mp-r2-r0/optee-os-stm32mp-3.12.0-stm32mp-r2/lib/libutee/tee_api.c:123
     edc:	fa29 f206 	lsr.w	r2, r9, r6
/home/frank/TrustSQLite/stm32mp1-openstlinux-5.10-dunfell-mp1-21-11-17/sources/arm-ostl-linux-gnueabi/optee-os-stm32mp-3.12.0-stm32mp-r2-r0/optee-os-stm32mp-3.12.0-stm32mp-r2/lib/libutee/tee_api.c:121
     ee0:	f8d5 8010 	ldr.w	r8, [r5, #16]
/home/frank/TrustSQLite/stm32mp1-openstlinux-5.10-dunfell-mp1-21-11-17/sources/arm-ostl-linux-gnueabi/optee-os-stm32mp-3.12.0-stm32mp-r2-r0/optee-os-stm32mp-3.12.0-stm32mp-r2/lib/libutee/tee_api.c:123
     ee4:	f012 0f0c 	tst.w	r2, #12
     ee8:	f002 030f 	and.w	r3, r2, #15
     eec:	d107      	bne.n	efe <update_out_param+0x32>
     eee:	f012 0f0e 	tst.w	r2, #14
     ef2:	d007      	beq.n	f04 <update_out_param+0x38>
/home/frank/TrustSQLite/stm32mp1-openstlinux-5.10-dunfell-mp1-21-11-17/sources/arm-ostl-linux-gnueabi/optee-os-stm32mp-3.12.0-stm32mp-r2-r0/optee-os-stm32mp-3.12.0-stm32mp-r2/lib/libutee/tee_api.c:120
     ef4:	68ab      	ldr	r3, [r5, #8]
     ef6:	6023      	str	r3, [r4, #0]
/home/frank/TrustSQLite/stm32mp1-openstlinux-5.10-dunfell-mp1-21-11-17/sources/arm-ostl-linux-gnueabi/optee-os-stm32mp-3.12.0-stm32mp-r2-r0/optee-os-stm32mp-3.12.0-stm32mp-r2/lib/libutee/tee_api.c:134
     ef8:	f8c4 8004 	str.w	r8, [r4, #4]
/home/frank/TrustSQLite/stm32mp1-openstlinux-5.10-dunfell-mp1-21-11-17/sources/arm-ostl-linux-gnueabi/optee-os-stm32mp-3.12.0-stm32mp-r2-r0/optee-os-stm32mp-3.12.0-stm32mp-r2/lib/libutee/tee_api.c:135
     efc:	e002      	b.n	f04 <update_out_param+0x38>
/home/frank/TrustSQLite/stm32mp1-openstlinux-5.10-dunfell-mp1-21-11-17/sources/arm-ostl-linux-gnueabi/optee-os-stm32mp-3.12.0-stm32mp-r2-r0/optee-os-stm32mp-3.12.0-stm32mp-r2/lib/libutee/tee_api.c:123
     efe:	3b06      	subs	r3, #6
     f00:	2b01      	cmp	r3, #1
     f02:	d907      	bls.n	f14 <update_out_param+0x48>
/home/frank/TrustSQLite/stm32mp1-openstlinux-5.10-dunfell-mp1-21-11-17/sources/arm-ostl-linux-gnueabi/optee-os-stm32mp-3.12.0-stm32mp-r2-r0/optee-os-stm32mp-3.12.0-stm32mp-r2/lib/libutee/tee_api.c:119 (discriminator 2)
     f04:	3604      	adds	r6, #4
     f06:	3510      	adds	r5, #16
     f08:	2e10      	cmp	r6, #16
     f0a:	f104 0408 	add.w	r4, r4, #8
     f0e:	d1e5      	bne.n	edc <update_out_param+0x10>
/home/frank/TrustSQLite/stm32mp1-openstlinux-5.10-dunfell-mp1-21-11-17/sources/arm-ostl-linux-gnueabi/optee-os-stm32mp-3.12.0-stm32mp-r2-r0/optee-os-stm32mp-3.12.0-stm32mp-r2/lib/libutee/tee_api.c:140
     f10:	e8bd 83f8 	ldmia.w	sp!, {r3, r4, r5, r6, r7, r8, r9, pc}
/home/frank/TrustSQLite/stm32mp1-openstlinux-5.10-dunfell-mp1-21-11-17/sources/arm-ostl-linux-gnueabi/optee-os-stm32mp-3.12.0-stm32mp-r2-r0/optee-os-stm32mp-3.12.0-stm32mp-r2/lib/libutee/tee_api.c:131
     f14:	59b9      	ldr	r1, [r7, r6]
     f16:	2900      	cmp	r1, #0
     f18:	d0ee      	beq.n	ef8 <update_out_param+0x2c>
/home/frank/TrustSQLite/stm32mp1-openstlinux-5.10-dunfell-mp1-21-11-17/sources/arm-ostl-linux-gnueabi/optee-os-stm32mp-3.12.0-stm32mp-r2-r0/optee-os-stm32mp-3.12.0-stm32mp-r2/lib/libutee/tee_api.c:133
     f1a:	6862      	ldr	r2, [r4, #4]
/home/frank/TrustSQLite/stm32mp1-openstlinux-5.10-dunfell-mp1-21-11-17/sources/arm-ostl-linux-gnueabi/optee-os-stm32mp-3.12.0-stm32mp-r2-r0/optee-os-stm32mp-3.12.0-stm32mp-r2/lib/libutee/tee_api.c:132
     f1c:	6820      	ldr	r0, [r4, #0]
     f1e:	4542      	cmp	r2, r8
     f20:	bf28      	it	cs
     f22:	4642      	movcs	r2, r8
     f24:	f7ff fabc 	bl	4a0 <memcpy>
     f28:	e7e6      	b.n	ef8 <update_out_param+0x2c>

00000f2a <TEE_CloseTASession>:
TEE_CloseTASession():
/home/frank/TrustSQLite/stm32mp1-openstlinux-5.10-dunfell-mp1-21-11-17/sources/arm-ostl-linux-gnueabi/optee-os-stm32mp-3.12.0-stm32mp-r2-r0/optee-os-stm32mp-3.12.0-stm32mp-r2/lib/libutee/tee_api.c:189
     f2a:	b508      	push	{r3, lr}
/home/frank/TrustSQLite/stm32mp1-openstlinux-5.10-dunfell-mp1-21-11-17/sources/arm-ostl-linux-gnueabi/optee-os-stm32mp-3.12.0-stm32mp-r2-r0/optee-os-stm32mp-3.12.0-stm32mp-r2/lib/libutee/tee_api.c:190
     f2c:	b130      	cbz	r0, f3c <TEE_CloseTASession+0x12>
/home/frank/TrustSQLite/stm32mp1-openstlinux-5.10-dunfell-mp1-21-11-17/sources/arm-ostl-linux-gnueabi/optee-os-stm32mp-3.12.0-stm32mp-r2-r0/optee-os-stm32mp-3.12.0-stm32mp-r2/lib/libutee/tee_api.c:191
     f2e:	f002 eca0 	blx	3870 <_utee_close_ta_session>
/home/frank/TrustSQLite/stm32mp1-openstlinux-5.10-dunfell-mp1-21-11-17/sources/arm-ostl-linux-gnueabi/optee-os-stm32mp-3.12.0-stm32mp-r2-r0/optee-os-stm32mp-3.12.0-stm32mp-r2/lib/libutee/tee_api.c:193
     f32:	b118      	cbz	r0, f3c <TEE_CloseTASession+0x12>
/home/frank/TrustSQLite/stm32mp1-openstlinux-5.10-dunfell-mp1-21-11-17/sources/arm-ostl-linux-gnueabi/optee-os-stm32mp-3.12.0-stm32mp-r2-r0/optee-os-stm32mp-3.12.0-stm32mp-r2/lib/libutee/tee_api.c:196
     f34:	e8bd 4008 	ldmia.w	sp!, {r3, lr}
/home/frank/TrustSQLite/stm32mp1-openstlinux-5.10-dunfell-mp1-21-11-17/sources/arm-ostl-linux-gnueabi/optee-os-stm32mp-3.12.0-stm32mp-r2-r0/optee-os-stm32mp-3.12.0-stm32mp-r2/lib/libutee/tee_api.c:194
     f38:	f002 bb88 	b.w	364c <TEE_Panic>
/home/frank/TrustSQLite/stm32mp1-openstlinux-5.10-dunfell-mp1-21-11-17/sources/arm-ostl-linux-gnueabi/optee-os-stm32mp-3.12.0-stm32mp-r2-r0/optee-os-stm32mp-3.12.0-stm32mp-r2/lib/libutee/tee_api.c:196
     f3c:	bd08      	pop	{r3, pc}

00000f3e <TEE_GetCancellationFlag>:
TEE_GetCancellationFlag():
/home/frank/TrustSQLite/stm32mp1-openstlinux-5.10-dunfell-mp1-21-11-17/sources/arm-ostl-linux-gnueabi/optee-os-stm32mp-3.12.0-stm32mp-r2-r0/optee-os-stm32mp-3.12.0-stm32mp-r2/lib/libutee/tee_api.c:251
     f3e:	b507      	push	{r0, r1, r2, lr}
/home/frank/TrustSQLite/stm32mp1-openstlinux-5.10-dunfell-mp1-21-11-17/sources/arm-ostl-linux-gnueabi/optee-os-stm32mp-3.12.0-stm32mp-r2-r0/optee-os-stm32mp-3.12.0-stm32mp-r2/lib/libutee/tee_api.c:253
     f40:	a801      	add	r0, sp, #4
     f42:	f002 ecac 	blx	389c <_utee_get_cancellation_flag>
/home/frank/TrustSQLite/stm32mp1-openstlinux-5.10-dunfell-mp1-21-11-17/sources/arm-ostl-linux-gnueabi/optee-os-stm32mp-3.12.0-stm32mp-r2-r0/optee-os-stm32mp-3.12.0-stm32mp-r2/lib/libutee/tee_api.c:255
     f46:	b108      	cbz	r0, f4c <TEE_GetCancellationFlag+0xe>
/home/frank/TrustSQLite/stm32mp1-openstlinux-5.10-dunfell-mp1-21-11-17/sources/arm-ostl-linux-gnueabi/optee-os-stm32mp-3.12.0-stm32mp-r2-r0/optee-os-stm32mp-3.12.0-stm32mp-r2/lib/libutee/tee_api.c:256
     f48:	2300      	movs	r3, #0
     f4a:	9301      	str	r3, [sp, #4]
/home/frank/TrustSQLite/stm32mp1-openstlinux-5.10-dunfell-mp1-21-11-17/sources/arm-ostl-linux-gnueabi/optee-os-stm32mp-3.12.0-stm32mp-r2-r0/optee-os-stm32mp-3.12.0-stm32mp-r2/lib/libutee/tee_api.c:258
     f4c:	9801      	ldr	r0, [sp, #4]
     f4e:	3800      	subs	r0, #0
     f50:	bf18      	it	ne
     f52:	2001      	movne	r0, #1
     f54:	b003      	add	sp, #12
     f56:	f85d fb04 	ldr.w	pc, [sp], #4

00000f5a <TEE_UnmaskCancellation>:
TEE_UnmaskCancellation():
/home/frank/TrustSQLite/stm32mp1-openstlinux-5.10-dunfell-mp1-21-11-17/sources/arm-ostl-linux-gnueabi/optee-os-stm32mp-3.12.0-stm32mp-r2-r0/optee-os-stm32mp-3.12.0-stm32mp-r2/lib/libutee/tee_api.c:261
     f5a:	b507      	push	{r0, r1, r2, lr}
/home/frank/TrustSQLite/stm32mp1-openstlinux-5.10-dunfell-mp1-21-11-17/sources/arm-ostl-linux-gnueabi/optee-os-stm32mp-3.12.0-stm32mp-r2-r0/optee-os-stm32mp-3.12.0-stm32mp-r2/lib/libutee/tee_api.c:263
     f5c:	a801      	add	r0, sp, #4
     f5e:	f002 ecb2 	blx	38c4 <_utee_unmask_cancellation>
/home/frank/TrustSQLite/stm32mp1-openstlinux-5.10-dunfell-mp1-21-11-17/sources/arm-ostl-linux-gnueabi/optee-os-stm32mp-3.12.0-stm32mp-r2-r0/optee-os-stm32mp-3.12.0-stm32mp-r2/lib/libutee/tee_api.c:265
     f62:	b108      	cbz	r0, f68 <TEE_UnmaskCancellation+0xe>
/home/frank/TrustSQLite/stm32mp1-openstlinux-5.10-dunfell-mp1-21-11-17/sources/arm-ostl-linux-gnueabi/optee-os-stm32mp-3.12.0-stm32mp-r2-r0/optee-os-stm32mp-3.12.0-stm32mp-r2/lib/libutee/tee_api.c:266
     f64:	f002 fb72 	bl	364c <TEE_Panic>
/home/frank/TrustSQLite/stm32mp1-openstlinux-5.10-dunfell-mp1-21-11-17/sources/arm-ostl-linux-gnueabi/optee-os-stm32mp-3.12.0-stm32mp-r2-r0/optee-os-stm32mp-3.12.0-stm32mp-r2/lib/libutee/tee_api.c:268
     f68:	9801      	ldr	r0, [sp, #4]
     f6a:	3800      	subs	r0, #0
     f6c:	bf18      	it	ne
     f6e:	2001      	movne	r0, #1
     f70:	b003      	add	sp, #12
     f72:	f85d fb04 	ldr.w	pc, [sp], #4

00000f76 <TEE_MaskCancellation>:
TEE_MaskCancellation():
/home/frank/TrustSQLite/stm32mp1-openstlinux-5.10-dunfell-mp1-21-11-17/sources/arm-ostl-linux-gnueabi/optee-os-stm32mp-3.12.0-stm32mp-r2-r0/optee-os-stm32mp-3.12.0-stm32mp-r2/lib/libutee/tee_api.c:271
     f76:	b507      	push	{r0, r1, r2, lr}
/home/frank/TrustSQLite/stm32mp1-openstlinux-5.10-dunfell-mp1-21-11-17/sources/arm-ostl-linux-gnueabi/optee-os-stm32mp-3.12.0-stm32mp-r2-r0/optee-os-stm32mp-3.12.0-stm32mp-r2/lib/libutee/tee_api.c:273
     f78:	a801      	add	r0, sp, #4
     f7a:	f002 ecae 	blx	38d8 <_utee_mask_cancellation>
/home/frank/TrustSQLite/stm32mp1-openstlinux-5.10-dunfell-mp1-21-11-17/sources/arm-ostl-linux-gnueabi/optee-os-stm32mp-3.12.0-stm32mp-r2-r0/optee-os-stm32mp-3.12.0-stm32mp-r2/lib/libutee/tee_api.c:275
     f7e:	b108      	cbz	r0, f84 <TEE_MaskCancellation+0xe>
/home/frank/TrustSQLite/stm32mp1-openstlinux-5.10-dunfell-mp1-21-11-17/sources/arm-ostl-linux-gnueabi/optee-os-stm32mp-3.12.0-stm32mp-r2-r0/optee-os-stm32mp-3.12.0-stm32mp-r2/lib/libutee/tee_api.c:276
     f80:	f002 fb64 	bl	364c <TEE_Panic>
/home/frank/TrustSQLite/stm32mp1-openstlinux-5.10-dunfell-mp1-21-11-17/sources/arm-ostl-linux-gnueabi/optee-os-stm32mp-3.12.0-stm32mp-r2-r0/optee-os-stm32mp-3.12.0-stm32mp-r2/lib/libutee/tee_api.c:278
     f84:	9801      	ldr	r0, [sp, #4]
     f86:	3800      	subs	r0, #0
     f88:	bf18      	it	ne
     f8a:	2001      	movne	r0, #1
     f8c:	b003      	add	sp, #12
     f8e:	f85d fb04 	ldr.w	pc, [sp], #4

00000f92 <TEE_CheckMemoryAccessRights>:
TEE_CheckMemoryAccessRights():
/home/frank/TrustSQLite/stm32mp1-openstlinux-5.10-dunfell-mp1-21-11-17/sources/arm-ostl-linux-gnueabi/optee-os-stm32mp-3.12.0-stm32mp-r2-r0/optee-os-stm32mp-3.12.0-stm32mp-r2/lib/libutee/tee_api.c:287
     f92:	b10a      	cbz	r2, f98 <TEE_CheckMemoryAccessRights+0x6>
/home/frank/TrustSQLite/stm32mp1-openstlinux-5.10-dunfell-mp1-21-11-17/sources/arm-ostl-linux-gnueabi/optee-os-stm32mp-3.12.0-stm32mp-r2-r0/optee-os-stm32mp-3.12.0-stm32mp-r2/lib/libutee/tee_api.c:291
     f94:	f007 bfa0 	b.w	8ed8 <___utee_check_access_rights_from_thumb>
/home/frank/TrustSQLite/stm32mp1-openstlinux-5.10-dunfell-mp1-21-11-17/sources/arm-ostl-linux-gnueabi/optee-os-stm32mp-3.12.0-stm32mp-r2-r0/optee-os-stm32mp-3.12.0-stm32mp-r2/lib/libutee/tee_api.c:303
     f98:	4610      	mov	r0, r2
     f9a:	4770      	bx	lr

00000f9c <copy_param>:
copy_param():
/home/frank/TrustSQLite/stm32mp1-openstlinux-5.10-dunfell-mp1-21-11-17/sources/arm-ostl-linux-gnueabi/optee-os-stm32mp-3.12.0-stm32mp-r2-r0/optee-os-stm32mp-3.12.0-stm32mp-r2/lib/libutee/tee_api.c:23
     f9c:	e92d 4ff0 	stmdb	sp!, {r4, r5, r6, r7, r8, r9, sl, fp, lr}
/home/frank/TrustSQLite/stm32mp1-openstlinux-5.10-dunfell-mp1-21-11-17/sources/arm-ostl-linux-gnueabi/optee-os-stm32mp-3.12.0-stm32mp-r2-r0/optee-os-stm32mp-3.12.0-stm32mp-r2/lib/libutee/tee_api.c:28
     fa0:	2600      	movs	r6, #0
/home/frank/TrustSQLite/stm32mp1-openstlinux-5.10-dunfell-mp1-21-11-17/sources/arm-ostl-linux-gnueabi/optee-os-stm32mp-3.12.0-stm32mp-r2-r0/optee-os-stm32mp-3.12.0-stm32mp-r2/lib/libutee/tee_api.c:23
     fa2:	ed2d 8b02 	vpush	{d8}
/home/frank/TrustSQLite/stm32mp1-openstlinux-5.10-dunfell-mp1-21-11-17/sources/arm-ostl-linux-gnueabi/optee-os-stm32mp-3.12.0-stm32mp-r2-r0/optee-os-stm32mp-3.12.0-stm32mp-r2/lib/libutee/tee_api.c:39
     fa6:	601e      	str	r6, [r3, #0]
/home/frank/TrustSQLite/stm32mp1-openstlinux-5.10-dunfell-mp1-21-11-17/sources/arm-ostl-linux-gnueabi/optee-os-stm32mp-3.12.0-stm32mp-r2-r0/optee-os-stm32mp-3.12.0-stm32mp-r2/lib/libutee/tee_api.c:23
     fa8:	b085      	sub	sp, #20
     faa:	4699      	mov	r9, r3
     fac:	4604      	mov	r4, r0
/home/frank/TrustSQLite/stm32mp1-openstlinux-5.10-dunfell-mp1-21-11-17/sources/arm-ostl-linux-gnueabi/optee-os-stm32mp-3.12.0-stm32mp-r2-r0/optee-os-stm32mp-3.12.0-stm32mp-r2/lib/libutee/tee_api.c:40
     fae:	9b10      	ldr	r3, [sp, #64]	; 0x40
/home/frank/TrustSQLite/stm32mp1-openstlinux-5.10-dunfell-mp1-21-11-17/sources/arm-ostl-linux-gnueabi/optee-os-stm32mp-3.12.0-stm32mp-r2-r0/optee-os-stm32mp-3.12.0-stm32mp-r2/lib/libutee/tee_api.c:23
     fb0:	4688      	mov	r8, r1
/home/frank/TrustSQLite/stm32mp1-openstlinux-5.10-dunfell-mp1-21-11-17/sources/arm-ostl-linux-gnueabi/optee-os-stm32mp-3.12.0-stm32mp-r2-r0/optee-os-stm32mp-3.12.0-stm32mp-r2/lib/libutee/tee_api.c:28
     fb2:	9603      	str	r6, [sp, #12]
/home/frank/TrustSQLite/stm32mp1-openstlinux-5.10-dunfell-mp1-21-11-17/sources/arm-ostl-linux-gnueabi/optee-os-stm32mp-3.12.0-stm32mp-r2-r0/optee-os-stm32mp-3.12.0-stm32mp-r2/lib/libutee/tee_api.c:23
     fb4:	4615      	mov	r5, r2
/home/frank/TrustSQLite/stm32mp1-openstlinux-5.10-dunfell-mp1-21-11-17/sources/arm-ostl-linux-gnueabi/optee-os-stm32mp-3.12.0-stm32mp-r2-r0/optee-os-stm32mp-3.12.0-stm32mp-r2/lib/libutee/tee_api.c:40
     fb6:	601e      	str	r6, [r3, #0]
/home/frank/TrustSQLite/stm32mp1-openstlinux-5.10-dunfell-mp1-21-11-17/sources/arm-ostl-linux-gnueabi/optee-os-stm32mp-3.12.0-stm32mp-r2-r0/optee-os-stm32mp-3.12.0-stm32mp-r2/lib/libutee/tee_api.c:41
     fb8:	4637      	mov	r7, r6
/home/frank/TrustSQLite/stm32mp1-openstlinux-5.10-dunfell-mp1-21-11-17/sources/arm-ostl-linux-gnueabi/optee-os-stm32mp-3.12.0-stm32mp-r2-r0/optee-os-stm32mp-3.12.0-stm32mp-r2/lib/libutee/tee_api.c:42
     fba:	4633      	mov	r3, r6
/home/frank/TrustSQLite/stm32mp1-openstlinux-5.10-dunfell-mp1-21-11-17/sources/arm-ostl-linux-gnueabi/optee-os-stm32mp-3.12.0-stm32mp-r2-r0/optee-os-stm32mp-3.12.0-stm32mp-r2/lib/libutee/tee_api.c:48
     fbc:	f102 0b04 	add.w	fp, r2, #4
/home/frank/TrustSQLite/stm32mp1-openstlinux-5.10-dunfell-mp1-21-11-17/sources/arm-ostl-linux-gnueabi/optee-os-stm32mp-3.12.0-stm32mp-r2-r0/optee-os-stm32mp-3.12.0-stm32mp-r2/lib/libutee/tee_api.c:59
     fc0:	f04f 0a01 	mov.w	sl, #1
/home/frank/TrustSQLite/stm32mp1-openstlinux-5.10-dunfell-mp1-21-11-17/sources/arm-ostl-linux-gnueabi/optee-os-stm32mp-3.12.0-stm32mp-r2-r0/optee-os-stm32mp-3.12.0-stm32mp-r2/lib/libutee/tee_api.c:42
     fc4:	9a11      	ldr	r2, [sp, #68]	; 0x44
     fc6:	f842 3027 	str.w	r3, [r2, r7, lsl #2]
/home/frank/TrustSQLite/stm32mp1-openstlinux-5.10-dunfell-mp1-21-11-17/sources/arm-ostl-linux-gnueabi/optee-os-stm32mp-3.12.0-stm32mp-r2-r0/optee-os-stm32mp-3.12.0-stm32mp-r2/lib/libutee/tee_api.c:43
     fca:	00ba      	lsls	r2, r7, #2
     fcc:	fa28 f202 	lsr.w	r2, r8, r2
     fd0:	f002 020f 	and.w	r2, r2, #15
     fd4:	3a05      	subs	r2, #5
     fd6:	2a02      	cmp	r2, #2
     fd8:	d813      	bhi.n	1002 <copy_param+0x66>
/home/frank/TrustSQLite/stm32mp1-openstlinux-5.10-dunfell-mp1-21-11-17/sources/arm-ostl-linux-gnueabi/optee-os-stm32mp-3.12.0-stm32mp-r2-r0/optee-os-stm32mp-3.12.0-stm32mp-r2/lib/libutee/tee_api.c:47
     fda:	f855 1037 	ldr.w	r1, [r5, r7, lsl #3]
/home/frank/TrustSQLite/stm32mp1-openstlinux-5.10-dunfell-mp1-21-11-17/sources/arm-ostl-linux-gnueabi/optee-os-stm32mp-3.12.0-stm32mp-r2-r0/optee-os-stm32mp-3.12.0-stm32mp-r2/lib/libutee/tee_api.c:58
     fde:	b181      	cbz	r1, 1002 <copy_param+0x66>
/home/frank/TrustSQLite/stm32mp1-openstlinux-5.10-dunfell-mp1-21-11-17/sources/arm-ostl-linux-gnueabi/optee-os-stm32mp-3.12.0-stm32mp-r2-r0/optee-os-stm32mp-3.12.0-stm32mp-r2/lib/libutee/tee_api.c:48 (discriminator 1)
     fe0:	f85b 2037 	ldr.w	r2, [fp, r7, lsl #3]
/home/frank/TrustSQLite/stm32mp1-openstlinux-5.10-dunfell-mp1-21-11-17/sources/arm-ostl-linux-gnueabi/optee-os-stm32mp-3.12.0-stm32mp-r2-r0/optee-os-stm32mp-3.12.0-stm32mp-r2/lib/libutee/tee_api.c:58 (discriminator 1)
     fe4:	b16a      	cbz	r2, 1002 <copy_param+0x66>
/home/frank/TrustSQLite/stm32mp1-openstlinux-5.10-dunfell-mp1-21-11-17/sources/arm-ostl-linux-gnueabi/optee-os-stm32mp-3.12.0-stm32mp-r2-r0/optee-os-stm32mp-3.12.0-stm32mp-r2/lib/libutee/tee_api.c:59 (discriminator 2)
     fe6:	9201      	str	r2, [sp, #4]
     fe8:	2001      	movs	r0, #1
     fea:	f7ff ffd2 	bl	f92 <TEE_CheckMemoryAccessRights>
/home/frank/TrustSQLite/stm32mp1-openstlinux-5.10-dunfell-mp1-21-11-17/sources/arm-ostl-linux-gnueabi/optee-os-stm32mp-3.12.0-stm32mp-r2-r0/optee-os-stm32mp-3.12.0-stm32mp-r2/lib/libutee/tee_api.c:58 (discriminator 2)
     fee:	2300      	movs	r3, #0
     ff0:	b938      	cbnz	r0, 1002 <copy_param+0x66>
/home/frank/TrustSQLite/stm32mp1-openstlinux-5.10-dunfell-mp1-21-11-17/sources/arm-ostl-linux-gnueabi/optee-os-stm32mp-3.12.0-stm32mp-r2-r0/optee-os-stm32mp-3.12.0-stm32mp-r2/lib/libutee/tee_api.c:61
     ff2:	9a01      	ldr	r2, [sp, #4]
/home/frank/TrustSQLite/stm32mp1-openstlinux-5.10-dunfell-mp1-21-11-17/sources/arm-ostl-linux-gnueabi/optee-os-stm32mp-3.12.0-stm32mp-r2-r0/optee-os-stm32mp-3.12.0-stm32mp-r2/lib/libutee/tee_api.c:60
     ff4:	a903      	add	r1, sp, #12
     ff6:	f807 a001 	strb.w	sl, [r7, r1]
/home/frank/TrustSQLite/stm32mp1-openstlinux-5.10-dunfell-mp1-21-11-17/sources/arm-ostl-linux-gnueabi/optee-os-stm32mp-3.12.0-stm32mp-r2-r0/optee-os-stm32mp-3.12.0-stm32mp-r2/lib/libutee/tee_api.c:61
     ffa:	3207      	adds	r2, #7
     ffc:	f022 0207 	bic.w	r2, r2, #7
    1000:	4416      	add	r6, r2
/home/frank/TrustSQLite/stm32mp1-openstlinux-5.10-dunfell-mp1-21-11-17/sources/arm-ostl-linux-gnueabi/optee-os-stm32mp-3.12.0-stm32mp-r2-r0/optee-os-stm32mp-3.12.0-stm32mp-r2/lib/libutee/tee_api.c:41 (discriminator 2)
    1002:	3701      	adds	r7, #1
    1004:	2f04      	cmp	r7, #4
    1006:	d1dd      	bne.n	fc4 <copy_param+0x28>
/home/frank/TrustSQLite/stm32mp1-openstlinux-5.10-dunfell-mp1-21-11-17/sources/arm-ostl-linux-gnueabi/optee-os-stm32mp-3.12.0-stm32mp-r2-r0/optee-os-stm32mp-3.12.0-stm32mp-r2/lib/libutee/tee_api.c:69
    1008:	b31e      	cbz	r6, 1052 <copy_param+0xb6>
/home/frank/TrustSQLite/stm32mp1-openstlinux-5.10-dunfell-mp1-21-11-17/sources/arm-ostl-linux-gnueabi/optee-os-stm32mp-3.12.0-stm32mp-r2-r0/optee-os-stm32mp-3.12.0-stm32mp-r2/lib/libutee/tee_api.c:70
    100a:	4639      	mov	r1, r7
    100c:	4630      	mov	r0, r6
    100e:	f002 fba1 	bl	3754 <tee_map_zi>
/home/frank/TrustSQLite/stm32mp1-openstlinux-5.10-dunfell-mp1-21-11-17/sources/arm-ostl-linux-gnueabi/optee-os-stm32mp-3.12.0-stm32mp-r2-r0/optee-os-stm32mp-3.12.0-stm32mp-r2/lib/libutee/tee_api.c:71
    1012:	4603      	mov	r3, r0
    1014:	2800      	cmp	r0, #0
    1016:	d051      	beq.n	10bc <copy_param+0x120>
/home/frank/TrustSQLite/stm32mp1-openstlinux-5.10-dunfell-mp1-21-11-17/sources/arm-ostl-linux-gnueabi/optee-os-stm32mp-3.12.0-stm32mp-r2-r0/optee-os-stm32mp-3.12.0-stm32mp-r2/lib/libutee/tee_api.c:74
    1018:	9a10      	ldr	r2, [sp, #64]	; 0x40
/home/frank/TrustSQLite/stm32mp1-openstlinux-5.10-dunfell-mp1-21-11-17/sources/arm-ostl-linux-gnueabi/optee-os-stm32mp-3.12.0-stm32mp-r2-r0/optee-os-stm32mp-3.12.0-stm32mp-r2/lib/libutee/tee_api.c:73
    101a:	f8c9 0000 	str.w	r0, [r9]
/home/frank/TrustSQLite/stm32mp1-openstlinux-5.10-dunfell-mp1-21-11-17/sources/arm-ostl-linux-gnueabi/optee-os-stm32mp-3.12.0-stm32mp-r2-r0/optee-os-stm32mp-3.12.0-stm32mp-r2/lib/libutee/tee_api.c:74
    101e:	6016      	str	r6, [r2, #0]
/home/frank/TrustSQLite/stm32mp1-openstlinux-5.10-dunfell-mp1-21-11-17/sources/arm-ostl-linux-gnueabi/optee-os-stm32mp-3.12.0-stm32mp-r2-r0/optee-os-stm32mp-3.12.0-stm32mp-r2/lib/libutee/tee_api.c:103
    1020:	ef80 8010 	vmov.i32	d8, #0	; 0x00000000
/home/frank/TrustSQLite/stm32mp1-openstlinux-5.10-dunfell-mp1-21-11-17/sources/arm-ostl-linux-gnueabi/optee-os-stm32mp-3.12.0-stm32mp-r2-r0/optee-os-stm32mp-3.12.0-stm32mp-r2/lib/libutee/tee_api.c:77
    1024:	2600      	movs	r6, #0
/home/frank/TrustSQLite/stm32mp1-openstlinux-5.10-dunfell-mp1-21-11-17/sources/arm-ostl-linux-gnueabi/optee-os-stm32mp-3.12.0-stm32mp-r2-r0/optee-os-stm32mp-3.12.0-stm32mp-r2/lib/libutee/tee_api.c:89
    1026:	f10d 0a0c 	add.w	sl, sp, #12
/home/frank/TrustSQLite/stm32mp1-openstlinux-5.10-dunfell-mp1-21-11-17/sources/arm-ostl-linux-gnueabi/optee-os-stm32mp-3.12.0-stm32mp-r2-r0/optee-os-stm32mp-3.12.0-stm32mp-r2/lib/libutee/tee_api.c:82
    102a:	46b1      	mov	r9, r6
/home/frank/TrustSQLite/stm32mp1-openstlinux-5.10-dunfell-mp1-21-11-17/sources/arm-ostl-linux-gnueabi/optee-os-stm32mp-3.12.0-stm32mp-r2-r0/optee-os-stm32mp-3.12.0-stm32mp-r2/lib/libutee/tee_api.c:77
    102c:	e9c4 8600 	strd	r8, r6, [r4]
/home/frank/TrustSQLite/stm32mp1-openstlinux-5.10-dunfell-mp1-21-11-17/sources/arm-ostl-linux-gnueabi/optee-os-stm32mp-3.12.0-stm32mp-r2-r0/optee-os-stm32mp-3.12.0-stm32mp-r2/lib/libutee/tee_api.c:79
    1030:	00b1      	lsls	r1, r6, #2
    1032:	fa28 f101 	lsr.w	r1, r8, r1
    1036:	f001 020f 	and.w	r2, r1, #15
    103a:	2a03      	cmp	r2, #3
    103c:	d029      	beq.n	1092 <copy_param+0xf6>
    103e:	f011 0f0c 	tst.w	r1, #12
    1042:	d108      	bne.n	1056 <copy_param+0xba>
    1044:	2a01      	cmp	r2, #1
    1046:	d024      	beq.n	1092 <copy_param+0xf6>
/home/frank/TrustSQLite/stm32mp1-openstlinux-5.10-dunfell-mp1-21-11-17/sources/arm-ostl-linux-gnueabi/optee-os-stm32mp-3.12.0-stm32mp-r2-r0/optee-os-stm32mp-3.12.0-stm32mp-r2/lib/libutee/tee_api.c:103
    1048:	ed84 8b02 	vstr	d8, [r4, #8]
/home/frank/TrustSQLite/stm32mp1-openstlinux-5.10-dunfell-mp1-21-11-17/sources/arm-ostl-linux-gnueabi/optee-os-stm32mp-3.12.0-stm32mp-r2-r0/optee-os-stm32mp-3.12.0-stm32mp-r2/lib/libutee/tee_api.c:104
    104c:	ed84 8b04 	vstr	d8, [r4, #16]
/home/frank/TrustSQLite/stm32mp1-openstlinux-5.10-dunfell-mp1-21-11-17/sources/arm-ostl-linux-gnueabi/optee-os-stm32mp-3.12.0-stm32mp-r2-r0/optee-os-stm32mp-3.12.0-stm32mp-r2/lib/libutee/tee_api.c:105
    1050:	e025      	b.n	109e <copy_param+0x102>
/home/frank/TrustSQLite/stm32mp1-openstlinux-5.10-dunfell-mp1-21-11-17/sources/arm-ostl-linux-gnueabi/optee-os-stm32mp-3.12.0-stm32mp-r2-r0/optee-os-stm32mp-3.12.0-stm32mp-r2/lib/libutee/tee_api.c:25
    1052:	4633      	mov	r3, r6
    1054:	e7e4      	b.n	1020 <copy_param+0x84>
/home/frank/TrustSQLite/stm32mp1-openstlinux-5.10-dunfell-mp1-21-11-17/sources/arm-ostl-linux-gnueabi/optee-os-stm32mp-3.12.0-stm32mp-r2-r0/optee-os-stm32mp-3.12.0-stm32mp-r2/lib/libutee/tee_api.c:79
    1056:	1f51      	subs	r1, r2, #5
    1058:	2902      	cmp	r1, #2
    105a:	d8f5      	bhi.n	1048 <copy_param+0xac>
/home/frank/TrustSQLite/stm32mp1-openstlinux-5.10-dunfell-mp1-21-11-17/sources/arm-ostl-linux-gnueabi/optee-os-stm32mp-3.12.0-stm32mp-r2-r0/optee-os-stm32mp-3.12.0-stm32mp-r2/lib/libutee/tee_api.c:89
    105c:	f816 100a 	ldrb.w	r1, [r6, sl]
/home/frank/TrustSQLite/stm32mp1-openstlinux-5.10-dunfell-mp1-21-11-17/sources/arm-ostl-linux-gnueabi/optee-os-stm32mp-3.12.0-stm32mp-r2-r0/optee-os-stm32mp-3.12.0-stm32mp-r2/lib/libutee/tee_api.c:88
    1060:	f8d5 b004 	ldr.w	fp, [r5, #4]
/home/frank/TrustSQLite/stm32mp1-openstlinux-5.10-dunfell-mp1-21-11-17/sources/arm-ostl-linux-gnueabi/optee-os-stm32mp-3.12.0-stm32mp-r2-r0/optee-os-stm32mp-3.12.0-stm32mp-r2/lib/libutee/tee_api.c:89
    1064:	b339      	cbz	r1, 10b6 <copy_param+0x11a>
/home/frank/TrustSQLite/stm32mp1-openstlinux-5.10-dunfell-mp1-21-11-17/sources/arm-ostl-linux-gnueabi/optee-os-stm32mp-3.12.0-stm32mp-r2-r0/optee-os-stm32mp-3.12.0-stm32mp-r2/lib/libutee/tee_api.c:91
    1066:	9911      	ldr	r1, [sp, #68]	; 0x44
/home/frank/TrustSQLite/stm32mp1-openstlinux-5.10-dunfell-mp1-21-11-17/sources/arm-ostl-linux-gnueabi/optee-os-stm32mp-3.12.0-stm32mp-r2-r0/optee-os-stm32mp-3.12.0-stm32mp-r2/lib/libutee/tee_api.c:92
    1068:	f10b 0707 	add.w	r7, fp, #7
    106c:	f027 0707 	bic.w	r7, r7, #7
/home/frank/TrustSQLite/stm32mp1-openstlinux-5.10-dunfell-mp1-21-11-17/sources/arm-ostl-linux-gnueabi/optee-os-stm32mp-3.12.0-stm32mp-r2-r0/optee-os-stm32mp-3.12.0-stm32mp-r2/lib/libutee/tee_api.c:93
    1070:	2a06      	cmp	r2, #6
/home/frank/TrustSQLite/stm32mp1-openstlinux-5.10-dunfell-mp1-21-11-17/sources/arm-ostl-linux-gnueabi/optee-os-stm32mp-3.12.0-stm32mp-r2-r0/optee-os-stm32mp-3.12.0-stm32mp-r2/lib/libutee/tee_api.c:92
    1072:	441f      	add	r7, r3
/home/frank/TrustSQLite/stm32mp1-openstlinux-5.10-dunfell-mp1-21-11-17/sources/arm-ostl-linux-gnueabi/optee-os-stm32mp-3.12.0-stm32mp-r2-r0/optee-os-stm32mp-3.12.0-stm32mp-r2/lib/libutee/tee_api.c:91
    1074:	f841 3026 	str.w	r3, [r1, r6, lsl #2]
/home/frank/TrustSQLite/stm32mp1-openstlinux-5.10-dunfell-mp1-21-11-17/sources/arm-ostl-linux-gnueabi/optee-os-stm32mp-3.12.0-stm32mp-r2-r0/optee-os-stm32mp-3.12.0-stm32mp-r2/lib/libutee/tee_api.c:93
    1078:	d005      	beq.n	1086 <copy_param+0xea>
/home/frank/TrustSQLite/stm32mp1-openstlinux-5.10-dunfell-mp1-21-11-17/sources/arm-ostl-linux-gnueabi/optee-os-stm32mp-3.12.0-stm32mp-r2-r0/optee-os-stm32mp-3.12.0-stm32mp-r2/lib/libutee/tee_api.c:95
    107a:	6829      	ldr	r1, [r5, #0]
    107c:	4618      	mov	r0, r3
    107e:	465a      	mov	r2, fp
    1080:	f7ff fa0e 	bl	4a0 <memcpy>
    1084:	4603      	mov	r3, r0
/home/frank/TrustSQLite/stm32mp1-openstlinux-5.10-dunfell-mp1-21-11-17/sources/arm-ostl-linux-gnueabi/optee-os-stm32mp-3.12.0-stm32mp-r2-r0/optee-os-stm32mp-3.12.0-stm32mp-r2/lib/libutee/tee_api.c:99
    1086:	e9c4 3902 	strd	r3, r9, [r4, #8]
/home/frank/TrustSQLite/stm32mp1-openstlinux-5.10-dunfell-mp1-21-11-17/sources/arm-ostl-linux-gnueabi/optee-os-stm32mp-3.12.0-stm32mp-r2-r0/optee-os-stm32mp-3.12.0-stm32mp-r2/lib/libutee/tee_api.c:100
    108a:	e9c4 b904 	strd	fp, r9, [r4, #16]
/home/frank/TrustSQLite/stm32mp1-openstlinux-5.10-dunfell-mp1-21-11-17/sources/arm-ostl-linux-gnueabi/optee-os-stm32mp-3.12.0-stm32mp-r2-r0/optee-os-stm32mp-3.12.0-stm32mp-r2/lib/libutee/tee_api.c:101
    108e:	463b      	mov	r3, r7
    1090:	e005      	b.n	109e <copy_param+0x102>
/home/frank/TrustSQLite/stm32mp1-openstlinux-5.10-dunfell-mp1-21-11-17/sources/arm-ostl-linux-gnueabi/optee-os-stm32mp-3.12.0-stm32mp-r2-r0/optee-os-stm32mp-3.12.0-stm32mp-r2/lib/libutee/tee_api.c:82
    1092:	682a      	ldr	r2, [r5, #0]
    1094:	e9c4 2902 	strd	r2, r9, [r4, #8]
/home/frank/TrustSQLite/stm32mp1-openstlinux-5.10-dunfell-mp1-21-11-17/sources/arm-ostl-linux-gnueabi/optee-os-stm32mp-3.12.0-stm32mp-r2-r0/optee-os-stm32mp-3.12.0-stm32mp-r2/lib/libutee/tee_api.c:83
    1098:	686a      	ldr	r2, [r5, #4]
    109a:	e9c4 2904 	strd	r2, r9, [r4, #16]
/home/frank/TrustSQLite/stm32mp1-openstlinux-5.10-dunfell-mp1-21-11-17/sources/arm-ostl-linux-gnueabi/optee-os-stm32mp-3.12.0-stm32mp-r2-r0/optee-os-stm32mp-3.12.0-stm32mp-r2/lib/libutee/tee_api.c:78 (discriminator 2)
    109e:	3601      	adds	r6, #1
    10a0:	3508      	adds	r5, #8
    10a2:	2e04      	cmp	r6, #4
    10a4:	f104 0410 	add.w	r4, r4, #16
    10a8:	d1c2      	bne.n	1030 <copy_param+0x94>
/home/frank/TrustSQLite/stm32mp1-openstlinux-5.10-dunfell-mp1-21-11-17/sources/arm-ostl-linux-gnueabi/optee-os-stm32mp-3.12.0-stm32mp-r2-r0/optee-os-stm32mp-3.12.0-stm32mp-r2/lib/libutee/tee_api.c:109
    10aa:	2000      	movs	r0, #0
/home/frank/TrustSQLite/stm32mp1-openstlinux-5.10-dunfell-mp1-21-11-17/sources/arm-ostl-linux-gnueabi/optee-os-stm32mp-3.12.0-stm32mp-r2-r0/optee-os-stm32mp-3.12.0-stm32mp-r2/lib/libutee/tee_api.c:110
    10ac:	b005      	add	sp, #20
    10ae:	ecbd 8b02 	vpop	{d8}
    10b2:	e8bd 8ff0 	ldmia.w	sp!, {r4, r5, r6, r7, r8, r9, sl, fp, pc}
/home/frank/TrustSQLite/stm32mp1-openstlinux-5.10-dunfell-mp1-21-11-17/sources/arm-ostl-linux-gnueabi/optee-os-stm32mp-3.12.0-stm32mp-r2-r0/optee-os-stm32mp-3.12.0-stm32mp-r2/lib/libutee/tee_api.c:97
    10b6:	461f      	mov	r7, r3
    10b8:	682b      	ldr	r3, [r5, #0]
    10ba:	e7e4      	b.n	1086 <copy_param+0xea>
/home/frank/TrustSQLite/stm32mp1-openstlinux-5.10-dunfell-mp1-21-11-17/sources/arm-ostl-linux-gnueabi/optee-os-stm32mp-3.12.0-stm32mp-r2-r0/optee-os-stm32mp-3.12.0-stm32mp-r2/lib/libutee/tee_api.c:72
    10bc:	4800      	ldr	r0, [pc, #0]	; (10c0 <copy_param+0x124>)
    10be:	e7f5      	b.n	10ac <copy_param+0x110>
    10c0:	ffff000c 	.word	0xffff000c

000010c4 <TEE_OpenTASession>:
TEE_OpenTASession():
/home/frank/TrustSQLite/stm32mp1-openstlinux-5.10-dunfell-mp1-21-11-17/sources/arm-ostl-linux-gnueabi/optee-os-stm32mp-3.12.0-stm32mp-r2-r0/optee-os-stm32mp-3.12.0-stm32mp-r2/lib/libutee/tee_api.c:154
    10c4:	efc0 0010 	vmov.i32	d16, #0	; 0x00000000
/home/frank/TrustSQLite/stm32mp1-openstlinux-5.10-dunfell-mp1-21-11-17/sources/arm-ostl-linux-gnueabi/optee-os-stm32mp-3.12.0-stm32mp-r2-r0/optee-os-stm32mp-3.12.0-stm32mp-r2/lib/libutee/tee_api.c:148
    10c8:	e92d 47f0 	stmdb	sp!, {r4, r5, r6, r7, r8, r9, sl, lr}
    10cc:	b09c      	sub	sp, #112	; 0x70
    10ce:	461d      	mov	r5, r3
/home/frank/TrustSQLite/stm32mp1-openstlinux-5.10-dunfell-mp1-21-11-17/sources/arm-ostl-linux-gnueabi/optee-os-stm32mp-3.12.0-stm32mp-r2-r0/optee-os-stm32mp-3.12.0-stm32mp-r2/lib/libutee/tee_api.c:151
    10d0:	2300      	movs	r3, #0
/home/frank/TrustSQLite/stm32mp1-openstlinux-5.10-dunfell-mp1-21-11-17/sources/arm-ostl-linux-gnueabi/optee-os-stm32mp-3.12.0-stm32mp-r2-r0/optee-os-stm32mp-3.12.0-stm32mp-r2/lib/libutee/tee_api.c:148
    10d2:	f8dd 9090 	ldr.w	r9, [sp, #144]	; 0x90
/home/frank/TrustSQLite/stm32mp1-openstlinux-5.10-dunfell-mp1-21-11-17/sources/arm-ostl-linux-gnueabi/optee-os-stm32mp-3.12.0-stm32mp-r2-r0/optee-os-stm32mp-3.12.0-stm32mp-r2/lib/libutee/tee_api.c:154
    10d6:	ae06      	add	r6, sp, #24
    10d8:	edcd 0b06 	vstr	d16, [sp, #24]
/home/frank/TrustSQLite/stm32mp1-openstlinux-5.10-dunfell-mp1-21-11-17/sources/arm-ostl-linux-gnueabi/optee-os-stm32mp-3.12.0-stm32mp-r2-r0/optee-os-stm32mp-3.12.0-stm32mp-r2/lib/libutee/tee_api.c:151
    10dc:	9303      	str	r3, [sp, #12]
/home/frank/TrustSQLite/stm32mp1-openstlinux-5.10-dunfell-mp1-21-11-17/sources/arm-ostl-linux-gnueabi/optee-os-stm32mp-3.12.0-stm32mp-r2-r0/optee-os-stm32mp-3.12.0-stm32mp-r2/lib/libutee/tee_api.c:148
    10de:	4607      	mov	r7, r0
    10e0:	4688      	mov	r8, r1
/home/frank/TrustSQLite/stm32mp1-openstlinux-5.10-dunfell-mp1-21-11-17/sources/arm-ostl-linux-gnueabi/optee-os-stm32mp-3.12.0-stm32mp-r2-r0/optee-os-stm32mp-3.12.0-stm32mp-r2/lib/libutee/tee_api.c:156
    10e2:	4614      	mov	r4, r2
/home/frank/TrustSQLite/stm32mp1-openstlinux-5.10-dunfell-mp1-21-11-17/sources/arm-ostl-linux-gnueabi/optee-os-stm32mp-3.12.0-stm32mp-r2-r0/optee-os-stm32mp-3.12.0-stm32mp-r2/lib/libutee/tee_api.c:153
    10e4:	e9cd 3304 	strd	r3, r3, [sp, #16]
/home/frank/TrustSQLite/stm32mp1-openstlinux-5.10-dunfell-mp1-21-11-17/sources/arm-ostl-linux-gnueabi/optee-os-stm32mp-3.12.0-stm32mp-r2-r0/optee-os-stm32mp-3.12.0-stm32mp-r2/lib/libutee/tee_api.c:154
    10e8:	edc6 0b02 	vstr	d16, [r6, #8]
/home/frank/TrustSQLite/stm32mp1-openstlinux-5.10-dunfell-mp1-21-11-17/sources/arm-ostl-linux-gnueabi/optee-os-stm32mp-3.12.0-stm32mp-r2-r0/optee-os-stm32mp-3.12.0-stm32mp-r2/lib/libutee/tee_api.c:156
    10ec:	b11a      	cbz	r2, 10f6 <TEE_OpenTASession+0x32>
/home/frank/TrustSQLite/stm32mp1-openstlinux-5.10-dunfell-mp1-21-11-17/sources/arm-ostl-linux-gnueabi/optee-os-stm32mp-3.12.0-stm32mp-r2-r0/optee-os-stm32mp-3.12.0-stm32mp-r2/lib/libutee/tee_api.c:157
    10ee:	2120      	movs	r1, #32
    10f0:	4628      	mov	r0, r5
    10f2:	f002 fafe 	bl	36f2 <__utee_check_inout_annotation>
/home/frank/TrustSQLite/stm32mp1-openstlinux-5.10-dunfell-mp1-21-11-17/sources/arm-ostl-linux-gnueabi/optee-os-stm32mp-3.12.0-stm32mp-r2-r0/optee-os-stm32mp-3.12.0-stm32mp-r2/lib/libutee/tee_api.c:160
    10f6:	2104      	movs	r1, #4
    10f8:	4648      	mov	r0, r9
/home/frank/TrustSQLite/stm32mp1-openstlinux-5.10-dunfell-mp1-21-11-17/sources/arm-ostl-linux-gnueabi/optee-os-stm32mp-3.12.0-stm32mp-r2-r0/optee-os-stm32mp-3.12.0-stm32mp-r2/lib/libutee/tee_api.c:162
    10fa:	f10d 0a28 	add.w	sl, sp, #40	; 0x28
/home/frank/TrustSQLite/stm32mp1-openstlinux-5.10-dunfell-mp1-21-11-17/sources/arm-ostl-linux-gnueabi/optee-os-stm32mp-3.12.0-stm32mp-r2-r0/optee-os-stm32mp-3.12.0-stm32mp-r2/lib/libutee/tee_api.c:160
    10fe:	f002 fae5 	bl	36cc <__utee_check_out_annotation>
/home/frank/TrustSQLite/stm32mp1-openstlinux-5.10-dunfell-mp1-21-11-17/sources/arm-ostl-linux-gnueabi/optee-os-stm32mp-3.12.0-stm32mp-r2-r0/optee-os-stm32mp-3.12.0-stm32mp-r2/lib/libutee/tee_api.c:162
    1102:	9601      	str	r6, [sp, #4]
    1104:	ab05      	add	r3, sp, #20
    1106:	9300      	str	r3, [sp, #0]
    1108:	4621      	mov	r1, r4
    110a:	ab04      	add	r3, sp, #16
    110c:	462a      	mov	r2, r5
    110e:	4650      	mov	r0, sl
    1110:	f7ff ff44 	bl	f9c <copy_param>
/home/frank/TrustSQLite/stm32mp1-openstlinux-5.10-dunfell-mp1-21-11-17/sources/arm-ostl-linux-gnueabi/optee-os-stm32mp-3.12.0-stm32mp-r2-r0/optee-os-stm32mp-3.12.0-stm32mp-r2/lib/libutee/tee_api.c:163
    1114:	4604      	mov	r4, r0
    1116:	b9b0      	cbnz	r0, 1146 <TEE_OpenTASession+0x82>
/home/frank/TrustSQLite/stm32mp1-openstlinux-5.10-dunfell-mp1-21-11-17/sources/arm-ostl-linux-gnueabi/optee-os-stm32mp-3.12.0-stm32mp-r2-r0/optee-os-stm32mp-3.12.0-stm32mp-r2/lib/libutee/tee_api.c:165
    1118:	9b25      	ldr	r3, [sp, #148]	; 0x94
    111a:	4652      	mov	r2, sl
    111c:	4641      	mov	r1, r8
    111e:	4638      	mov	r0, r7
    1120:	9300      	str	r3, [sp, #0]
    1122:	ab03      	add	r3, sp, #12
    1124:	f002 eb98 	blx	3858 <_utee_open_ta_session>
    1128:	4604      	mov	r4, r0
/home/frank/TrustSQLite/stm32mp1-openstlinux-5.10-dunfell-mp1-21-11-17/sources/arm-ostl-linux-gnueabi/optee-os-stm32mp-3.12.0-stm32mp-r2-r0/optee-os-stm32mp-3.12.0-stm32mp-r2/lib/libutee/tee_api.c:167
    112a:	4652      	mov	r2, sl
    112c:	4628      	mov	r0, r5
    112e:	4631      	mov	r1, r6
    1130:	f7ff fecc 	bl	ecc <update_out_param>
/home/frank/TrustSQLite/stm32mp1-openstlinux-5.10-dunfell-mp1-21-11-17/sources/arm-ostl-linux-gnueabi/optee-os-stm32mp-3.12.0-stm32mp-r2-r0/optee-os-stm32mp-3.12.0-stm32mp-r2/lib/libutee/tee_api.c:168
    1134:	9804      	ldr	r0, [sp, #16]
    1136:	b128      	cbz	r0, 1144 <TEE_OpenTASession+0x80>
/home/frank/TrustSQLite/stm32mp1-openstlinux-5.10-dunfell-mp1-21-11-17/sources/arm-ostl-linux-gnueabi/optee-os-stm32mp-3.12.0-stm32mp-r2-r0/optee-os-stm32mp-3.12.0-stm32mp-r2/lib/libutee/tee_api.c:169
    1138:	9905      	ldr	r1, [sp, #20]
    113a:	f002 fb28 	bl	378e <tee_unmap>
/home/frank/TrustSQLite/stm32mp1-openstlinux-5.10-dunfell-mp1-21-11-17/sources/arm-ostl-linux-gnueabi/optee-os-stm32mp-3.12.0-stm32mp-r2-r0/optee-os-stm32mp-3.12.0-stm32mp-r2/lib/libutee/tee_api.c:171
    113e:	b108      	cbz	r0, 1144 <TEE_OpenTASession+0x80>
/home/frank/TrustSQLite/stm32mp1-openstlinux-5.10-dunfell-mp1-21-11-17/sources/arm-ostl-linux-gnueabi/optee-os-stm32mp-3.12.0-stm32mp-r2-r0/optee-os-stm32mp-3.12.0-stm32mp-r2/lib/libutee/tee_api.c:172
    1140:	f002 fa84 	bl	364c <TEE_Panic>
/home/frank/TrustSQLite/stm32mp1-openstlinux-5.10-dunfell-mp1-21-11-17/sources/arm-ostl-linux-gnueabi/optee-os-stm32mp-3.12.0-stm32mp-r2-r0/optee-os-stm32mp-3.12.0-stm32mp-r2/lib/libutee/tee_api.c:181
    1144:	b10c      	cbz	r4, 114a <TEE_OpenTASession+0x86>
/home/frank/TrustSQLite/stm32mp1-openstlinux-5.10-dunfell-mp1-21-11-17/sources/arm-ostl-linux-gnueabi/optee-os-stm32mp-3.12.0-stm32mp-r2-r0/optee-os-stm32mp-3.12.0-stm32mp-r2/lib/libutee/tee_api.c:182
    1146:	2300      	movs	r3, #0
    1148:	9303      	str	r3, [sp, #12]
/home/frank/TrustSQLite/stm32mp1-openstlinux-5.10-dunfell-mp1-21-11-17/sources/arm-ostl-linux-gnueabi/optee-os-stm32mp-3.12.0-stm32mp-r2-r0/optee-os-stm32mp-3.12.0-stm32mp-r2/lib/libutee/tee_api.c:184
    114a:	9b03      	ldr	r3, [sp, #12]
/home/frank/TrustSQLite/stm32mp1-openstlinux-5.10-dunfell-mp1-21-11-17/sources/arm-ostl-linux-gnueabi/optee-os-stm32mp-3.12.0-stm32mp-r2-r0/optee-os-stm32mp-3.12.0-stm32mp-r2/lib/libutee/tee_api.c:186
    114c:	4620      	mov	r0, r4
/home/frank/TrustSQLite/stm32mp1-openstlinux-5.10-dunfell-mp1-21-11-17/sources/arm-ostl-linux-gnueabi/optee-os-stm32mp-3.12.0-stm32mp-r2-r0/optee-os-stm32mp-3.12.0-stm32mp-r2/lib/libutee/tee_api.c:184
    114e:	f8c9 3000 	str.w	r3, [r9]
/home/frank/TrustSQLite/stm32mp1-openstlinux-5.10-dunfell-mp1-21-11-17/sources/arm-ostl-linux-gnueabi/optee-os-stm32mp-3.12.0-stm32mp-r2-r0/optee-os-stm32mp-3.12.0-stm32mp-r2/lib/libutee/tee_api.c:186
    1152:	b01c      	add	sp, #112	; 0x70
    1154:	e8bd 87f0 	ldmia.w	sp!, {r4, r5, r6, r7, r8, r9, sl, pc}

00001158 <TEE_InvokeTACommand>:
TEE_InvokeTACommand():
/home/frank/TrustSQLite/stm32mp1-openstlinux-5.10-dunfell-mp1-21-11-17/sources/arm-ostl-linux-gnueabi/optee-os-stm32mp-3.12.0-stm32mp-r2-r0/optee-os-stm32mp-3.12.0-stm32mp-r2/lib/libutee/tee_api.c:209
    1158:	efc0 0010 	vmov.i32	d16, #0	; 0x00000000
/home/frank/TrustSQLite/stm32mp1-openstlinux-5.10-dunfell-mp1-21-11-17/sources/arm-ostl-linux-gnueabi/optee-os-stm32mp-3.12.0-stm32mp-r2-r0/optee-os-stm32mp-3.12.0-stm32mp-r2/lib/libutee/tee_api.c:203
    115c:	e92d 4ff0 	stmdb	sp!, {r4, r5, r6, r7, r8, r9, sl, fp, lr}
    1160:	b09d      	sub	sp, #116	; 0x74
    1162:	4693      	mov	fp, r2
/home/frank/TrustSQLite/stm32mp1-openstlinux-5.10-dunfell-mp1-21-11-17/sources/arm-ostl-linux-gnueabi/optee-os-stm32mp-3.12.0-stm32mp-r2-r0/optee-os-stm32mp-3.12.0-stm32mp-r2/lib/libutee/tee_api.c:205
    1164:	2203      	movs	r2, #3
    1166:	9203      	str	r2, [sp, #12]
/home/frank/TrustSQLite/stm32mp1-openstlinux-5.10-dunfell-mp1-21-11-17/sources/arm-ostl-linux-gnueabi/optee-os-stm32mp-3.12.0-stm32mp-r2-r0/optee-os-stm32mp-3.12.0-stm32mp-r2/lib/libutee/tee_api.c:207
    1168:	2200      	movs	r2, #0
/home/frank/TrustSQLite/stm32mp1-openstlinux-5.10-dunfell-mp1-21-11-17/sources/arm-ostl-linux-gnueabi/optee-os-stm32mp-3.12.0-stm32mp-r2-r0/optee-os-stm32mp-3.12.0-stm32mp-r2/lib/libutee/tee_api.c:203
    116a:	9e26      	ldr	r6, [sp, #152]	; 0x98
/home/frank/TrustSQLite/stm32mp1-openstlinux-5.10-dunfell-mp1-21-11-17/sources/arm-ostl-linux-gnueabi/optee-os-stm32mp-3.12.0-stm32mp-r2-r0/optee-os-stm32mp-3.12.0-stm32mp-r2/lib/libutee/tee_api.c:209
    116c:	af06      	add	r7, sp, #24
    116e:	edcd 0b06 	vstr	d16, [sp, #24]
/home/frank/TrustSQLite/stm32mp1-openstlinux-5.10-dunfell-mp1-21-11-17/sources/arm-ostl-linux-gnueabi/optee-os-stm32mp-3.12.0-stm32mp-r2-r0/optee-os-stm32mp-3.12.0-stm32mp-r2/lib/libutee/tee_api.c:203
    1172:	9d27      	ldr	r5, [sp, #156]	; 0x9c
    1174:	4681      	mov	r9, r0
    1176:	468a      	mov	sl, r1
/home/frank/TrustSQLite/stm32mp1-openstlinux-5.10-dunfell-mp1-21-11-17/sources/arm-ostl-linux-gnueabi/optee-os-stm32mp-3.12.0-stm32mp-r2-r0/optee-os-stm32mp-3.12.0-stm32mp-r2/lib/libutee/tee_api.c:211
    1178:	461c      	mov	r4, r3
/home/frank/TrustSQLite/stm32mp1-openstlinux-5.10-dunfell-mp1-21-11-17/sources/arm-ostl-linux-gnueabi/optee-os-stm32mp-3.12.0-stm32mp-r2-r0/optee-os-stm32mp-3.12.0-stm32mp-r2/lib/libutee/tee_api.c:208
    117a:	e9cd 2204 	strd	r2, r2, [sp, #16]
/home/frank/TrustSQLite/stm32mp1-openstlinux-5.10-dunfell-mp1-21-11-17/sources/arm-ostl-linux-gnueabi/optee-os-stm32mp-3.12.0-stm32mp-r2-r0/optee-os-stm32mp-3.12.0-stm32mp-r2/lib/libutee/tee_api.c:209
    117e:	edc7 0b02 	vstr	d16, [r7, #8]
/home/frank/TrustSQLite/stm32mp1-openstlinux-5.10-dunfell-mp1-21-11-17/sources/arm-ostl-linux-gnueabi/optee-os-stm32mp-3.12.0-stm32mp-r2-r0/optee-os-stm32mp-3.12.0-stm32mp-r2/lib/libutee/tee_api.c:211
    1182:	b11b      	cbz	r3, 118c <TEE_InvokeTACommand+0x34>
/home/frank/TrustSQLite/stm32mp1-openstlinux-5.10-dunfell-mp1-21-11-17/sources/arm-ostl-linux-gnueabi/optee-os-stm32mp-3.12.0-stm32mp-r2-r0/optee-os-stm32mp-3.12.0-stm32mp-r2/lib/libutee/tee_api.c:212
    1184:	2120      	movs	r1, #32
    1186:	4630      	mov	r0, r6
    1188:	f002 fab3 	bl	36f2 <__utee_check_inout_annotation>
/home/frank/TrustSQLite/stm32mp1-openstlinux-5.10-dunfell-mp1-21-11-17/sources/arm-ostl-linux-gnueabi/optee-os-stm32mp-3.12.0-stm32mp-r2-r0/optee-os-stm32mp-3.12.0-stm32mp-r2/lib/libutee/tee_api.c:215
    118c:	b11d      	cbz	r5, 1196 <TEE_InvokeTACommand+0x3e>
/home/frank/TrustSQLite/stm32mp1-openstlinux-5.10-dunfell-mp1-21-11-17/sources/arm-ostl-linux-gnueabi/optee-os-stm32mp-3.12.0-stm32mp-r2-r0/optee-os-stm32mp-3.12.0-stm32mp-r2/lib/libutee/tee_api.c:216
    118e:	2104      	movs	r1, #4
    1190:	4628      	mov	r0, r5
    1192:	f002 fa9b 	bl	36cc <__utee_check_out_annotation>
/home/frank/TrustSQLite/stm32mp1-openstlinux-5.10-dunfell-mp1-21-11-17/sources/arm-ostl-linux-gnueabi/optee-os-stm32mp-3.12.0-stm32mp-r2-r0/optee-os-stm32mp-3.12.0-stm32mp-r2/lib/libutee/tee_api.c:219
    1196:	9701      	str	r7, [sp, #4]
    1198:	ab05      	add	r3, sp, #20
    119a:	9300      	str	r3, [sp, #0]
    119c:	f10d 0828 	add.w	r8, sp, #40	; 0x28
    11a0:	4621      	mov	r1, r4
    11a2:	ab04      	add	r3, sp, #16
    11a4:	4632      	mov	r2, r6
    11a6:	4640      	mov	r0, r8
    11a8:	f7ff fef8 	bl	f9c <copy_param>
/home/frank/TrustSQLite/stm32mp1-openstlinux-5.10-dunfell-mp1-21-11-17/sources/arm-ostl-linux-gnueabi/optee-os-stm32mp-3.12.0-stm32mp-r2-r0/optee-os-stm32mp-3.12.0-stm32mp-r2/lib/libutee/tee_api.c:220
    11ac:	4604      	mov	r4, r0
    11ae:	b9a8      	cbnz	r0, 11dc <TEE_InvokeTACommand+0x84>
/home/frank/TrustSQLite/stm32mp1-openstlinux-5.10-dunfell-mp1-21-11-17/sources/arm-ostl-linux-gnueabi/optee-os-stm32mp-3.12.0-stm32mp-r2-r0/optee-os-stm32mp-3.12.0-stm32mp-r2/lib/libutee/tee_api.c:222
    11b0:	ab03      	add	r3, sp, #12
    11b2:	465a      	mov	r2, fp
    11b4:	9300      	str	r3, [sp, #0]
    11b6:	4651      	mov	r1, sl
    11b8:	4643      	mov	r3, r8
    11ba:	4648      	mov	r0, r9
    11bc:	f002 eb62 	blx	3884 <_utee_invoke_ta_command>
    11c0:	4604      	mov	r4, r0
/home/frank/TrustSQLite/stm32mp1-openstlinux-5.10-dunfell-mp1-21-11-17/sources/arm-ostl-linux-gnueabi/optee-os-stm32mp-3.12.0-stm32mp-r2-r0/optee-os-stm32mp-3.12.0-stm32mp-r2/lib/libutee/tee_api.c:225
    11c2:	4642      	mov	r2, r8
    11c4:	4630      	mov	r0, r6
    11c6:	4639      	mov	r1, r7
    11c8:	f7ff fe80 	bl	ecc <update_out_param>
/home/frank/TrustSQLite/stm32mp1-openstlinux-5.10-dunfell-mp1-21-11-17/sources/arm-ostl-linux-gnueabi/optee-os-stm32mp-3.12.0-stm32mp-r2-r0/optee-os-stm32mp-3.12.0-stm32mp-r2/lib/libutee/tee_api.c:226
    11cc:	9804      	ldr	r0, [sp, #16]
    11ce:	b128      	cbz	r0, 11dc <TEE_InvokeTACommand+0x84>
/home/frank/TrustSQLite/stm32mp1-openstlinux-5.10-dunfell-mp1-21-11-17/sources/arm-ostl-linux-gnueabi/optee-os-stm32mp-3.12.0-stm32mp-r2-r0/optee-os-stm32mp-3.12.0-stm32mp-r2/lib/libutee/tee_api.c:227
    11d0:	9905      	ldr	r1, [sp, #20]
    11d2:	f002 fadc 	bl	378e <tee_unmap>
/home/frank/TrustSQLite/stm32mp1-openstlinux-5.10-dunfell-mp1-21-11-17/sources/arm-ostl-linux-gnueabi/optee-os-stm32mp-3.12.0-stm32mp-r2-r0/optee-os-stm32mp-3.12.0-stm32mp-r2/lib/libutee/tee_api.c:229
    11d6:	b108      	cbz	r0, 11dc <TEE_InvokeTACommand+0x84>
/home/frank/TrustSQLite/stm32mp1-openstlinux-5.10-dunfell-mp1-21-11-17/sources/arm-ostl-linux-gnueabi/optee-os-stm32mp-3.12.0-stm32mp-r2-r0/optee-os-stm32mp-3.12.0-stm32mp-r2/lib/libutee/tee_api.c:230
    11d8:	f002 fa38 	bl	364c <TEE_Panic>
/home/frank/TrustSQLite/stm32mp1-openstlinux-5.10-dunfell-mp1-21-11-17/sources/arm-ostl-linux-gnueabi/optee-os-stm32mp-3.12.0-stm32mp-r2-r0/optee-os-stm32mp-3.12.0-stm32mp-r2/lib/libutee/tee_api.c:234
    11dc:	9b03      	ldr	r3, [sp, #12]
    11de:	b105      	cbz	r5, 11e2 <TEE_InvokeTACommand+0x8a>
/home/frank/TrustSQLite/stm32mp1-openstlinux-5.10-dunfell-mp1-21-11-17/sources/arm-ostl-linux-gnueabi/optee-os-stm32mp-3.12.0-stm32mp-r2-r0/optee-os-stm32mp-3.12.0-stm32mp-r2/lib/libutee/tee_api.c:235
    11e0:	602b      	str	r3, [r5, #0]
/home/frank/TrustSQLite/stm32mp1-openstlinux-5.10-dunfell-mp1-21-11-17/sources/arm-ostl-linux-gnueabi/optee-os-stm32mp-3.12.0-stm32mp-r2-r0/optee-os-stm32mp-3.12.0-stm32mp-r2/lib/libutee/tee_api.c:237
    11e2:	2b04      	cmp	r3, #4
    11e4:	d009      	beq.n	11fa <TEE_InvokeTACommand+0xa2>
/home/frank/TrustSQLite/stm32mp1-openstlinux-5.10-dunfell-mp1-21-11-17/sources/arm-ostl-linux-gnueabi/optee-os-stm32mp-3.12.0-stm32mp-r2-r0/optee-os-stm32mp-3.12.0-stm32mp-r2/lib/libutee/tee_api.c:240
    11e6:	b144      	cbz	r4, 11fa <TEE_InvokeTACommand+0xa2>
/home/frank/TrustSQLite/stm32mp1-openstlinux-5.10-dunfell-mp1-21-11-17/sources/arm-ostl-linux-gnueabi/optee-os-stm32mp-3.12.0-stm32mp-r2-r0/optee-os-stm32mp-3.12.0-stm32mp-r2/lib/libutee/tee_api.c:240 (discriminator 1)
    11e8:	4b06      	ldr	r3, [pc, #24]	; (1204 <TEE_InvokeTACommand+0xac>)
    11ea:	429c      	cmp	r4, r3
    11ec:	d005      	beq.n	11fa <TEE_InvokeTACommand+0xa2>
/home/frank/TrustSQLite/stm32mp1-openstlinux-5.10-dunfell-mp1-21-11-17/sources/arm-ostl-linux-gnueabi/optee-os-stm32mp-3.12.0-stm32mp-r2-r0/optee-os-stm32mp-3.12.0-stm32mp-r2/lib/libutee/tee_api.c:241
    11ee:	4b06      	ldr	r3, [pc, #24]	; (1208 <TEE_InvokeTACommand+0xb0>)
    11f0:	429c      	cmp	r4, r3
    11f2:	d002      	beq.n	11fa <TEE_InvokeTACommand+0xa2>
/home/frank/TrustSQLite/stm32mp1-openstlinux-5.10-dunfell-mp1-21-11-17/sources/arm-ostl-linux-gnueabi/optee-os-stm32mp-3.12.0-stm32mp-r2-r0/optee-os-stm32mp-3.12.0-stm32mp-r2/lib/libutee/tee_api.c:243
    11f4:	4620      	mov	r0, r4
    11f6:	f002 fa29 	bl	364c <TEE_Panic>
/home/frank/TrustSQLite/stm32mp1-openstlinux-5.10-dunfell-mp1-21-11-17/sources/arm-ostl-linux-gnueabi/optee-os-stm32mp-3.12.0-stm32mp-r2-r0/optee-os-stm32mp-3.12.0-stm32mp-r2/lib/libutee/tee_api.c:246
    11fa:	4620      	mov	r0, r4
    11fc:	b01d      	add	sp, #116	; 0x74
    11fe:	e8bd 8ff0 	ldmia.w	sp!, {r4, r5, r6, r7, r8, r9, sl, fp, pc}
    1202:	bf00      	nop
    1204:	ffff000c 	.word	0xffff000c
    1208:	ffff3024 	.word	0xffff3024

0000120c <TEE_SetInstanceData>:
TEE_SetInstanceData():
/home/frank/TrustSQLite/stm32mp1-openstlinux-5.10-dunfell-mp1-21-11-17/sources/arm-ostl-linux-gnueabi/optee-os-stm32mp-3.12.0-stm32mp-r2-r0/optee-os-stm32mp-3.12.0-stm32mp-r2/lib/libutee/tee_api.c:307
    120c:	4b01      	ldr	r3, [pc, #4]	; (1214 <TEE_SetInstanceData+0x8>)
    120e:	447b      	add	r3, pc
    1210:	6018      	str	r0, [r3, #0]
/home/frank/TrustSQLite/stm32mp1-openstlinux-5.10-dunfell-mp1-21-11-17/sources/arm-ostl-linux-gnueabi/optee-os-stm32mp-3.12.0-stm32mp-r2-r0/optee-os-stm32mp-3.12.0-stm32mp-r2/lib/libutee/tee_api.c:308
    1212:	4770      	bx	lr
    1214:	0000a0ce 	.word	0x0000a0ce

00001218 <TEE_GetInstanceData>:
TEE_GetInstanceData():
/home/frank/TrustSQLite/stm32mp1-openstlinux-5.10-dunfell-mp1-21-11-17/sources/arm-ostl-linux-gnueabi/optee-os-stm32mp-3.12.0-stm32mp-r2-r0/optee-os-stm32mp-3.12.0-stm32mp-r2/lib/libutee/tee_api.c:313
    1218:	4b01      	ldr	r3, [pc, #4]	; (1220 <TEE_GetInstanceData+0x8>)
    121a:	447b      	add	r3, pc
    121c:	6818      	ldr	r0, [r3, #0]
    121e:	4770      	bx	lr
    1220:	0000a0c2 	.word	0x0000a0c2

00001224 <TEE_MemMove>:
TEE_MemMove():
/home/frank/TrustSQLite/stm32mp1-openstlinux-5.10-dunfell-mp1-21-11-17/sources/arm-ostl-linux-gnueabi/optee-os-stm32mp-3.12.0-stm32mp-r2-r0/optee-os-stm32mp-3.12.0-stm32mp-r2/lib/libutee/tee_api.c:317
    1224:	f007 be19 	b.w	8e5a <memmove>

00001228 <TEE_MemCompare>:
TEE_MemCompare():
/home/frank/TrustSQLite/stm32mp1-openstlinux-5.10-dunfell-mp1-21-11-17/sources/arm-ostl-linux-gnueabi/optee-os-stm32mp-3.12.0-stm32mp-r2-r0/optee-os-stm32mp-3.12.0-stm32mp-r2/lib/libutee/tee_api.c:322
    1228:	f007 be31 	b.w	8e8e <consttime_memcmp>

0000122c <TEE_MemFill>:
TEE_MemFill():
/home/frank/TrustSQLite/stm32mp1-openstlinux-5.10-dunfell-mp1-21-11-17/sources/arm-ostl-linux-gnueabi/optee-os-stm32mp-3.12.0-stm32mp-r2-r0/optee-os-stm32mp-3.12.0-stm32mp-r2/lib/libutee/tee_api.c:327
    122c:	f007 bd23 	b.w	8c76 <memset>

00001230 <TEE_GetSystemTime>:
TEE_GetSystemTime():
/home/frank/TrustSQLite/stm32mp1-openstlinux-5.10-dunfell-mp1-21-11-17/sources/arm-ostl-linux-gnueabi/optee-os-stm32mp-3.12.0-stm32mp-r2-r0/optee-os-stm32mp-3.12.0-stm32mp-r2/lib/libutee/tee_api.c:333
    1230:	4601      	mov	r1, r0
/home/frank/TrustSQLite/stm32mp1-openstlinux-5.10-dunfell-mp1-21-11-17/sources/arm-ostl-linux-gnueabi/optee-os-stm32mp-3.12.0-stm32mp-r2-r0/optee-os-stm32mp-3.12.0-stm32mp-r2/lib/libutee/tee_api.c:334
    1232:	2000      	movs	r0, #0
/home/frank/TrustSQLite/stm32mp1-openstlinux-5.10-dunfell-mp1-21-11-17/sources/arm-ostl-linux-gnueabi/optee-os-stm32mp-3.12.0-stm32mp-r2-r0/optee-os-stm32mp-3.12.0-stm32mp-r2/lib/libutee/tee_api.c:333
    1234:	b508      	push	{r3, lr}
/home/frank/TrustSQLite/stm32mp1-openstlinux-5.10-dunfell-mp1-21-11-17/sources/arm-ostl-linux-gnueabi/optee-os-stm32mp-3.12.0-stm32mp-r2-r0/optee-os-stm32mp-3.12.0-stm32mp-r2/lib/libutee/tee_api.c:334
    1236:	f002 eb64 	blx	3900 <_utee_get_time>
/home/frank/TrustSQLite/stm32mp1-openstlinux-5.10-dunfell-mp1-21-11-17/sources/arm-ostl-linux-gnueabi/optee-os-stm32mp-3.12.0-stm32mp-r2-r0/optee-os-stm32mp-3.12.0-stm32mp-r2/lib/libutee/tee_api.c:336
    123a:	b118      	cbz	r0, 1244 <TEE_GetSystemTime+0x14>
/home/frank/TrustSQLite/stm32mp1-openstlinux-5.10-dunfell-mp1-21-11-17/sources/arm-ostl-linux-gnueabi/optee-os-stm32mp-3.12.0-stm32mp-r2-r0/optee-os-stm32mp-3.12.0-stm32mp-r2/lib/libutee/tee_api.c:338
    123c:	e8bd 4008 	ldmia.w	sp!, {r3, lr}
/home/frank/TrustSQLite/stm32mp1-openstlinux-5.10-dunfell-mp1-21-11-17/sources/arm-ostl-linux-gnueabi/optee-os-stm32mp-3.12.0-stm32mp-r2-r0/optee-os-stm32mp-3.12.0-stm32mp-r2/lib/libutee/tee_api.c:337
    1240:	f002 ba04 	b.w	364c <TEE_Panic>
/home/frank/TrustSQLite/stm32mp1-openstlinux-5.10-dunfell-mp1-21-11-17/sources/arm-ostl-linux-gnueabi/optee-os-stm32mp-3.12.0-stm32mp-r2-r0/optee-os-stm32mp-3.12.0-stm32mp-r2/lib/libutee/tee_api.c:338
    1244:	bd08      	pop	{r3, pc}

00001246 <TEE_Wait>:
TEE_Wait():
/home/frank/TrustSQLite/stm32mp1-openstlinux-5.10-dunfell-mp1-21-11-17/sources/arm-ostl-linux-gnueabi/optee-os-stm32mp-3.12.0-stm32mp-r2-r0/optee-os-stm32mp-3.12.0-stm32mp-r2/lib/libutee/tee_api.c:341
    1246:	b510      	push	{r4, lr}
/home/frank/TrustSQLite/stm32mp1-openstlinux-5.10-dunfell-mp1-21-11-17/sources/arm-ostl-linux-gnueabi/optee-os-stm32mp-3.12.0-stm32mp-r2-r0/optee-os-stm32mp-3.12.0-stm32mp-r2/lib/libutee/tee_api.c:342
    1248:	f002 eb50 	blx	38ec <_utee_wait>
/home/frank/TrustSQLite/stm32mp1-openstlinux-5.10-dunfell-mp1-21-11-17/sources/arm-ostl-linux-gnueabi/optee-os-stm32mp-3.12.0-stm32mp-r2-r0/optee-os-stm32mp-3.12.0-stm32mp-r2/lib/libutee/tee_api.c:344
    124c:	4604      	mov	r4, r0
    124e:	b120      	cbz	r0, 125a <TEE_Wait+0x14>
/home/frank/TrustSQLite/stm32mp1-openstlinux-5.10-dunfell-mp1-21-11-17/sources/arm-ostl-linux-gnueabi/optee-os-stm32mp-3.12.0-stm32mp-r2-r0/optee-os-stm32mp-3.12.0-stm32mp-r2/lib/libutee/tee_api.c:344 (discriminator 1)
    1250:	4b03      	ldr	r3, [pc, #12]	; (1260 <TEE_Wait+0x1a>)
    1252:	4298      	cmp	r0, r3
    1254:	d001      	beq.n	125a <TEE_Wait+0x14>
/home/frank/TrustSQLite/stm32mp1-openstlinux-5.10-dunfell-mp1-21-11-17/sources/arm-ostl-linux-gnueabi/optee-os-stm32mp-3.12.0-stm32mp-r2-r0/optee-os-stm32mp-3.12.0-stm32mp-r2/lib/libutee/tee_api.c:345
    1256:	f002 f9f9 	bl	364c <TEE_Panic>
/home/frank/TrustSQLite/stm32mp1-openstlinux-5.10-dunfell-mp1-21-11-17/sources/arm-ostl-linux-gnueabi/optee-os-stm32mp-3.12.0-stm32mp-r2-r0/optee-os-stm32mp-3.12.0-stm32mp-r2/lib/libutee/tee_api.c:348
    125a:	4620      	mov	r0, r4
    125c:	bd10      	pop	{r4, pc}
    125e:	bf00      	nop
    1260:	ffff0002 	.word	0xffff0002

00001264 <TEE_GetTAPersistentTime>:
TEE_GetTAPersistentTime():
/home/frank/TrustSQLite/stm32mp1-openstlinux-5.10-dunfell-mp1-21-11-17/sources/arm-ostl-linux-gnueabi/optee-os-stm32mp-3.12.0-stm32mp-r2-r0/optee-os-stm32mp-3.12.0-stm32mp-r2/lib/libutee/tee_api.c:351
    1264:	b538      	push	{r3, r4, r5, lr}
/home/frank/TrustSQLite/stm32mp1-openstlinux-5.10-dunfell-mp1-21-11-17/sources/arm-ostl-linux-gnueabi/optee-os-stm32mp-3.12.0-stm32mp-r2-r0/optee-os-stm32mp-3.12.0-stm32mp-r2/lib/libutee/tee_api.c:354
    1266:	4601      	mov	r1, r0
/home/frank/TrustSQLite/stm32mp1-openstlinux-5.10-dunfell-mp1-21-11-17/sources/arm-ostl-linux-gnueabi/optee-os-stm32mp-3.12.0-stm32mp-r2-r0/optee-os-stm32mp-3.12.0-stm32mp-r2/lib/libutee/tee_api.c:351
    1268:	4605      	mov	r5, r0
/home/frank/TrustSQLite/stm32mp1-openstlinux-5.10-dunfell-mp1-21-11-17/sources/arm-ostl-linux-gnueabi/optee-os-stm32mp-3.12.0-stm32mp-r2-r0/optee-os-stm32mp-3.12.0-stm32mp-r2/lib/libutee/tee_api.c:354
    126a:	2001      	movs	r0, #1
    126c:	f002 eb48 	blx	3900 <_utee_get_time>
/home/frank/TrustSQLite/stm32mp1-openstlinux-5.10-dunfell-mp1-21-11-17/sources/arm-ostl-linux-gnueabi/optee-os-stm32mp-3.12.0-stm32mp-r2-r0/optee-os-stm32mp-3.12.0-stm32mp-r2/lib/libutee/tee_api.c:356
    1270:	4604      	mov	r4, r0
    1272:	b170      	cbz	r0, 1292 <TEE_GetTAPersistentTime+0x2e>
/home/frank/TrustSQLite/stm32mp1-openstlinux-5.10-dunfell-mp1-21-11-17/sources/arm-ostl-linux-gnueabi/optee-os-stm32mp-3.12.0-stm32mp-r2-r0/optee-os-stm32mp-3.12.0-stm32mp-r2/lib/libutee/tee_api.c:356 (discriminator 1)
    1274:	4b08      	ldr	r3, [pc, #32]	; (1298 <TEE_GetTAPersistentTime+0x34>)
    1276:	4298      	cmp	r0, r3
    1278:	d00b      	beq.n	1292 <TEE_GetTAPersistentTime+0x2e>
/home/frank/TrustSQLite/stm32mp1-openstlinux-5.10-dunfell-mp1-21-11-17/sources/arm-ostl-linux-gnueabi/optee-os-stm32mp-3.12.0-stm32mp-r2-r0/optee-os-stm32mp-3.12.0-stm32mp-r2/lib/libutee/tee_api.c:357
    127a:	2300      	movs	r3, #0
    127c:	602b      	str	r3, [r5, #0]
/home/frank/TrustSQLite/stm32mp1-openstlinux-5.10-dunfell-mp1-21-11-17/sources/arm-ostl-linux-gnueabi/optee-os-stm32mp-3.12.0-stm32mp-r2-r0/optee-os-stm32mp-3.12.0-stm32mp-r2/lib/libutee/tee_api.c:358
    127e:	606b      	str	r3, [r5, #4]
/home/frank/TrustSQLite/stm32mp1-openstlinux-5.10-dunfell-mp1-21-11-17/sources/arm-ostl-linux-gnueabi/optee-os-stm32mp-3.12.0-stm32mp-r2-r0/optee-os-stm32mp-3.12.0-stm32mp-r2/lib/libutee/tee_api.c:361
    1280:	f500 4330 	add.w	r3, r0, #45056	; 0xb000
    1284:	2b01      	cmp	r3, #1
    1286:	d904      	bls.n	1292 <TEE_GetTAPersistentTime+0x2e>
/home/frank/TrustSQLite/stm32mp1-openstlinux-5.10-dunfell-mp1-21-11-17/sources/arm-ostl-linux-gnueabi/optee-os-stm32mp-3.12.0-stm32mp-r2-r0/optee-os-stm32mp-3.12.0-stm32mp-r2/lib/libutee/tee_api.c:364
    1288:	4b04      	ldr	r3, [pc, #16]	; (129c <TEE_GetTAPersistentTime+0x38>)
    128a:	4298      	cmp	r0, r3
    128c:	d001      	beq.n	1292 <TEE_GetTAPersistentTime+0x2e>
/home/frank/TrustSQLite/stm32mp1-openstlinux-5.10-dunfell-mp1-21-11-17/sources/arm-ostl-linux-gnueabi/optee-os-stm32mp-3.12.0-stm32mp-r2-r0/optee-os-stm32mp-3.12.0-stm32mp-r2/lib/libutee/tee_api.c:366
    128e:	f002 f9dd 	bl	364c <TEE_Panic>
/home/frank/TrustSQLite/stm32mp1-openstlinux-5.10-dunfell-mp1-21-11-17/sources/arm-ostl-linux-gnueabi/optee-os-stm32mp-3.12.0-stm32mp-r2-r0/optee-os-stm32mp-3.12.0-stm32mp-r2/lib/libutee/tee_api.c:369
    1292:	4620      	mov	r0, r4
    1294:	bd38      	pop	{r3, r4, r5, pc}
    1296:	bf00      	nop
    1298:	ffff300f 	.word	0xffff300f
    129c:	ffff000c 	.word	0xffff000c

000012a0 <TEE_SetTAPersistentTime>:
TEE_SetTAPersistentTime():
/home/frank/TrustSQLite/stm32mp1-openstlinux-5.10-dunfell-mp1-21-11-17/sources/arm-ostl-linux-gnueabi/optee-os-stm32mp-3.12.0-stm32mp-r2-r0/optee-os-stm32mp-3.12.0-stm32mp-r2/lib/libutee/tee_api.c:372
    12a0:	b510      	push	{r4, lr}
/home/frank/TrustSQLite/stm32mp1-openstlinux-5.10-dunfell-mp1-21-11-17/sources/arm-ostl-linux-gnueabi/optee-os-stm32mp-3.12.0-stm32mp-r2-r0/optee-os-stm32mp-3.12.0-stm32mp-r2/lib/libutee/tee_api.c:375
    12a2:	f002 eb38 	blx	3914 <_utee_set_ta_time>
/home/frank/TrustSQLite/stm32mp1-openstlinux-5.10-dunfell-mp1-21-11-17/sources/arm-ostl-linux-gnueabi/optee-os-stm32mp-3.12.0-stm32mp-r2-r0/optee-os-stm32mp-3.12.0-stm32mp-r2/lib/libutee/tee_api.c:377
    12a6:	4604      	mov	r4, r0
    12a8:	b138      	cbz	r0, 12ba <TEE_SetTAPersistentTime+0x1a>
/home/frank/TrustSQLite/stm32mp1-openstlinux-5.10-dunfell-mp1-21-11-17/sources/arm-ostl-linux-gnueabi/optee-os-stm32mp-3.12.0-stm32mp-r2-r0/optee-os-stm32mp-3.12.0-stm32mp-r2/lib/libutee/tee_api.c:377 (discriminator 1)
    12aa:	4b05      	ldr	r3, [pc, #20]	; (12c0 <TEE_SetTAPersistentTime+0x20>)
    12ac:	4298      	cmp	r0, r3
    12ae:	d004      	beq.n	12ba <TEE_SetTAPersistentTime+0x1a>
/home/frank/TrustSQLite/stm32mp1-openstlinux-5.10-dunfell-mp1-21-11-17/sources/arm-ostl-linux-gnueabi/optee-os-stm32mp-3.12.0-stm32mp-r2-r0/optee-os-stm32mp-3.12.0-stm32mp-r2/lib/libutee/tee_api.c:378
    12b0:	4b04      	ldr	r3, [pc, #16]	; (12c4 <TEE_SetTAPersistentTime+0x24>)
    12b2:	4298      	cmp	r0, r3
    12b4:	d001      	beq.n	12ba <TEE_SetTAPersistentTime+0x1a>
/home/frank/TrustSQLite/stm32mp1-openstlinux-5.10-dunfell-mp1-21-11-17/sources/arm-ostl-linux-gnueabi/optee-os-stm32mp-3.12.0-stm32mp-r2-r0/optee-os-stm32mp-3.12.0-stm32mp-r2/lib/libutee/tee_api.c:380
    12b6:	f002 f9c9 	bl	364c <TEE_Panic>
/home/frank/TrustSQLite/stm32mp1-openstlinux-5.10-dunfell-mp1-21-11-17/sources/arm-ostl-linux-gnueabi/optee-os-stm32mp-3.12.0-stm32mp-r2-r0/optee-os-stm32mp-3.12.0-stm32mp-r2/lib/libutee/tee_api.c:383
    12ba:	4620      	mov	r0, r4
    12bc:	bd10      	pop	{r4, pc}
    12be:	bf00      	nop
    12c0:	ffff000c 	.word	0xffff000c
    12c4:	ffff3041 	.word	0xffff3041

000012c8 <TEE_GetREETime>:
TEE_GetREETime():
/home/frank/TrustSQLite/stm32mp1-openstlinux-5.10-dunfell-mp1-21-11-17/sources/arm-ostl-linux-gnueabi/optee-os-stm32mp-3.12.0-stm32mp-r2-r0/optee-os-stm32mp-3.12.0-stm32mp-r2/lib/libutee/tee_api.c:386
    12c8:	4601      	mov	r1, r0
/home/frank/TrustSQLite/stm32mp1-openstlinux-5.10-dunfell-mp1-21-11-17/sources/arm-ostl-linux-gnueabi/optee-os-stm32mp-3.12.0-stm32mp-r2-r0/optee-os-stm32mp-3.12.0-stm32mp-r2/lib/libutee/tee_api.c:387
    12ca:	2002      	movs	r0, #2
/home/frank/TrustSQLite/stm32mp1-openstlinux-5.10-dunfell-mp1-21-11-17/sources/arm-ostl-linux-gnueabi/optee-os-stm32mp-3.12.0-stm32mp-r2-r0/optee-os-stm32mp-3.12.0-stm32mp-r2/lib/libutee/tee_api.c:386
    12cc:	b508      	push	{r3, lr}
/home/frank/TrustSQLite/stm32mp1-openstlinux-5.10-dunfell-mp1-21-11-17/sources/arm-ostl-linux-gnueabi/optee-os-stm32mp-3.12.0-stm32mp-r2-r0/optee-os-stm32mp-3.12.0-stm32mp-r2/lib/libutee/tee_api.c:387
    12ce:	f002 eb18 	blx	3900 <_utee_get_time>
/home/frank/TrustSQLite/stm32mp1-openstlinux-5.10-dunfell-mp1-21-11-17/sources/arm-ostl-linux-gnueabi/optee-os-stm32mp-3.12.0-stm32mp-r2-r0/optee-os-stm32mp-3.12.0-stm32mp-r2/lib/libutee/tee_api.c:389
    12d2:	b118      	cbz	r0, 12dc <TEE_GetREETime+0x14>
/home/frank/TrustSQLite/stm32mp1-openstlinux-5.10-dunfell-mp1-21-11-17/sources/arm-ostl-linux-gnueabi/optee-os-stm32mp-3.12.0-stm32mp-r2-r0/optee-os-stm32mp-3.12.0-stm32mp-r2/lib/libutee/tee_api.c:391
    12d4:	e8bd 4008 	ldmia.w	sp!, {r3, lr}
/home/frank/TrustSQLite/stm32mp1-openstlinux-5.10-dunfell-mp1-21-11-17/sources/arm-ostl-linux-gnueabi/optee-os-stm32mp-3.12.0-stm32mp-r2-r0/optee-os-stm32mp-3.12.0-stm32mp-r2/lib/libutee/tee_api.c:390
    12d8:	f002 b9b8 	b.w	364c <TEE_Panic>
/home/frank/TrustSQLite/stm32mp1-openstlinux-5.10-dunfell-mp1-21-11-17/sources/arm-ostl-linux-gnueabi/optee-os-stm32mp-3.12.0-stm32mp-r2-r0/optee-os-stm32mp-3.12.0-stm32mp-r2/lib/libutee/tee_api.c:391
    12dc:	bd08      	pop	{r3, pc}

000012de <TEE_Malloc>:
TEE_Malloc():
/home/frank/TrustSQLite/stm32mp1-openstlinux-5.10-dunfell-mp1-21-11-17/sources/arm-ostl-linux-gnueabi/optee-os-stm32mp-3.12.0-stm32mp-r2-r0/optee-os-stm32mp-3.12.0-stm32mp-r2/lib/libutee/tee_api.c:394
    12de:	b507      	push	{r0, r1, r2, lr}
/home/frank/TrustSQLite/stm32mp1-openstlinux-5.10-dunfell-mp1-21-11-17/sources/arm-ostl-linux-gnueabi/optee-os-stm32mp-3.12.0-stm32mp-r2-r0/optee-os-stm32mp-3.12.0-stm32mp-r2/lib/libutee/tee_api.c:395
    12e0:	b931      	cbnz	r1, 12f0 <TEE_Malloc+0x12>
/home/frank/TrustSQLite/stm32mp1-openstlinux-5.10-dunfell-mp1-21-11-17/sources/arm-ostl-linux-gnueabi/optee-os-stm32mp-3.12.0-stm32mp-r2-r0/optee-os-stm32mp-3.12.0-stm32mp-r2/lib/libutee/tee_api.c:396
    12e2:	4601      	mov	r1, r0
    12e4:	2001      	movs	r0, #1
/home/frank/TrustSQLite/stm32mp1-openstlinux-5.10-dunfell-mp1-21-11-17/sources/arm-ostl-linux-gnueabi/optee-os-stm32mp-3.12.0-stm32mp-r2-r0/optee-os-stm32mp-3.12.0-stm32mp-r2/lib/libutee/tee_api.c:403
    12e6:	b003      	add	sp, #12
    12e8:	f85d eb04 	ldr.w	lr, [sp], #4
/home/frank/TrustSQLite/stm32mp1-openstlinux-5.10-dunfell-mp1-21-11-17/sources/arm-ostl-linux-gnueabi/optee-os-stm32mp-3.12.0-stm32mp-r2-r0/optee-os-stm32mp-3.12.0-stm32mp-r2/lib/libutee/tee_api.c:396
    12ec:	f007 bac4 	b.w	8878 <calloc>
/home/frank/TrustSQLite/stm32mp1-openstlinux-5.10-dunfell-mp1-21-11-17/sources/arm-ostl-linux-gnueabi/optee-os-stm32mp-3.12.0-stm32mp-r2-r0/optee-os-stm32mp-3.12.0-stm32mp-r2/lib/libutee/tee_api.c:397
    12f0:	f1b1 4f00 	cmp.w	r1, #2147483648	; 0x80000000
    12f4:	d104      	bne.n	1300 <TEE_Malloc+0x22>
/home/frank/TrustSQLite/stm32mp1-openstlinux-5.10-dunfell-mp1-21-11-17/sources/arm-ostl-linux-gnueabi/optee-os-stm32mp-3.12.0-stm32mp-r2-r0/optee-os-stm32mp-3.12.0-stm32mp-r2/lib/libutee/tee_api.c:403
    12f6:	b003      	add	sp, #12
    12f8:	f85d eb04 	ldr.w	lr, [sp], #4
/home/frank/TrustSQLite/stm32mp1-openstlinux-5.10-dunfell-mp1-21-11-17/sources/arm-ostl-linux-gnueabi/optee-os-stm32mp-3.12.0-stm32mp-r2-r0/optee-os-stm32mp-3.12.0-stm32mp-r2/lib/libutee/tee_api.c:398
    12fc:	f007 baa4 	b.w	8848 <malloc>
/home/frank/TrustSQLite/stm32mp1-openstlinux-5.10-dunfell-mp1-21-11-17/sources/arm-ostl-linux-gnueabi/optee-os-stm32mp-3.12.0-stm32mp-r2-r0/optee-os-stm32mp-3.12.0-stm32mp-r2/lib/libutee/tee_api.c:400
    1300:	4b07      	ldr	r3, [pc, #28]	; (1320 <TEE_Malloc+0x42>)
    1302:	4808      	ldr	r0, [pc, #32]	; (1324 <TEE_Malloc+0x46>)
    1304:	447b      	add	r3, pc
    1306:	9300      	str	r3, [sp, #0]
    1308:	2301      	movs	r3, #1
    130a:	9101      	str	r1, [sp, #4]
    130c:	461a      	mov	r2, r3
    130e:	4478      	add	r0, pc
    1310:	f44f 71c8 	mov.w	r1, #400	; 0x190
    1314:	f7ff f9d6 	bl	6c4 <trace_printf>
/home/frank/TrustSQLite/stm32mp1-openstlinux-5.10-dunfell-mp1-21-11-17/sources/arm-ostl-linux-gnueabi/optee-os-stm32mp-3.12.0-stm32mp-r2-r0/optee-os-stm32mp-3.12.0-stm32mp-r2/lib/libutee/tee_api.c:403
    1318:	2000      	movs	r0, #0
    131a:	b003      	add	sp, #12
    131c:	f85d fb04 	ldr.w	pc, [sp], #4
    1320:	000082e3 	.word	0x000082e3
    1324:	000082ea 	.word	0x000082ea

00001328 <TEE_Realloc>:
TEE_Realloc():
/home/frank/TrustSQLite/stm32mp1-openstlinux-5.10-dunfell-mp1-21-11-17/sources/arm-ostl-linux-gnueabi/optee-os-stm32mp-3.12.0-stm32mp-r2-r0/optee-os-stm32mp-3.12.0-stm32mp-r2/lib/libutee/tee_api.c:407
    1328:	f007 bace 	b.w	88c8 <realloc>

0000132c <TEE_Free>:
TEE_Free():
/home/frank/TrustSQLite/stm32mp1-openstlinux-5.10-dunfell-mp1-21-11-17/sources/arm-ostl-linux-gnueabi/optee-os-stm32mp-3.12.0-stm32mp-r2-r0/optee-os-stm32mp-3.12.0-stm32mp-r2/lib/libutee/tee_api.c:412
    132c:	f007 bb06 	b.w	893c <free>

00001330 <TEE_CacheClean>:
TEE_CacheClean():
/home/frank/TrustSQLite/stm32mp1-openstlinux-5.10-dunfell-mp1-21-11-17/sources/arm-ostl-linux-gnueabi/optee-os-stm32mp-3.12.0-stm32mp-r2-r0/optee-os-stm32mp-3.12.0-stm32mp-r2/lib/libutee/tee_api.c:418
    1330:	2200      	movs	r2, #0
    1332:	f007 bde9 	b.w	8f08 <___utee_cache_operation_from_thumb>

00001336 <TEE_CacheFlush>:
TEE_CacheFlush():
/home/frank/TrustSQLite/stm32mp1-openstlinux-5.10-dunfell-mp1-21-11-17/sources/arm-ostl-linux-gnueabi/optee-os-stm32mp-3.12.0-stm32mp-r2-r0/optee-os-stm32mp-3.12.0-stm32mp-r2/lib/libutee/tee_api.c:422
    1336:	2201      	movs	r2, #1
    1338:	f007 bde6 	b.w	8f08 <___utee_cache_operation_from_thumb>

0000133c <TEE_CacheInvalidate>:
TEE_CacheInvalidate():
/home/frank/TrustSQLite/stm32mp1-openstlinux-5.10-dunfell-mp1-21-11-17/sources/arm-ostl-linux-gnueabi/optee-os-stm32mp-3.12.0-stm32mp-r2-r0/optee-os-stm32mp-3.12.0-stm32mp-r2/lib/libutee/tee_api.c:427
    133c:	2202      	movs	r2, #2
    133e:	f007 bde3 	b.w	8f08 <___utee_cache_operation_from_thumb>
    1342:	bf00      	nop

00001344 <__utee_from_attr>:
__utee_from_attr():
/home/frank/TrustSQLite/stm32mp1-openstlinux-5.10-dunfell-mp1-21-11-17/sources/arm-ostl-linux-gnueabi/optee-os-stm32mp-3.12.0-stm32mp-r2-r0/optee-os-stm32mp-3.12.0-stm32mp-r2/lib/libutee/tee_api_objects.c:19
    1344:	2318      	movs	r3, #24
/home/frank/TrustSQLite/stm32mp1-openstlinux-5.10-dunfell-mp1-21-11-17/sources/arm-ostl-linux-gnueabi/optee-os-stm32mp-3.12.0-stm32mp-r2-r0/optee-os-stm32mp-3.12.0-stm32mp-r2/lib/libutee/tee_api_objects.c:16
    1346:	b570      	push	{r4, r5, r6, lr}
    1348:	2400      	movs	r4, #0
    134a:	fb03 0202 	mla	r2, r3, r2, r0
/home/frank/TrustSQLite/stm32mp1-openstlinux-5.10-dunfell-mp1-21-11-17/sources/arm-ostl-linux-gnueabi/optee-os-stm32mp-3.12.0-stm32mp-r2-r0/optee-os-stm32mp-3.12.0-stm32mp-r2/lib/libutee/tee_api_objects.c:19 (discriminator 1)
    134e:	4290      	cmp	r0, r2
    1350:	d100      	bne.n	1354 <__utee_from_attr+0x10>
/home/frank/TrustSQLite/stm32mp1-openstlinux-5.10-dunfell-mp1-21-11-17/sources/arm-ostl-linux-gnueabi/optee-os-stm32mp-3.12.0-stm32mp-r2-r0/optee-os-stm32mp-3.12.0-stm32mp-r2/lib/libutee/tee_api_objects.c:29
    1352:	bd70      	pop	{r4, r5, r6, pc}
/home/frank/TrustSQLite/stm32mp1-openstlinux-5.10-dunfell-mp1-21-11-17/sources/arm-ostl-linux-gnueabi/optee-os-stm32mp-3.12.0-stm32mp-r2-r0/optee-os-stm32mp-3.12.0-stm32mp-r2/lib/libutee/tee_api_objects.c:20
    1354:	680b      	ldr	r3, [r1, #0]
    1356:	310c      	adds	r1, #12
    1358:	6103      	str	r3, [r0, #16]
/home/frank/TrustSQLite/stm32mp1-openstlinux-5.10-dunfell-mp1-21-11-17/sources/arm-ostl-linux-gnueabi/optee-os-stm32mp-3.12.0-stm32mp-r2-r0/optee-os-stm32mp-3.12.0-stm32mp-r2/lib/libutee/tee_api_objects.c:21
    135a:	f013 5300 	ands.w	r3, r3, #536870912	; 0x20000000
/home/frank/TrustSQLite/stm32mp1-openstlinux-5.10-dunfell-mp1-21-11-17/sources/arm-ostl-linux-gnueabi/optee-os-stm32mp-3.12.0-stm32mp-r2-r0/optee-os-stm32mp-3.12.0-stm32mp-r2/lib/libutee/tee_api_objects.c:22
    135e:	f851 5c04 	ldr.w	r5, [r1, #-4]
    1362:	bf17      	itett	ne
    1364:	f851 3c08 	ldrne.w	r3, [r1, #-8]
/home/frank/TrustSQLite/stm32mp1-openstlinux-5.10-dunfell-mp1-21-11-17/sources/arm-ostl-linux-gnueabi/optee-os-stm32mp-3.12.0-stm32mp-r2-r0/optee-os-stm32mp-3.12.0-stm32mp-r2/lib/libutee/tee_api_objects.c:25
    1368:	f851 6c08 	ldreq.w	r6, [r1, #-8]
/home/frank/TrustSQLite/stm32mp1-openstlinux-5.10-dunfell-mp1-21-11-17/sources/arm-ostl-linux-gnueabi/optee-os-stm32mp-3.12.0-stm32mp-r2-r0/optee-os-stm32mp-3.12.0-stm32mp-r2/lib/libutee/tee_api_objects.c:22
    136c:	e9c0 3400 	strdne	r3, r4, [r0]
/home/frank/TrustSQLite/stm32mp1-openstlinux-5.10-dunfell-mp1-21-11-17/sources/arm-ostl-linux-gnueabi/optee-os-stm32mp-3.12.0-stm32mp-r2-r0/optee-os-stm32mp-3.12.0-stm32mp-r2/lib/libutee/tee_api_objects.c:23
    1370:	e9c0 5402 	strdne	r5, r4, [r0, #8]
/home/frank/TrustSQLite/stm32mp1-openstlinux-5.10-dunfell-mp1-21-11-17/sources/arm-ostl-linux-gnueabi/optee-os-stm32mp-3.12.0-stm32mp-r2-r0/optee-os-stm32mp-3.12.0-stm32mp-r2/lib/libutee/tee_api_objects.c:25
    1374:	bf04      	itt	eq
    1376:	e9c0 6300 	strdeq	r6, r3, [r0]
/home/frank/TrustSQLite/stm32mp1-openstlinux-5.10-dunfell-mp1-21-11-17/sources/arm-ostl-linux-gnueabi/optee-os-stm32mp-3.12.0-stm32mp-r2-r0/optee-os-stm32mp-3.12.0-stm32mp-r2/lib/libutee/tee_api_objects.c:26
    137a:	e9c0 5302 	strdeq	r5, r3, [r0, #8]
/home/frank/TrustSQLite/stm32mp1-openstlinux-5.10-dunfell-mp1-21-11-17/sources/arm-ostl-linux-gnueabi/optee-os-stm32mp-3.12.0-stm32mp-r2-r0/optee-os-stm32mp-3.12.0-stm32mp-r2/lib/libutee/tee_api_objects.c:19
    137e:	3018      	adds	r0, #24
    1380:	e7e5      	b.n	134e <__utee_from_attr+0xa>

00001382 <TEE_GetObjectInfo>:
TEE_GetObjectInfo():
/home/frank/TrustSQLite/stm32mp1-openstlinux-5.10-dunfell-mp1-21-11-17/sources/arm-ostl-linux-gnueabi/optee-os-stm32mp-3.12.0-stm32mp-r2-r0/optee-os-stm32mp-3.12.0-stm32mp-r2/lib/libutee/tee_api_objects.c:39
    1382:	b510      	push	{r4, lr}
    1384:	460c      	mov	r4, r1
/home/frank/TrustSQLite/stm32mp1-openstlinux-5.10-dunfell-mp1-21-11-17/sources/arm-ostl-linux-gnueabi/optee-os-stm32mp-3.12.0-stm32mp-r2-r0/optee-os-stm32mp-3.12.0-stm32mp-r2/lib/libutee/tee_api_objects.c:42
    1386:	f002 eb32 	blx	39ec <_utee_cryp_obj_get_info>
/home/frank/TrustSQLite/stm32mp1-openstlinux-5.10-dunfell-mp1-21-11-17/sources/arm-ostl-linux-gnueabi/optee-os-stm32mp-3.12.0-stm32mp-r2-r0/optee-os-stm32mp-3.12.0-stm32mp-r2/lib/libutee/tee_api_objects.c:44
    138a:	b108      	cbz	r0, 1390 <TEE_GetObjectInfo+0xe>
/home/frank/TrustSQLite/stm32mp1-openstlinux-5.10-dunfell-mp1-21-11-17/sources/arm-ostl-linux-gnueabi/optee-os-stm32mp-3.12.0-stm32mp-r2-r0/optee-os-stm32mp-3.12.0-stm32mp-r2/lib/libutee/tee_api_objects.c:45
    138c:	f002 f95e 	bl	364c <TEE_Panic>
/home/frank/TrustSQLite/stm32mp1-openstlinux-5.10-dunfell-mp1-21-11-17/sources/arm-ostl-linux-gnueabi/optee-os-stm32mp-3.12.0-stm32mp-r2-r0/optee-os-stm32mp-3.12.0-stm32mp-r2/lib/libutee/tee_api_objects.c:47
    1390:	6822      	ldr	r2, [r4, #0]
    1392:	4b05      	ldr	r3, [pc, #20]	; (13a8 <TEE_GetObjectInfo+0x26>)
    1394:	429a      	cmp	r2, r3
    1396:	d106      	bne.n	13a6 <TEE_GetObjectInfo+0x24>
/home/frank/TrustSQLite/stm32mp1-openstlinux-5.10-dunfell-mp1-21-11-17/sources/arm-ostl-linux-gnueabi/optee-os-stm32mp-3.12.0-stm32mp-r2-r0/optee-os-stm32mp-3.12.0-stm32mp-r2/lib/libutee/tee_api_objects.c:48
    1398:	2300      	movs	r3, #0
    139a:	6063      	str	r3, [r4, #4]
/home/frank/TrustSQLite/stm32mp1-openstlinux-5.10-dunfell-mp1-21-11-17/sources/arm-ostl-linux-gnueabi/optee-os-stm32mp-3.12.0-stm32mp-r2-r0/optee-os-stm32mp-3.12.0-stm32mp-r2/lib/libutee/tee_api_objects.c:49
    139c:	60a3      	str	r3, [r4, #8]
/home/frank/TrustSQLite/stm32mp1-openstlinux-5.10-dunfell-mp1-21-11-17/sources/arm-ostl-linux-gnueabi/optee-os-stm32mp-3.12.0-stm32mp-r2-r0/optee-os-stm32mp-3.12.0-stm32mp-r2/lib/libutee/tee_api_objects.c:50
    139e:	60e3      	str	r3, [r4, #12]
/home/frank/TrustSQLite/stm32mp1-openstlinux-5.10-dunfell-mp1-21-11-17/sources/arm-ostl-linux-gnueabi/optee-os-stm32mp-3.12.0-stm32mp-r2-r0/optee-os-stm32mp-3.12.0-stm32mp-r2/lib/libutee/tee_api_objects.c:51
    13a0:	6123      	str	r3, [r4, #16]
/home/frank/TrustSQLite/stm32mp1-openstlinux-5.10-dunfell-mp1-21-11-17/sources/arm-ostl-linux-gnueabi/optee-os-stm32mp-3.12.0-stm32mp-r2-r0/optee-os-stm32mp-3.12.0-stm32mp-r2/lib/libutee/tee_api_objects.c:52
    13a2:	6163      	str	r3, [r4, #20]
